///////////////////////////////////////////////////////////////////////////////
//                                                                            /
// IAR C/C++ Compiler V7.60.1.40026 for 8051            08/Jun/2018  08:41:48 /
// Copyright (C) 2004-2010 IAR Systems AB.                                    /
//                                                                            /
//    Core               =  plain                                             /
//    Code model         =  banked                                            /
//    Data model         =  large                                             /
//    Calling convention =  xdata reentrant                                   /
//    Constant location  =  data_rom                                          /
//    Dptr setup         =  1,16                                              /
//    Source file        =  C:\Users\win7\Desktop\ZStack´«¸ÐÆ÷Í¸Ã÷´«ÊäÔ´³ÌÐòV /
//                          2.45-13(´ø»ØÂë2018-5-20)\Projects\GenericApp\Sour /
//                          ce\LCD.c                                          /
//    Command line       =  -f "C:\Users\win7\Desktop\ZStack´«¸ÐÆ÷Í¸Ã÷´«ÊäÔ´³ /
//                          ÌÐòV2.45-13(´ø»ØÂë2018-5-20)\Projects\GenericApp\ /
//                          CC2530DB\..\..\..\COMPONENTS\Tools\CC2530DB\f8wCo /
//                          ord.cfg" (-DCPU32MHZ -DROOT=__near_func           /
//                          -DMAC_CFG_APP_PENDING_QUEUE=TRUE                  /
//                          -DMAC_CFG_TX_DATA_MAX=5 -DMAC_CFG_TX_MAX=8        /
//                          -DMAC_CFG_RX_MAX=5 -DRTR_NWK) -f                  /
//                          "C:\Users\win7\Desktop\ZStack´«¸ÐÆ÷Í¸Ã÷´«ÊäÔ´³ÌÐò /
//                          V2.45-13(´ø»ØÂë2018-5-20)\Projects\GenericApp\CC2 /
//                          530DB\..\..\..\COMPONENTS\Tools\CC2530DB\f8wConfi /
//                          g.cfg" (-DSECURE=0 -DZG_SECURE_DYNAMIC=0          /
//                          -DREFLECTOR -DNWK_START_DELAY=1000                /
//                          -DEXTENDED_JOINING_RANDOM_MASK=0x007F             /
//                          -DBEACON_REQUEST_DELAY=1000                       /
//                          -DBEACON_REQ_DELAY_MASK=0x00FF                    /
//                          -DLINK_STATUS_JITTER_MASK=0x007F                  /
//                          -DROUTE_EXPIRY_TIME=30 -DAPSC_ACK_WAIT_DURATION_P /
//                          OLLED=3000 -DNWK_INDIRECT_MSG_TIMEOUT=7           /
//                          -DMAX_RREQ_ENTRIES=8 -DAPSC_MAX_FRAME_RETRIES=3   /
//                          -DNWK_MAX_DATA_RETRIES=2                          /
//                          -DMAX_POLL_FAILURE_RETRIES=2 -DMAX_BCAST=9        /
//                          -DAPS_MAX_GROUPS=16 -DMAX_RTG_ENTRIES=40          /
//                          -DNWK_MAX_BINDING_ENTRIES=4                       /
//                          -DMAX_BINDING_CLUSTER_IDS=4                       /
//                          "-DDEFAULT_KEY={0x01, 0x03, 0x05, 0x07, 0x09,     /
//                          0x0B, 0x0D, 0x0F, 0x00, 0x02, 0x04, 0x06, 0x08,   /
//                          0x0A, 0x0C, 0x0D}" -DMAC_MAX_FRAME_SIZE=116       /
//                          -DZDNWKMGR_MIN_TRANSMISSIONS=20 "-DCONST=const    /
//                          __code" -DGENERIC=__generic                       /
//                          -DRFD_RCVC_ALWAYS_ON=FALSE -DPOLL_RATE=1000       /
//                          -DQUEUED_POLL_RATE=100 -DRESPONSE_POLL_RATE=100)  /
//                          -DREJOIN_POLL_RATE=440 "C:\Users\win7\Desktop\ZSt /
//                          ack´«¸ÐÆ÷Í¸Ã÷´«ÊäÔ´³ÌÐòV2.45-13(´ø»ØÂë2018-5-20)\ /
//                          Projects\GenericApp\Source\LCD.c" -D ZTOOL_P1 -D  /
//                          MT_TASK -D MT_SYS_FUNC -D MT_ZDO_FUNC -D          /
//                          HAL_PA_LNA -D SERIAL_SUPPORTED=DEBUG -D           /
//                          SENSOR_TYPE_Coord -D CHANLIST_C_R_E=25 -D         /
//                          ZDAPP_CONFIG_PAN_ID=0x0004 -D FT_PAN_ID_C_R_C -D  /
//                          ZigBee_C_R_E_Engineering -D ZDO_COORDINATOR=0 -D  /
//                          xNV_RESTORE -lC "C:\Users\win7\Desktop\ZStack´«¸Ð /
//                          Æ÷Í¸Ã÷´«ÊäÔ´³ÌÐòV2.45-13(´ø»ØÂë2018-5-20)\Project /
//                          s\GenericApp\CC2530DB\Coordinator\List\" -lA      /
//                          "C:\Users\win7\Desktop\ZStack´«¸ÐÆ÷Í¸Ã÷´«ÊäÔ´³ÌÐò /
//                          V2.45-13(´ø»ØÂë2018-5-20)\Projects\GenericApp\CC2 /
//                          530DB\Coordinator\List\" --diag_suppress          /
//                          Pe001,Pa010 -o "C:\Users\win7\Desktop\ZStack´«¸ÐÆ /
//                          ÷Í¸Ã÷´«ÊäÔ´³ÌÐòV2.45-13(´ø»ØÂë2018-5-20)\Projects /
//                          \GenericApp\CC2530DB\Coordinator\Obj\" -e         /
//                          --require_prototypes --debug --core=plain         /
//                          --dptr=16,1 --data_model=large                    /
//                          --code_model=banked --calling_convention=xdata_re /
//                          entrant --place_constants=data_rom                /
//                          --nr_virtual_regs 16 -I                           /
//                          "C:\Users\win7\Desktop\ZStack´«¸ÐÆ÷Í¸Ã÷´«ÊäÔ´³ÌÐò /
//                          V2.45-13(´ø»ØÂë2018-5-20)\Projects\GenericApp\CC2 /
//                          530DB\" -I "C:\Users\win7\Desktop\ZStack´«¸ÐÆ÷Í¸Ã /
//                          ÷´«ÊäÔ´³ÌÐòV2.45-13(´ø»ØÂë2018-5-20)\Projects\Gen /
//                          ericApp\CC2530DB\..\SOURCE\" -I                   /
//                          "C:\Users\win7\Desktop\ZStack´«¸ÐÆ÷Í¸Ã÷´«ÊäÔ´³ÌÐò /
//                          V2.45-13(´ø»ØÂë2018-5-20)\Projects\GenericApp\CC2 /
//                          530DB\..\..\..\COMPONENTS\ZMAIN\TI2530DB\" -I     /
//                          "C:\Users\win7\Desktop\ZStack´«¸ÐÆ÷Í¸Ã÷´«ÊäÔ´³ÌÐò /
//                          V2.45-13(´ø»ØÂë2018-5-20)\Projects\GenericApp\CC2 /
//                          530DB\..\..\..\COMPONENTS\MT\" -I                 /
//                          "C:\Users\win7\Desktop\ZStack´«¸ÐÆ÷Í¸Ã÷´«ÊäÔ´³ÌÐò /
//                          V2.45-13(´ø»ØÂë2018-5-20)\Projects\GenericApp\CC2 /
//                          530DB\..\..\..\COMPONENTS\HAL\INCLUDE\" -I        /
//                          "C:\Users\win7\Desktop\ZStack´«¸ÐÆ÷Í¸Ã÷´«ÊäÔ´³ÌÐò /
//                          V2.45-13(´ø»ØÂë2018-5-20)\Projects\GenericApp\CC2 /
//                          530DB\..\..\..\COMPONENTS\HAL\TARGET\CC2530EB\"   /
//                          -I "C:\Users\win7\Desktop\ZStack´«¸ÐÆ÷Í¸Ã÷´«ÊäÔ´³ /
//                          ÌÐòV2.45-13(´ø»ØÂë2018-5-20)\Projects\GenericApp\ /
//                          CC2530DB\..\..\..\COMPONENTS\OSAL\MCU\CCSOC\" -I  /
//                          "C:\Users\win7\Desktop\ZStack´«¸ÐÆ÷Í¸Ã÷´«ÊäÔ´³ÌÐò /
//                          V2.45-13(´ø»ØÂë2018-5-20)\Projects\GenericApp\CC2 /
//                          530DB\..\..\..\COMPONENTS\OSAL\INCLUDE\" -I       /
//                          "C:\Users\win7\Desktop\ZStack´«¸ÐÆ÷Í¸Ã÷´«ÊäÔ´³ÌÐò /
//                          V2.45-13(´ø»ØÂë2018-5-20)\Projects\GenericApp\CC2 /
//                          530DB\..\..\..\COMPONENTS\STACK\AF\" -I           /
//                          "C:\Users\win7\Desktop\ZStack´«¸ÐÆ÷Í¸Ã÷´«ÊäÔ´³ÌÐò /
//                          V2.45-13(´ø»ØÂë2018-5-20)\Projects\GenericApp\CC2 /
//                          530DB\..\..\..\COMPONENTS\STACK\NWK\" -I          /
//                          "C:\Users\win7\Desktop\ZStack´«¸ÐÆ÷Í¸Ã÷´«ÊäÔ´³ÌÐò /
//                          V2.45-13(´ø»ØÂë2018-5-20)\Projects\GenericApp\CC2 /
//                          530DB\..\..\..\COMPONENTS\STACK\SEC\" -I          /
//                          "C:\Users\win7\Desktop\ZStack´«¸ÐÆ÷Í¸Ã÷´«ÊäÔ´³ÌÐò /
//                          V2.45-13(´ø»ØÂë2018-5-20)\Projects\GenericApp\CC2 /
//                          530DB\..\..\..\COMPONENTS\STACK\SAPI\" -I         /
//                          "C:\Users\win7\Desktop\ZStack´«¸ÐÆ÷Í¸Ã÷´«ÊäÔ´³ÌÐò /
//                          V2.45-13(´ø»ØÂë2018-5-20)\Projects\GenericApp\CC2 /
//                          530DB\..\..\..\COMPONENTS\STACK\SYS\" -I          /
//                          "C:\Users\win7\Desktop\ZStack´«¸ÐÆ÷Í¸Ã÷´«ÊäÔ´³ÌÐò /
//                          V2.45-13(´ø»ØÂë2018-5-20)\Projects\GenericApp\CC2 /
//                          530DB\..\..\..\COMPONENTS\STACK\ZDO\" -I          /
//                          "C:\Users\win7\Desktop\ZStack´«¸ÐÆ÷Í¸Ã÷´«ÊäÔ´³ÌÐò /
//                          V2.45-13(´ø»ØÂë2018-5-20)\Projects\GenericApp\CC2 /
//                          530DB\..\..\..\COMPONENTS\ZMAC\F8W\" -I           /
//                          "C:\Users\win7\Desktop\ZStack´«¸ÐÆ÷Í¸Ã÷´«ÊäÔ´³ÌÐò /
//                          V2.45-13(´ø»ØÂë2018-5-20)\Projects\GenericApp\CC2 /
//                          530DB\..\..\..\COMPONENTS\ZMAC\" -I               /
//                          "C:\Users\win7\Desktop\ZStack´«¸ÐÆ÷Í¸Ã÷´«ÊäÔ´³ÌÐò /
//                          V2.45-13(´ø»ØÂë2018-5-20)\Projects\GenericApp\CC2 /
//                          530DB\..\..\..\COMPONENTS\SERVICES\SADDR\" -I     /
//                          "C:\Users\win7\Desktop\ZStack´«¸ÐÆ÷Í¸Ã÷´«ÊäÔ´³ÌÐò /
//                          V2.45-13(´ø»ØÂë2018-5-20)\Projects\GenericApp\CC2 /
//                          530DB\..\..\..\COMPONENTS\SERVICES\SDATA\" -I     /
//                          "C:\Users\win7\Desktop\ZStack´«¸ÐÆ÷Í¸Ã÷´«ÊäÔ´³ÌÐò /
//                          V2.45-13(´ø»ØÂë2018-5-20)\Projects\GenericApp\CC2 /
//                          530DB\..\..\..\COMPONENTS\MAC\INCLUDE\" -I        /
//                          "C:\Users\win7\Desktop\ZStack´«¸ÐÆ÷Í¸Ã÷´«ÊäÔ´³ÌÐò /
//                          V2.45-13(´ø»ØÂë2018-5-20)\Projects\GenericApp\CC2 /
//                          530DB\..\..\..\COMPONENTS\MAC\HIGH_LEVEL\" -I     /
//                          "C:\Users\win7\Desktop\ZStack´«¸ÐÆ÷Í¸Ã÷´«ÊäÔ´³ÌÐò /
//                          V2.45-13(´ø»ØÂë2018-5-20)\Projects\GenericApp\CC2 /
//                          530DB\..\..\..\COMPONENTS\MAC\LOW_LEVEL\srf04\"   /
//                          -I "C:\Users\win7\Desktop\ZStack´«¸ÐÆ÷Í¸Ã÷´«ÊäÔ´³ /
//                          ÌÐòV2.45-13(´ø»ØÂë2018-5-20)\Projects\GenericApp\ /
//                          CC2530DB\..\..\..\COMPONENTS\MAC\LOW_LEVEL\srf04\ /
//                          SINGLE_CHIP\" -I "C:\Program Files (x86)\IAR      /
//                          Systems\Embedded Workbench 5.4\8051\INC\" -I      /
//                          "C:\Program Files (x86)\IAR Systems\Embedded      /
//                          Workbench 5.4\8051\INC\CLIB\" -Ohz                /
//    List file          =  C:\Users\win7\Desktop\ZStack´«¸ÐÆ÷Í¸Ã÷´«ÊäÔ´³ÌÐòV /
//                          2.45-13(´ø»ØÂë2018-5-20)\Projects\GenericApp\CC25 /
//                          30DB\Coordinator\List\LCD.s51                     /
//                                                                            /
//                                                                            /
///////////////////////////////////////////////////////////////////////////////

        NAME LCD

        RTMODEL "__calling_convention", "xdata_reentrant"
        RTMODEL "__code_model", "banked"
        RTMODEL "__core", "plain"
        RTMODEL "__data_model", "large"
        RTMODEL "__dptr_size", "16"
        RTMODEL "__extended_stack", "disabled"
        RTMODEL "__location_for_constants", "data"
        RTMODEL "__number_of_dptrs", "1"
        RTMODEL "__rt_version", "1"

        RSEG DOVERLAY:DATA:NOROOT(0)
        RSEG IOVERLAY:IDATA:NOROOT(0)
        RSEG ISTACK:IDATA:NOROOT(0)
        RSEG PSTACK:XDATA:NOROOT(0)
        RSEG XSTACK:XDATA:NOROOT(0)

        EXTERN ?BANKED_ENTER_XDATA
        EXTERN ?BANKED_LEAVE_XDATA
        EXTERN ?BDISPATCH
        EXTERN ?BRET
        EXTERN ?V0

        PUBLIC ??LCD_SPILEDOUT?relay
        FUNCTION ??LCD_SPILEDOUT?relay,0203H
        PUBLIC ??LCD_SPILEDSendData?relay
        FUNCTION ??LCD_SPILEDSendData?relay,0203H
        PUBLIC ??LCD_SPILEDSendDatal?relay
        FUNCTION ??LCD_SPILEDSendDatal?relay,0203H
        PUBLIC ??SendData?relay
        FUNCTION ??SendData?relay,0203H
        PUBLIC ??SendDataS?relay
        FUNCTION ??SendDataS?relay,0203H
        PUBLIC LCD_SPILEDOUT
        FUNCTION LCD_SPILEDOUT,080203H
        ARGFRAME XSTACK, 14, STACK
        ARGFRAME IOVERLAY, 0, STATIC
        ARGFRAME DOVERLAY, 0, STATIC
        PUBLIC LCD_SPILEDSendData
        FUNCTION LCD_SPILEDSendData,080203H
        ARGFRAME XSTACK, 9, STACK
        ARGFRAME IOVERLAY, 0, STATIC
        ARGFRAME DOVERLAY, 0, STATIC
        PUBLIC LCD_SPILEDSendDatal
        FUNCTION LCD_SPILEDSendDatal,080203H
        ARGFRAME XSTACK, 14, STACK
        ARGFRAME IOVERLAY, 0, STATIC
        ARGFRAME DOVERLAY, 0, STATIC
        PUBLIC SendData
        FUNCTION SendData,021203H
        ARGFRAME XSTACK, 0, STACK
        LOCFRAME XSTACK, 9, STACK
        PUBLIC SendDataS
        FUNCTION SendDataS,021203H
        ARGFRAME XSTACK, 0, STACK
        LOCFRAME XSTACK, 14, STACK
        PUBWEAK _A_P1
        
        CFI Names cfiNames0
        CFI StackFrame CFA_SP SP IDATA
        CFI StackFrame CFA_PSP16 PSP16 XDATA
        CFI StackFrame CFA_XSP16 XSP16 XDATA
        CFI StaticOverlayFrame CFA_IOVERLAY IOVERLAY
        CFI StaticOverlayFrame CFA_DOVERLAY DOVERLAY
        CFI Resource `PSW.CY`:1, `B.BR0`:1, `B.BR1`:1, `B.BR2`:1, `B.BR3`:1
        CFI Resource `B.BR4`:1, `B.BR5`:1, `B.BR6`:1, `B.BR7`:1, `VB.BR8`:1
        CFI Resource `VB.BR9`:1, `VB.BR10`:1, `VB.BR11`:1, `VB.BR12`:1
        CFI Resource `VB.BR13`:1, `VB.BR14`:1, `VB.BR15`:1, VB:8, B:8, A:8
        CFI Resource PSW:8, DPL0:8, DPH0:8, R0:8, R1:8, R2:8, R3:8, R4:8, R5:8
        CFI Resource R6:8, R7:8, V0:8, V1:8, V2:8, V3:8, V4:8, V5:8, V6:8, V7:8
        CFI Resource V8:8, V9:8, V10:8, V11:8, V12:8, V13:8, V14:8, V15:8, SP:8
        CFI Resource PSPH:8, PSPL:8, PSP16:16, XSPH:8, XSPL:8, XSP16:16
        CFI VirtualResource ?RET:24
        CFI Resource ?BRET_EXT:8
        CFI VirtualResource ?RET_HIGH:8, ?RET_LOW:8
        CFI ResourceParts PSP16 PSPH, PSPL
        CFI ResourceParts XSP16 XSPH, XSPL
        CFI ResourceParts ?RET ?BRET_EXT, ?RET_HIGH, ?RET_LOW
        CFI EndNames cfiNames0
        
        CFI Common cfiCommon0 Using cfiNames0
        CFI CodeAlign 1
        CFI DataAlign -1
        CFI ReturnAddress ?RET CODE
        CFI CFA_DOVERLAY Used
        CFI CFA_IOVERLAY Used
        CFI CFA_SP SP+-3
        CFI CFA_PSP16 PSP16+0
        CFI CFA_XSP16 XSP16+0
        CFI `PSW.CY` SameValue
        CFI `B.BR0` SameValue
        CFI `B.BR1` SameValue
        CFI `B.BR2` SameValue
        CFI `B.BR3` SameValue
        CFI `B.BR4` SameValue
        CFI `B.BR5` SameValue
        CFI `B.BR6` SameValue
        CFI `B.BR7` SameValue
        CFI `VB.BR8` SameValue
        CFI `VB.BR9` SameValue
        CFI `VB.BR10` SameValue
        CFI `VB.BR11` SameValue
        CFI `VB.BR12` SameValue
        CFI `VB.BR13` SameValue
        CFI `VB.BR14` SameValue
        CFI `VB.BR15` SameValue
        CFI VB SameValue
        CFI B Undefined
        CFI A Undefined
        CFI PSW SameValue
        CFI DPL0 SameValue
        CFI DPH0 SameValue
        CFI R0 Undefined
        CFI R1 Undefined
        CFI R2 Undefined
        CFI R3 Undefined
        CFI R4 Undefined
        CFI R5 Undefined
        CFI R6 SameValue
        CFI R7 SameValue
        CFI V0 SameValue
        CFI V1 SameValue
        CFI V2 SameValue
        CFI V3 SameValue
        CFI V4 SameValue
        CFI V5 SameValue
        CFI V6 SameValue
        CFI V7 SameValue
        CFI V8 SameValue
        CFI V9 SameValue
        CFI V10 SameValue
        CFI V11 SameValue
        CFI V12 SameValue
        CFI V13 SameValue
        CFI V14 SameValue
        CFI V15 SameValue
        CFI PSPH Undefined
        CFI PSPL Undefined
        CFI XSPH Undefined
        CFI XSPL Undefined
        CFI ?RET Concat
        CFI ?BRET_EXT Frame(CFA_SP, 3)
        CFI ?RET_HIGH Frame(CFA_SP, 2)
        CFI ?RET_LOW Frame(CFA_SP, 1)
        CFI EndCommon cfiCommon0
        
LCD_SPILEDOUT       SYMBOL "LCD_SPILEDOUT"
??LCD_SPILEDOUT?relay SYMBOL "?relay", LCD_SPILEDOUT
LCD_SPILEDSendData  SYMBOL "LCD_SPILEDSendData"
??LCD_SPILEDSendData?relay SYMBOL "?relay", LCD_SPILEDSendData
LCD_SPILEDSendDatal SYMBOL "LCD_SPILEDSendDatal"
??LCD_SPILEDSendDatal?relay SYMBOL "?relay", LCD_SPILEDSendDatal
SendData            SYMBOL "SendData"
??SendData?relay    SYMBOL "?relay", SendData
SendDataS           SYMBOL "SendDataS"
??SendDataS?relay   SYMBOL "?relay", SendDataS

// C:\Users\win7\Desktop\ZStack´«¸ÐÆ÷Í¸Ã÷´«ÊäÔ´³ÌÐòV2.45-13(´ø»ØÂë2018-5-20)\Projects\GenericApp\Source\LCD.c
//    1 /*******************************************************************************
//    2  * ÎÄ¼þÃû³Æ£ºLCD.c
//    3  * ¹¦    ÄÜ£ºÊýÂë¹ÜÇý¶¯
//    4  *           
//    5  * Ó²¼þÁ¬½Ó£ºÊýÂë¹ÜÓëCC2530µÄÓ²¼þÁ¬½Ó¹ØÏµÈçÏÂ£º
//    6  *             
//    7  *
//    8  *               SPI-data ´®ÐÐÊý¾Ý             P1.6
//    9  *               SPI-CLK  ÒÆÎ»¼Ä´æÆ÷Ê±ÖÓÊäÈë   P1.5
//   10  *               GPH      ´æ´¢¼Ä´æÆ÷Ê±ÖÓÊäÈë   P1.3
//   11  * ×÷    Õß£ºw
//   12  * ¹«    Ë¾£ºÎÞÎý·ºÌ«¿Æ¼¼ÓÐÏÞ¹«Ë¾
//   13  ******************************************************************************/
//   14 
//   15 /* °üº¬Í·ÎÄ¼þ */
//   16 /********************************************************************/
//   17 #include "ioCC2530.h"

        ASEGN SFR_AN:DATA:NOROOT,090H
// union <unnamed> volatile __sfr _A_P1
_A_P1:
        DS 1
//   18 #include "LCD.h"
//   19 /*****************************************************************/
//   20 
//   21 /*********************************************************************
//   22  * º¯ÊýÃû³Æ£ºLCD_SPILEDSendData
//   23  * ¹¦    ÄÜ£ºÍ¨¹ý´®ÐÐSPI¿ÚÊäËÍÒ»¸öbyteµÄÊý¾ÝÖÃÄ£×é
//   24  * Èë¿Ú²ÎÊý£ºData  Òª´«ËÍµÄÊý¾Ý
//   25  * ³ö¿Ú²ÎÊý£ºtemp
//   26  * ·µ »Ø Öµ£ºSPI½Óµ½Êý¾Ý
//   27  ********************************************************************/

        RSEG BANKED_CODE:CODE:NOROOT(0)
//   28 void LCD_SPILEDSendData(unsigned char Data)
LCD_SPILEDSendData:
        CFI Block cfiBlock0 Using cfiCommon0
        CFI Function LCD_SPILEDSendData
//   29 {
        ; Saved register size: 0
        ; Auto size: 0
//   30   unsigned char  i;
//   31   for(i=0;i<8;i++)
        MOV     R2,#0x8
//   32   { L_SPILEDCLK();
??LCD_SPILEDSendData_0:
        CLR     0x90.5
//   33     SPILEDdata=((Data&0x80)>>7);
        MOV     A,R1
        MOV     C,0xE0 /* A   */.7
        MOV     0x90.6,C
//   34     NOP();
        nop
        nop
        nop
        nop
        nop
//   35     H_SPILEDCLK();
        SETB    0x90.5
//   36     Data<<=1;
        CLR     C
        RLC     A
        MOV     R1,A
//   37   }
        DEC     R2
        MOV     A,R2
        JNZ     ??LCD_SPILEDSendData_0
//   38 }
        LJMP    ?BRET
        CFI EndBlock cfiBlock0
        REQUIRE _A_P1
//   39 /*********************************************************************
//   40  * º¯ÊýÃû³Æ£ºLCD_SPILEDSendDatal
//   41  * ¹¦    ÄÜ£ºÍ¨¹ý´®ÐÐSPI¿ÚÊäËÍÒ»¸öbyteµÄÊý¾ÝÖÃÄ£×é
//   42  * Èë¿Ú²ÎÊý£ºData  Òª´«ËÍµÄÊý¾Ý
//   43  * ³ö¿Ú²ÎÊý£ºtemp
//   44  * ·µ »Ø Öµ£ºSPI½Óµ½Êý¾Ý
//   45  ********************************************************************/

        RSEG BANKED_CODE:CODE:NOROOT(0)
//   46 void LCD_SPILEDSendDatal(unsigned char Data)
LCD_SPILEDSendDatal:
        CFI Block cfiBlock1 Using cfiCommon0
        CFI Function LCD_SPILEDSendDatal
//   47 {
        ; Saved register size: 0
        ; Auto size: 0
//   48   unsigned char  i;
//   49   for(i=0;i<8;i++)
        MOV     R2,#0x8
//   50   { L_SPILEDCLK();
??LCD_SPILEDSendDatal_0:
        CLR     0x90.5
//   51     SPILEDdata=(Data&0x01);
        MOV     A,R1
        MOV     C,0xE0 /* A   */.0
        MOV     0x90.6,C
//   52     NOP();
        nop
        nop
        nop
        nop
        nop
//   53     H_SPILEDCLK();
        SETB    0x90.5
//   54     Data>>=1;
        CLR     C
        RRC     A
        MOV     R1,A
//   55   }
        DEC     R2
        MOV     A,R2
        JNZ     ??LCD_SPILEDSendDatal_0
//   56 }
        LJMP    ?BRET
        CFI EndBlock cfiBlock1
        REQUIRE _A_P1
//   57 /*********************************************************************
//   58  * º¯ÊýÃû³Æ£ºLCD_SPILEDOUT
//   59  * ¹¦    ÄÜ£º595Êý¾ÝÊä³ö
//   60  * Èë¿Ú²ÎÊý£º
//   61  * ³ö¿Ú²ÎÊý£º
//   62  * ·µ »Ø Öµ£º
//   63  ********************************************************************/

        RSEG BANKED_CODE:CODE:NOROOT(0)
//   64 void LCD_SPILEDOUT(void)
LCD_SPILEDOUT:
        CFI Block cfiBlock2 Using cfiCommon0
        CFI Function LCD_SPILEDOUT
//   65 {
        ; Saved register size: 0
        ; Auto size: 0
//   66     L_GPH();
        CLR     0x90.3
//   67     NOP();
        nop
        nop
        nop
        nop
        nop
//   68     H_GPH();
        SETB    0x90.3
//   69 
//   70 }
        LJMP    ?BRET
        CFI EndBlock cfiBlock2
        REQUIRE _A_P1
//   71 /*********************************************************************
//   72  * º¯ÊýÃû³Æ£ºLCD_SPILEDOUT
//   73  * ¹¦    ÄÜ£º595Êý¾ÝÊä³ö
//   74  * Èë¿Ú²ÎÊý£º
//   75  * ³ö¿Ú²ÎÊý£º
//   76  * ·µ »Ø Öµ£º
//   77  ********************************************************************/

        RSEG BANKED_CODE:CODE:NOROOT(0)
//   78 void SendData(unsigned char Data)
SendData:
        CFI Block cfiBlock3 Using cfiCommon0
        CFI Function SendData
//   79 {
        FUNCALL SendData, LCD_SPILEDSendData
        LOCFRAME ISTACK, 0, STACK
        LOCFRAME PSTACK, 0, STACK
        LOCFRAME XSTACK, 9, STACK
        LOCFRAME IOVERLAY, 0, STATIC
        LOCFRAME DOVERLAY, 0, STATIC
        ARGFRAME ISTACK, 0, STACK
        ARGFRAME PSTACK, 0, STACK
        ARGFRAME XSTACK, 9, STACK
        ARGFRAME IOVERLAY, 0, STATIC
        ARGFRAME DOVERLAY, 0, STATIC
        FUNCALL SendData, LCD_SPILEDOUT
        LOCFRAME ISTACK, 0, STACK
        LOCFRAME PSTACK, 0, STACK
        LOCFRAME XSTACK, 9, STACK
        LOCFRAME IOVERLAY, 0, STATIC
        LOCFRAME DOVERLAY, 0, STATIC
        ARGFRAME ISTACK, 0, STACK
        ARGFRAME PSTACK, 0, STACK
        ARGFRAME XSTACK, 9, STACK
        ARGFRAME IOVERLAY, 0, STATIC
        ARGFRAME DOVERLAY, 0, STATIC
        MOV     A,#-0x9
        LCALL   ?BANKED_ENTER_XDATA
        CFI DPH0 load(1, XDATA, add(CFA_XSP16, literal(-1)))
        CFI DPL0 load(1, XDATA, add(CFA_XSP16, literal(-2)))
        CFI ?BRET_EXT load(1, XDATA, add(CFA_XSP16, literal(-3)))
        CFI ?RET_HIGH load(1, XDATA, add(CFA_XSP16, literal(-4)))
        CFI ?RET_LOW load(1, XDATA, add(CFA_XSP16, literal(-5)))
        CFI R7 load(1, XDATA, add(CFA_XSP16, literal(-6)))
        CFI V0 load(1, XDATA, add(CFA_XSP16, literal(-7)))
        CFI VB load(1, XDATA, add(CFA_XSP16, literal(-8)))
        CFI R6 load(1, XDATA, add(CFA_XSP16, literal(-9)))
        CFI CFA_SP SP+0
        CFI CFA_XSP16 add(XSP16, 9)
        ; Saved register size: 9
        ; Auto size: 0
//   80   LCD_SPILEDSendData(Data);
        ; Setup parameters for call to function LCD_SPILEDSendData
        LCALL   ??LCD_SPILEDSendData?relay
//   81   LCD_SPILEDOUT();
        ; Setup parameters for call to function LCD_SPILEDOUT
        LCALL   ??LCD_SPILEDOUT?relay
//   82 }
        MOV     R7,#0x1
        LJMP    ?BANKED_LEAVE_XDATA
        CFI EndBlock cfiBlock3
//   83 /*********************************************************************
//   84  * º¯ÊýÃû³Æ£ºSendDataS
//   85  * ¹¦    ÄÜ£º595Êý¾ÝÊä³ö
//   86  * Èë¿Ú²ÎÊý£º
//   87  * ³ö¿Ú²ÎÊý£º
//   88  * ·µ »Ø Öµ£º
//   89  ********************************************************************/

        RSEG BANKED_CODE:CODE:NOROOT(0)
//   90 void SendDataS(unsigned char * Data,unsigned char len)
SendDataS:
        CFI Block cfiBlock4 Using cfiCommon0
        CFI Function SendDataS
//   91 {char i;
        FUNCALL SendDataS, LCD_SPILEDSendDatal
        LOCFRAME ISTACK, 0, STACK
        LOCFRAME PSTACK, 0, STACK
        LOCFRAME XSTACK, 14, STACK
        LOCFRAME IOVERLAY, 0, STATIC
        LOCFRAME DOVERLAY, 0, STATIC
        ARGFRAME ISTACK, 0, STACK
        ARGFRAME PSTACK, 0, STACK
        ARGFRAME XSTACK, 14, STACK
        ARGFRAME IOVERLAY, 0, STATIC
        ARGFRAME DOVERLAY, 0, STATIC
        FUNCALL SendDataS, LCD_SPILEDOUT
        LOCFRAME ISTACK, 0, STACK
        LOCFRAME PSTACK, 0, STACK
        LOCFRAME XSTACK, 14, STACK
        LOCFRAME IOVERLAY, 0, STATIC
        LOCFRAME DOVERLAY, 0, STATIC
        ARGFRAME ISTACK, 0, STACK
        ARGFRAME PSTACK, 0, STACK
        ARGFRAME XSTACK, 14, STACK
        ARGFRAME IOVERLAY, 0, STATIC
        ARGFRAME DOVERLAY, 0, STATIC
        MOV     A,#-0xe
        LCALL   ?BANKED_ENTER_XDATA
        CFI DPH0 load(1, XDATA, add(CFA_XSP16, literal(-1)))
        CFI DPL0 load(1, XDATA, add(CFA_XSP16, literal(-2)))
        CFI ?BRET_EXT load(1, XDATA, add(CFA_XSP16, literal(-3)))
        CFI ?RET_HIGH load(1, XDATA, add(CFA_XSP16, literal(-4)))
        CFI ?RET_LOW load(1, XDATA, add(CFA_XSP16, literal(-5)))
        CFI R7 load(1, XDATA, add(CFA_XSP16, literal(-6)))
        CFI V5 load(1, XDATA, add(CFA_XSP16, literal(-7)))
        CFI V4 load(1, XDATA, add(CFA_XSP16, literal(-8)))
        CFI V3 load(1, XDATA, add(CFA_XSP16, literal(-9)))
        CFI V2 load(1, XDATA, add(CFA_XSP16, literal(-10)))
        CFI V1 load(1, XDATA, add(CFA_XSP16, literal(-11)))
        CFI V0 load(1, XDATA, add(CFA_XSP16, literal(-12)))
        CFI VB load(1, XDATA, add(CFA_XSP16, literal(-13)))
        CFI R6 load(1, XDATA, add(CFA_XSP16, literal(-14)))
        CFI CFA_SP SP+0
        CFI CFA_XSP16 add(XSP16, 14)
        ; Saved register size: 14
        ; Auto size: 0
        MOV     A,R2
        MOV     R6,A
        MOV     A,R3
        MOV     R7,A
        MOV     ?V0 + 5,R1
//   92   for(i=0;i<len;i++)
        MOV     ?V0 + 4,#0x0
        SJMP    ??SendDataS_0
//   93   LCD_SPILEDSendDatal(Data[len-i-1]);
??SendDataS_1:
        ; Setup parameters for call to function LCD_SPILEDSendDatal
        MOV     ?V0 + 2,?V0 + 5
        MOV     ?V0 + 0,?V0 + 4
        MOV     A,?V0 + 2
        CLR     C
        SUBB    A,?V0 + 0
        MOV     R0,A
        CLR     A
        SUBB    A,#0x0
        MOV     R1,A
        MOV     A,R6
        ADD     A,R0
        MOV     R0,A
        MOV     A,R7
        ADDC    A,R1
        MOV     R1,A
        MOV     A,#-0x1
        ADD     A,R0
        MOV     DPL,A
        MOV     A,#-0x1
        ADDC    A,R1
        MOV     DPH,A
        MOVX    A,@DPTR
        MOV     R1,A
        LCALL   ??LCD_SPILEDSendDatal?relay
        INC     ?V0 + 4
??SendDataS_0:
        MOV     A,?V0 + 4
        CLR     C
        SUBB    A,?V0 + 5
        JC      ??SendDataS_1
//   94   LCD_SPILEDOUT();
        ; Setup parameters for call to function LCD_SPILEDOUT
        LCALL   ??LCD_SPILEDOUT?relay
//   95 }
        MOV     R7,#0x6
        LJMP    ?BANKED_LEAVE_XDATA
        CFI EndBlock cfiBlock4

        RSEG BANK_RELAYS:CODE:REORDER:NOROOT(0)
??LCD_SPILEDSendData?relay:
        LCALL   ?BDISPATCH
        DATA
        DC24    LCD_SPILEDSendData

        RSEG BANK_RELAYS:CODE:REORDER:NOROOT(0)
??LCD_SPILEDSendDatal?relay:
        LCALL   ?BDISPATCH
        DATA
        DC24    LCD_SPILEDSendDatal

        RSEG BANK_RELAYS:CODE:REORDER:NOROOT(0)
??LCD_SPILEDOUT?relay:
        LCALL   ?BDISPATCH
        DATA
        DC24    LCD_SPILEDOUT

        RSEG BANK_RELAYS:CODE:REORDER:NOROOT(0)
??SendData?relay:
        LCALL   ?BDISPATCH
        DATA
        DC24    SendData

        RSEG BANK_RELAYS:CODE:REORDER:NOROOT(0)
??SendDataS?relay:
        LCALL   ?BDISPATCH
        DATA
        DC24    SendDataS

        END
// 
// 150 bytes in segment BANKED_CODE
//  30 bytes in segment BANK_RELAYS
//   1 byte  in segment SFR_AN
// 
// 180 bytes of CODE memory
//   0 bytes of DATA memory (+ 1 byte shared)
//
//Errors: none
//Warnings: none
