///////////////////////////////////////////////////////////////////////////////
//                                                                            /
// IAR C/C++ Compiler V7.60.1.40026 for 8051            08/Jun/2018  08:41:50 /
// Copyright (C) 2004-2010 IAR Systems AB.                                    /
//                                                                            /
//    Core               =  plain                                             /
//    Code model         =  banked                                            /
//    Data model         =  large                                             /
//    Calling convention =  xdata reentrant                                   /
//    Constant location  =  data_rom                                          /
//    Dptr setup         =  1,16                                              /
//    Source file        =  C:\Users\win7\Desktop\ZStack´«¸ÐÆ÷Í¸Ã÷´«ÊäÔ´³ÌÐòV /
//                          2.45-13(´ø»ØÂë2018-5-20)\Components\mt\MT_AF.c    /
//    Command line       =  -f "C:\Users\win7\Desktop\ZStack´«¸ÐÆ÷Í¸Ã÷´«ÊäÔ´³ /
//                          ÌÐòV2.45-13(´ø»ØÂë2018-5-20)\Projects\GenericApp\ /
//                          CC2530DB\..\..\..\COMPONENTS\Tools\CC2530DB\f8wCo /
//                          ord.cfg" (-DCPU32MHZ -DROOT=__near_func           /
//                          -DMAC_CFG_APP_PENDING_QUEUE=TRUE                  /
//                          -DMAC_CFG_TX_DATA_MAX=5 -DMAC_CFG_TX_MAX=8        /
//                          -DMAC_CFG_RX_MAX=5 -DRTR_NWK) -f                  /
//                          "C:\Users\win7\Desktop\ZStack´«¸ÐÆ÷Í¸Ã÷´«ÊäÔ´³ÌÐò /
//                          V2.45-13(´ø»ØÂë2018-5-20)\Projects\GenericApp\CC2 /
//                          530DB\..\..\..\COMPONENTS\Tools\CC2530DB\f8wConfi /
//                          g.cfg" (-DSECURE=0 -DZG_SECURE_DYNAMIC=0          /
//                          -DREFLECTOR -DNWK_START_DELAY=1000                /
//                          -DEXTENDED_JOINING_RANDOM_MASK=0x007F             /
//                          -DBEACON_REQUEST_DELAY=1000                       /
//                          -DBEACON_REQ_DELAY_MASK=0x00FF                    /
//                          -DLINK_STATUS_JITTER_MASK=0x007F                  /
//                          -DROUTE_EXPIRY_TIME=30 -DAPSC_ACK_WAIT_DURATION_P /
//                          OLLED=3000 -DNWK_INDIRECT_MSG_TIMEOUT=7           /
//                          -DMAX_RREQ_ENTRIES=8 -DAPSC_MAX_FRAME_RETRIES=3   /
//                          -DNWK_MAX_DATA_RETRIES=2                          /
//                          -DMAX_POLL_FAILURE_RETRIES=2 -DMAX_BCAST=9        /
//                          -DAPS_MAX_GROUPS=16 -DMAX_RTG_ENTRIES=40          /
//                          -DNWK_MAX_BINDING_ENTRIES=4                       /
//                          -DMAX_BINDING_CLUSTER_IDS=4                       /
//                          "-DDEFAULT_KEY={0x01, 0x03, 0x05, 0x07, 0x09,     /
//                          0x0B, 0x0D, 0x0F, 0x00, 0x02, 0x04, 0x06, 0x08,   /
//                          0x0A, 0x0C, 0x0D}" -DMAC_MAX_FRAME_SIZE=116       /
//                          -DZDNWKMGR_MIN_TRANSMISSIONS=20 "-DCONST=const    /
//                          __code" -DGENERIC=__generic                       /
//                          -DRFD_RCVC_ALWAYS_ON=FALSE -DPOLL_RATE=1000       /
//                          -DQUEUED_POLL_RATE=100 -DRESPONSE_POLL_RATE=100)  /
//                          -DREJOIN_POLL_RATE=440 "C:\Users\win7\Desktop\ZSt /
//                          ack´«¸ÐÆ÷Í¸Ã÷´«ÊäÔ´³ÌÐòV2.45-13(´ø»ØÂë2018-5-20)\ /
//                          Components\mt\MT_AF.c" -D ZTOOL_P1 -D MT_TASK -D  /
//                          MT_SYS_FUNC -D MT_ZDO_FUNC -D HAL_PA_LNA -D       /
//                          SERIAL_SUPPORTED=DEBUG -D SENSOR_TYPE_Coord -D    /
//                          CHANLIST_C_R_E=25 -D ZDAPP_CONFIG_PAN_ID=0x0004   /
//                          -D FT_PAN_ID_C_R_C -D ZigBee_C_R_E_Engineering    /
//                          -D ZDO_COORDINATOR=0 -D xNV_RESTORE -lC           /
//                          "C:\Users\win7\Desktop\ZStack´«¸ÐÆ÷Í¸Ã÷´«ÊäÔ´³ÌÐò /
//                          V2.45-13(´ø»ØÂë2018-5-20)\Projects\GenericApp\CC2 /
//                          530DB\Coordinator\List\" -lA                      /
//                          "C:\Users\win7\Desktop\ZStack´«¸ÐÆ÷Í¸Ã÷´«ÊäÔ´³ÌÐò /
//                          V2.45-13(´ø»ØÂë2018-5-20)\Projects\GenericApp\CC2 /
//                          530DB\Coordinator\List\" --diag_suppress          /
//                          Pe001,Pa010 -o "C:\Users\win7\Desktop\ZStack´«¸ÐÆ /
//                          ÷Í¸Ã÷´«ÊäÔ´³ÌÐòV2.45-13(´ø»ØÂë2018-5-20)\Projects /
//                          \GenericApp\CC2530DB\Coordinator\Obj\" -e         /
//                          --require_prototypes --debug --core=plain         /
//                          --dptr=16,1 --data_model=large                    /
//                          --code_model=banked --calling_convention=xdata_re /
//                          entrant --place_constants=data_rom                /
//                          --nr_virtual_regs 16 -I                           /
//                          "C:\Users\win7\Desktop\ZStack´«¸ÐÆ÷Í¸Ã÷´«ÊäÔ´³ÌÐò /
//                          V2.45-13(´ø»ØÂë2018-5-20)\Projects\GenericApp\CC2 /
//                          530DB\" -I "C:\Users\win7\Desktop\ZStack´«¸ÐÆ÷Í¸Ã /
//                          ÷´«ÊäÔ´³ÌÐòV2.45-13(´ø»ØÂë2018-5-20)\Projects\Gen /
//                          ericApp\CC2530DB\..\SOURCE\" -I                   /
//                          "C:\Users\win7\Desktop\ZStack´«¸ÐÆ÷Í¸Ã÷´«ÊäÔ´³ÌÐò /
//                          V2.45-13(´ø»ØÂë2018-5-20)\Projects\GenericApp\CC2 /
//                          530DB\..\..\..\COMPONENTS\ZMAIN\TI2530DB\" -I     /
//                          "C:\Users\win7\Desktop\ZStack´«¸ÐÆ÷Í¸Ã÷´«ÊäÔ´³ÌÐò /
//                          V2.45-13(´ø»ØÂë2018-5-20)\Projects\GenericApp\CC2 /
//                          530DB\..\..\..\COMPONENTS\MT\" -I                 /
//                          "C:\Users\win7\Desktop\ZStack´«¸ÐÆ÷Í¸Ã÷´«ÊäÔ´³ÌÐò /
//                          V2.45-13(´ø»ØÂë2018-5-20)\Projects\GenericApp\CC2 /
//                          530DB\..\..\..\COMPONENTS\HAL\INCLUDE\" -I        /
//                          "C:\Users\win7\Desktop\ZStack´«¸ÐÆ÷Í¸Ã÷´«ÊäÔ´³ÌÐò /
//                          V2.45-13(´ø»ØÂë2018-5-20)\Projects\GenericApp\CC2 /
//                          530DB\..\..\..\COMPONENTS\HAL\TARGET\CC2530EB\"   /
//                          -I "C:\Users\win7\Desktop\ZStack´«¸ÐÆ÷Í¸Ã÷´«ÊäÔ´³ /
//                          ÌÐòV2.45-13(´ø»ØÂë2018-5-20)\Projects\GenericApp\ /
//                          CC2530DB\..\..\..\COMPONENTS\OSAL\MCU\CCSOC\" -I  /
//                          "C:\Users\win7\Desktop\ZStack´«¸ÐÆ÷Í¸Ã÷´«ÊäÔ´³ÌÐò /
//                          V2.45-13(´ø»ØÂë2018-5-20)\Projects\GenericApp\CC2 /
//                          530DB\..\..\..\COMPONENTS\OSAL\INCLUDE\" -I       /
//                          "C:\Users\win7\Desktop\ZStack´«¸ÐÆ÷Í¸Ã÷´«ÊäÔ´³ÌÐò /
//                          V2.45-13(´ø»ØÂë2018-5-20)\Projects\GenericApp\CC2 /
//                          530DB\..\..\..\COMPONENTS\STACK\AF\" -I           /
//                          "C:\Users\win7\Desktop\ZStack´«¸ÐÆ÷Í¸Ã÷´«ÊäÔ´³ÌÐò /
//                          V2.45-13(´ø»ØÂë2018-5-20)\Projects\GenericApp\CC2 /
//                          530DB\..\..\..\COMPONENTS\STACK\NWK\" -I          /
//                          "C:\Users\win7\Desktop\ZStack´«¸ÐÆ÷Í¸Ã÷´«ÊäÔ´³ÌÐò /
//                          V2.45-13(´ø»ØÂë2018-5-20)\Projects\GenericApp\CC2 /
//                          530DB\..\..\..\COMPONENTS\STACK\SEC\" -I          /
//                          "C:\Users\win7\Desktop\ZStack´«¸ÐÆ÷Í¸Ã÷´«ÊäÔ´³ÌÐò /
//                          V2.45-13(´ø»ØÂë2018-5-20)\Projects\GenericApp\CC2 /
//                          530DB\..\..\..\COMPONENTS\STACK\SAPI\" -I         /
//                          "C:\Users\win7\Desktop\ZStack´«¸ÐÆ÷Í¸Ã÷´«ÊäÔ´³ÌÐò /
//                          V2.45-13(´ø»ØÂë2018-5-20)\Projects\GenericApp\CC2 /
//                          530DB\..\..\..\COMPONENTS\STACK\SYS\" -I          /
//                          "C:\Users\win7\Desktop\ZStack´«¸ÐÆ÷Í¸Ã÷´«ÊäÔ´³ÌÐò /
//                          V2.45-13(´ø»ØÂë2018-5-20)\Projects\GenericApp\CC2 /
//                          530DB\..\..\..\COMPONENTS\STACK\ZDO\" -I          /
//                          "C:\Users\win7\Desktop\ZStack´«¸ÐÆ÷Í¸Ã÷´«ÊäÔ´³ÌÐò /
//                          V2.45-13(´ø»ØÂë2018-5-20)\Projects\GenericApp\CC2 /
//                          530DB\..\..\..\COMPONENTS\ZMAC\F8W\" -I           /
//                          "C:\Users\win7\Desktop\ZStack´«¸ÐÆ÷Í¸Ã÷´«ÊäÔ´³ÌÐò /
//                          V2.45-13(´ø»ØÂë2018-5-20)\Projects\GenericApp\CC2 /
//                          530DB\..\..\..\COMPONENTS\ZMAC\" -I               /
//                          "C:\Users\win7\Desktop\ZStack´«¸ÐÆ÷Í¸Ã÷´«ÊäÔ´³ÌÐò /
//                          V2.45-13(´ø»ØÂë2018-5-20)\Projects\GenericApp\CC2 /
//                          530DB\..\..\..\COMPONENTS\SERVICES\SADDR\" -I     /
//                          "C:\Users\win7\Desktop\ZStack´«¸ÐÆ÷Í¸Ã÷´«ÊäÔ´³ÌÐò /
//                          V2.45-13(´ø»ØÂë2018-5-20)\Projects\GenericApp\CC2 /
//                          530DB\..\..\..\COMPONENTS\SERVICES\SDATA\" -I     /
//                          "C:\Users\win7\Desktop\ZStack´«¸ÐÆ÷Í¸Ã÷´«ÊäÔ´³ÌÐò /
//                          V2.45-13(´ø»ØÂë2018-5-20)\Projects\GenericApp\CC2 /
//                          530DB\..\..\..\COMPONENTS\MAC\INCLUDE\" -I        /
//                          "C:\Users\win7\Desktop\ZStack´«¸ÐÆ÷Í¸Ã÷´«ÊäÔ´³ÌÐò /
//                          V2.45-13(´ø»ØÂë2018-5-20)\Projects\GenericApp\CC2 /
//                          530DB\..\..\..\COMPONENTS\MAC\HIGH_LEVEL\" -I     /
//                          "C:\Users\win7\Desktop\ZStack´«¸ÐÆ÷Í¸Ã÷´«ÊäÔ´³ÌÐò /
//                          V2.45-13(´ø»ØÂë2018-5-20)\Projects\GenericApp\CC2 /
//                          530DB\..\..\..\COMPONENTS\MAC\LOW_LEVEL\srf04\"   /
//                          -I "C:\Users\win7\Desktop\ZStack´«¸ÐÆ÷Í¸Ã÷´«ÊäÔ´³ /
//                          ÌÐòV2.45-13(´ø»ØÂë2018-5-20)\Projects\GenericApp\ /
//                          CC2530DB\..\..\..\COMPONENTS\MAC\LOW_LEVEL\srf04\ /
//                          SINGLE_CHIP\" -I "C:\Program Files (x86)\IAR      /
//                          Systems\Embedded Workbench 5.4\8051\INC\" -I      /
//                          "C:\Program Files (x86)\IAR Systems\Embedded      /
//                          Workbench 5.4\8051\INC\CLIB\" -Ohz                /
//    List file          =  C:\Users\win7\Desktop\ZStack´«¸ÐÆ÷Í¸Ã÷´«ÊäÔ´³ÌÐòV /
//                          2.45-13(´ø»ØÂë2018-5-20)\Projects\GenericApp\CC25 /
//                          30DB\Coordinator\List\MT_AF.s51                   /
//                                                                            /
//                                                                            /
///////////////////////////////////////////////////////////////////////////////

        NAME MT_AF

        RTMODEL "__calling_convention", "xdata_reentrant"
        RTMODEL "__code_model", "banked"
        RTMODEL "__core", "plain"
        RTMODEL "__data_model", "large"
        RTMODEL "__dptr_size", "16"
        RTMODEL "__extended_stack", "disabled"
        RTMODEL "__location_for_constants", "data"
        RTMODEL "__number_of_dptrs", "1"
        RTMODEL "__rt_version", "1"

        RSEG DOVERLAY:DATA:NOROOT(0)
        RSEG IOVERLAY:IDATA:NOROOT(0)
        RSEG ISTACK:IDATA:NOROOT(0)
        RSEG PSTACK:XDATA:NOROOT(0)
        RSEG XSTACK:XDATA:NOROOT(0)

        EXTERN ?ALLOC_XSTACK8
        EXTERN ?BANKED_ENTER_XDATA
        EXTERN ?BANKED_LEAVE_XDATA
        EXTERN ?BDISPATCH
        EXTERN ?BRET
        EXTERN ?DEALLOC_XSTACK8
        EXTERN ?L_ADD
        EXTERN ?L_EQ_X
        EXTERN ?L_MOV_X
        EXTERN ?L_SHL
        EXTERN ?PUSH_XSTACK8_X_TWO
        EXTERN ?PUSH_XSTACK_I_ONE
        EXTERN ?PUSH_XSTACK_I_THREE
        EXTERN ?PUSH_XSTACK_I_TWO
        EXTERN ?UC_SWITCH_SPARSE
        EXTERN ?UL_SHR
        EXTERN ?V0
        EXTERN ?XSP
        EXTERN ?XSTACK_DISP0_8
        EXTERN __INIT_XDATA_Z

        PUBLIC ??MT_AfCommandProcessing?relay
        FUNCTION ??MT_AfCommandProcessing?relay,0203H
        PUBLIC ??MT_AfDataConfirm?relay
        FUNCTION ??MT_AfDataConfirm?relay,0203H
        PUBLIC ??MT_AfDataRequest?relay
        FUNCTION ??MT_AfDataRequest?relay,0203H
        FUNCTION ??MT_AfDataRetrieve?relay,0203H
        FUNCTION ??MT_AfDataStore?relay,0203H
        PUBLIC ??MT_AfExec?relay
        FUNCTION ??MT_AfExec?relay,0203H
        PUBLIC ??MT_AfIncomingMsg?relay
        FUNCTION ??MT_AfIncomingMsg?relay,0203H
        PUBLIC ??MT_AfRegister?relay
        FUNCTION ??MT_AfRegister?relay,0203H
        PUBLIC MT_AfCommandProcessing
        FUNCTION MT_AfCommandProcessing,0a1203H
        ARGFRAME XSTACK, 0, STACK
        LOCFRAME XSTACK, 9, STACK
        PUBLIC MT_AfDataConfirm
        FUNCTION MT_AfDataConfirm,021203H
        ARGFRAME XSTACK, 0, STACK
        LOCFRAME ISTACK, 3, STACK
        LOCFRAME XSTACK, 3, STACK
        PUBLIC MT_AfDataRequest
        FUNCTION MT_AfDataRequest,021203H
        ARGFRAME XSTACK, 9, STACK
        ARGFRAME IOVERLAY, 0, STATIC
        ARGFRAME DOVERLAY, 0, STATIC
        LOCFRAME ISTACK, 1, STACK
        LOCFRAME XSTACK, 44, STACK
        FUNCTION MT_AfDataRetrieve,021203H
        ARGFRAME XSTACK, 9, STACK
        ARGFRAME IOVERLAY, 0, STATIC
        ARGFRAME DOVERLAY, 0, STATIC
        LOCFRAME ISTACK, 1, STACK
        LOCFRAME XSTACK, 23, STACK
        FUNCTION MT_AfDataStore,021203H
        ARGFRAME XSTACK, 9, STACK
        ARGFRAME IOVERLAY, 0, STATIC
        ARGFRAME DOVERLAY, 0, STATIC
        LOCFRAME ISTACK, 1, STACK
        LOCFRAME XSTACK, 24, STACK
        PUBLIC MT_AfExec
        FUNCTION MT_AfExec,021203H
        ARGFRAME XSTACK, 0, STACK
        LOCFRAME XSTACK, 9, STACK
        PUBLIC MT_AfIncomingMsg
        FUNCTION MT_AfIncomingMsg,021203H
        ARGFRAME XSTACK, 0, STACK
        LOCFRAME ISTACK, 1, STACK
        LOCFRAME XSTACK, 28, STACK
        PUBLIC MT_AfRegister
        FUNCTION MT_AfRegister,021203H
        ARGFRAME XSTACK, 9, STACK
        ARGFRAME IOVERLAY, 0, STATIC
        ARGFRAME DOVERLAY, 0, STATIC
        LOCFRAME ISTACK, 1, STACK
        LOCFRAME XSTACK, 15, STACK
        PUBLIC pMtAfDataReq
        PUBLIC pMtAfInMsgList
        
        CFI Names cfiNames0
        CFI StackFrame CFA_SP SP IDATA
        CFI StackFrame CFA_PSP16 PSP16 XDATA
        CFI StackFrame CFA_XSP16 XSP16 XDATA
        CFI StaticOverlayFrame CFA_IOVERLAY IOVERLAY
        CFI StaticOverlayFrame CFA_DOVERLAY DOVERLAY
        CFI Resource `PSW.CY`:1, `B.BR0`:1, `B.BR1`:1, `B.BR2`:1, `B.BR3`:1
        CFI Resource `B.BR4`:1, `B.BR5`:1, `B.BR6`:1, `B.BR7`:1, `VB.BR8`:1
        CFI Resource `VB.BR9`:1, `VB.BR10`:1, `VB.BR11`:1, `VB.BR12`:1
        CFI Resource `VB.BR13`:1, `VB.BR14`:1, `VB.BR15`:1, VB:8, B:8, A:8
        CFI Resource PSW:8, DPL0:8, DPH0:8, R0:8, R1:8, R2:8, R3:8, R4:8, R5:8
        CFI Resource R6:8, R7:8, V0:8, V1:8, V2:8, V3:8, V4:8, V5:8, V6:8, V7:8
        CFI Resource V8:8, V9:8, V10:8, V11:8, V12:8, V13:8, V14:8, V15:8, SP:8
        CFI Resource PSPH:8, PSPL:8, PSP16:16, XSPH:8, XSPL:8, XSP16:16
        CFI VirtualResource ?RET:24
        CFI Resource ?BRET_EXT:8
        CFI VirtualResource ?RET_HIGH:8, ?RET_LOW:8
        CFI ResourceParts PSP16 PSPH, PSPL
        CFI ResourceParts XSP16 XSPH, XSPL
        CFI ResourceParts ?RET ?BRET_EXT, ?RET_HIGH, ?RET_LOW
        CFI EndNames cfiNames0
        
        CFI Common cfiCommon0 Using cfiNames0
        CFI CodeAlign 1
        CFI DataAlign -1
        CFI ReturnAddress ?RET CODE
        CFI CFA_DOVERLAY Used
        CFI CFA_IOVERLAY Used
        CFI CFA_SP SP+-3
        CFI CFA_PSP16 PSP16+0
        CFI CFA_XSP16 XSP16+0
        CFI `PSW.CY` SameValue
        CFI `B.BR0` SameValue
        CFI `B.BR1` SameValue
        CFI `B.BR2` SameValue
        CFI `B.BR3` SameValue
        CFI `B.BR4` SameValue
        CFI `B.BR5` SameValue
        CFI `B.BR6` SameValue
        CFI `B.BR7` SameValue
        CFI `VB.BR8` SameValue
        CFI `VB.BR9` SameValue
        CFI `VB.BR10` SameValue
        CFI `VB.BR11` SameValue
        CFI `VB.BR12` SameValue
        CFI `VB.BR13` SameValue
        CFI `VB.BR14` SameValue
        CFI `VB.BR15` SameValue
        CFI VB SameValue
        CFI B Undefined
        CFI A Undefined
        CFI PSW SameValue
        CFI DPL0 SameValue
        CFI DPH0 SameValue
        CFI R0 Undefined
        CFI R1 Undefined
        CFI R2 Undefined
        CFI R3 Undefined
        CFI R4 Undefined
        CFI R5 Undefined
        CFI R6 SameValue
        CFI R7 SameValue
        CFI V0 SameValue
        CFI V1 SameValue
        CFI V2 SameValue
        CFI V3 SameValue
        CFI V4 SameValue
        CFI V5 SameValue
        CFI V6 SameValue
        CFI V7 SameValue
        CFI V8 SameValue
        CFI V9 SameValue
        CFI V10 SameValue
        CFI V11 SameValue
        CFI V12 SameValue
        CFI V13 SameValue
        CFI V14 SameValue
        CFI V15 SameValue
        CFI PSPH Undefined
        CFI PSPL Undefined
        CFI XSPH Undefined
        CFI XSPL Undefined
        CFI ?RET Concat
        CFI ?BRET_EXT Frame(CFA_SP, 3)
        CFI ?RET_HIGH Frame(CFA_SP, 2)
        CFI ?RET_LOW Frame(CFA_SP, 1)
        CFI EndCommon cfiCommon0
        
        
        CFI Common cfiCommon1 Using cfiNames0
        CFI CodeAlign 1
        CFI DataAlign -1
        CFI ReturnAddress ?RET CODE
        CFI CFA_DOVERLAY Used
        CFI CFA_IOVERLAY Used
        CFI CFA_SP SP+-2
        CFI CFA_PSP16 PSP16+0
        CFI CFA_XSP16 XSP16+0
        CFI `PSW.CY` SameValue
        CFI `B.BR0` SameValue
        CFI `B.BR1` SameValue
        CFI `B.BR2` SameValue
        CFI `B.BR3` SameValue
        CFI `B.BR4` SameValue
        CFI `B.BR5` SameValue
        CFI `B.BR6` SameValue
        CFI `B.BR7` SameValue
        CFI `VB.BR8` SameValue
        CFI `VB.BR9` SameValue
        CFI `VB.BR10` SameValue
        CFI `VB.BR11` SameValue
        CFI `VB.BR12` SameValue
        CFI `VB.BR13` SameValue
        CFI `VB.BR14` SameValue
        CFI `VB.BR15` SameValue
        CFI VB SameValue
        CFI B SameValue
        CFI A SameValue
        CFI PSW SameValue
        CFI DPL0 SameValue
        CFI DPH0 SameValue
        CFI R0 SameValue
        CFI R1 SameValue
        CFI R2 SameValue
        CFI R3 SameValue
        CFI R4 SameValue
        CFI R5 SameValue
        CFI R6 SameValue
        CFI R7 SameValue
        CFI V0 SameValue
        CFI V1 SameValue
        CFI V2 SameValue
        CFI V3 SameValue
        CFI V4 SameValue
        CFI V5 SameValue
        CFI V6 SameValue
        CFI V7 SameValue
        CFI V8 SameValue
        CFI V9 SameValue
        CFI V10 SameValue
        CFI V11 SameValue
        CFI V12 SameValue
        CFI V13 SameValue
        CFI V14 SameValue
        CFI V15 SameValue
        CFI PSPH Undefined
        CFI PSPL Undefined
        CFI XSPH Undefined
        CFI XSPL Undefined
        CFI ?RET Concat
        CFI ?BRET_EXT SameValue
        CFI ?RET_HIGH Frame(CFA_SP, 2)
        CFI ?RET_LOW Frame(CFA_SP, 1)
        CFI EndCommon cfiCommon1
        
osal_mem_free       SYMBOL "osal_mem_free"
osal_start_timerEx  SYMBOL "osal_start_timerEx"
osal_set_event      SYMBOL "osal_set_event"
osal_mem_alloc      SYMBOL "osal_mem_alloc"
MT_BuildEndpointDesc SYMBOL "MT_BuildEndpointDesc"
afRegister          SYMBOL "afRegister"
MT_BuildAndSendZToolResponse SYMBOL "MT_BuildAndSendZToolResponse"
osal_memcpy         SYMBOL "osal_memcpy"
afFindEndPointDesc  SYMBOL "afFindEndPointDesc"
AF_DataRequest      SYMBOL "AF_DataRequest"
??AF_DataRequest?relay SYMBOL "?relay", AF_DataRequest
??MT_BuildAndSendZToolResponse?relay SYMBOL "?relay", MT_BuildAndSendZToolResponse
??MT_BuildEndpointDesc?relay SYMBOL "?relay", MT_BuildEndpointDesc
??afFindEndPointDesc?relay SYMBOL "?relay", afFindEndPointDesc
??afRegister?relay  SYMBOL "?relay", afRegister
??osal_mem_alloc?relay SYMBOL "?relay", osal_mem_alloc
??osal_mem_free?relay SYMBOL "?relay", osal_mem_free
??osal_memcpy?relay SYMBOL "?relay", osal_memcpy
??osal_set_event?relay SYMBOL "?relay", osal_set_event
??osal_start_timerEx?relay SYMBOL "?relay", osal_start_timerEx
MT_AfCommandProcessing SYMBOL "MT_AfCommandProcessing"
??MT_AfCommandProcessing?relay SYMBOL "?relay", MT_AfCommandProcessing
MT_AfDataConfirm    SYMBOL "MT_AfDataConfirm"
??MT_AfDataConfirm?relay SYMBOL "?relay", MT_AfDataConfirm
MT_AfDataRequest    SYMBOL "MT_AfDataRequest"
??MT_AfDataRequest?relay SYMBOL "?relay", MT_AfDataRequest
MT_AfExec           SYMBOL "MT_AfExec"
??MT_AfExec?relay   SYMBOL "?relay", MT_AfExec
MT_AfIncomingMsg    SYMBOL "MT_AfIncomingMsg"
??MT_AfIncomingMsg?relay SYMBOL "?relay", MT_AfIncomingMsg
MT_AfRegister       SYMBOL "MT_AfRegister"
??MT_AfRegister?relay SYMBOL "?relay", MT_AfRegister

        EXTERN osal_mem_free
        FUNCTION osal_mem_free,0202H
        ARGFRAME ISTACK, 0, STACK
        ARGFRAME PSTACK, 0, STACK
        ARGFRAME XSTACK, 25, STACK
        ARGFRAME IOVERLAY, 0, STATIC
        ARGFRAME DOVERLAY, 0, STATIC
        EXTERN osal_start_timerEx
        FUNCTION osal_start_timerEx,0202H
        ARGFRAME ISTACK, 0, STACK
        ARGFRAME PSTACK, 0, STACK
        ARGFRAME XSTACK, 35, STACK
        ARGFRAME IOVERLAY, 0, STATIC
        ARGFRAME DOVERLAY, 0, STATIC
        EXTERN osal_set_event
        FUNCTION osal_set_event,0202H
        ARGFRAME ISTACK, 0, STACK
        ARGFRAME PSTACK, 0, STACK
        ARGFRAME XSTACK, 35, STACK
        ARGFRAME IOVERLAY, 0, STATIC
        ARGFRAME DOVERLAY, 0, STATIC
        EXTERN osal_mem_alloc
        FUNCTION osal_mem_alloc,0202H
        ARGFRAME ISTACK, 0, STACK
        ARGFRAME PSTACK, 0, STACK
        ARGFRAME XSTACK, 35, STACK
        ARGFRAME IOVERLAY, 0, STATIC
        ARGFRAME DOVERLAY, 0, STATIC
        EXTERN MT_BuildEndpointDesc
        FUNCTION MT_BuildEndpointDesc,0202H
        ARGFRAME ISTACK, 0, STACK
        ARGFRAME PSTACK, 0, STACK
        ARGFRAME XSTACK, 15, STACK
        ARGFRAME IOVERLAY, 0, STATIC
        ARGFRAME DOVERLAY, 0, STATIC
        EXTERN afRegister
        FUNCTION afRegister,0202H
        ARGFRAME ISTACK, 0, STACK
        ARGFRAME PSTACK, 0, STACK
        ARGFRAME XSTACK, 15, STACK
        ARGFRAME IOVERLAY, 0, STATIC
        ARGFRAME DOVERLAY, 0, STATIC
        EXTERN MT_BuildAndSendZToolResponse
        FUNCTION MT_BuildAndSendZToolResponse,0202H
        ARGFRAME ISTACK, 2, STACK
        ARGFRAME PSTACK, 0, STACK
        ARGFRAME XSTACK, 35, STACK
        ARGFRAME IOVERLAY, 0, STATIC
        ARGFRAME DOVERLAY, 0, STATIC
        EXTERN osal_memcpy
        FUNCTION osal_memcpy,0202H
        ARGFRAME ISTACK, 0, STACK
        ARGFRAME PSTACK, 0, STACK
        ARGFRAME XSTACK, 38, STACK
        ARGFRAME IOVERLAY, 0, STATIC
        ARGFRAME DOVERLAY, 0, STATIC
        EXTERN afFindEndPointDesc
        FUNCTION afFindEndPointDesc,0202H
        ARGFRAME ISTACK, 0, STACK
        ARGFRAME PSTACK, 0, STACK
        ARGFRAME XSTACK, 35, STACK
        ARGFRAME IOVERLAY, 0, STATIC
        ARGFRAME DOVERLAY, 0, STATIC
        EXTERN AF_DataRequest
        FUNCTION AF_DataRequest,0202H
        ARGFRAME ISTACK, 0, STACK
        ARGFRAME PSTACK, 0, STACK
        ARGFRAME XSTACK, 44, STACK
        ARGFRAME IOVERLAY, 0, STATIC
        ARGFRAME DOVERLAY, 0, STATIC
        EXTERN ??AF_DataRequest?relay
        FUNCTION ??AF_DataRequest?relay,00H
        EXTERN ??MT_BuildAndSendZToolResponse?relay
        FUNCTION ??MT_BuildAndSendZToolResponse?relay,00H
        EXTERN ??MT_BuildEndpointDesc?relay
        FUNCTION ??MT_BuildEndpointDesc?relay,00H
        EXTERN ??afFindEndPointDesc?relay
        FUNCTION ??afFindEndPointDesc?relay,00H
        EXTERN ??afRegister?relay
        FUNCTION ??afRegister?relay,00H
        EXTERN ??osal_mem_alloc?relay
        FUNCTION ??osal_mem_alloc?relay,00H
        EXTERN ??osal_mem_free?relay
        FUNCTION ??osal_mem_free?relay,00H
        EXTERN ??osal_memcpy?relay
        FUNCTION ??osal_memcpy?relay,00H
        EXTERN ??osal_set_event?relay
        FUNCTION ??osal_set_event?relay,00H
        EXTERN ??osal_start_timerEx?relay
        FUNCTION ??osal_start_timerEx?relay,00H
        EXTERN MT_TaskID

// C:\Users\win7\Desktop\ZStack´«¸ÐÆ÷Í¸Ã÷´«ÊäÔ´³ÌÐòV2.45-13(´ø»ØÂë2018-5-20)\Components\mt\MT_AF.c
//    1 /**************************************************************************************************
//    2   Filename:       MT_AF.c
//    3   Revised:        $Date: 2010-08-13 18:14:16 -0700 (Fri, 13 Aug 2010) $
//    4   Revision:       $Revision: 23411 $
//    5 
//    6 
//    7   Description:    MonitorTest functions for the AF layer.
//    8 
//    9 
//   10   Copyright 2007-2010 Texas Instruments Incorporated. All rights reserved.
//   11 
//   12   IMPORTANT: Your use of this Software is limited to those specific rights
//   13   granted under the terms of a software license agreement between the user
//   14   who downloaded the software, his/her employer (which must be your employer)
//   15   and Texas Instruments Incorporated (the "License").  You may not use this
//   16   Software unless you agree to abide by the terms of the License. The License
//   17   limits your use, and you acknowledge, that the Software may not be modified,
//   18   copied or distributed unless embedded on a Texas Instruments microcontroller
//   19   or used solely and exclusively in conjunction with a Texas Instruments radio
//   20   frequency transceiver, which is integrated into your product.  Other than for
//   21   the foregoing purpose, you may not use, reproduce, copy, prepare derivative
//   22   works of, modify, distribute, perform, display or sell this Software and/or
//   23   its documentation for any purpose.
//   24 
//   25   YOU FURTHER ACKNOWLEDGE AND AGREE THAT THE SOFTWARE AND DOCUMENTATION ARE
//   26   PROVIDED “AS IS” WITHOUT WARRANTY OF ANY KIND, EITHER EXPRESS OR IMPLIED,
//   27   INCLUDING WITHOUT LIMITATION, ANY WARRANTY OF MERCHANTABILITY, TITLE,
//   28   NON-INFRINGEMENT AND FITNESS FOR A PARTICULAR PURPOSE. IN NO EVENT SHALL
//   29   TEXAS INSTRUMENTS OR ITS LICENSORS BE LIABLE OR OBLIGATED UNDER CONTRACT,
//   30   NEGLIGENCE, STRICT LIABILITY, CONTRIBUTION, BREACH OF WARRANTY, OR OTHER
//   31   LEGAL EQUITABLE THEORY ANY DIRECT OR INDIRECT DAMAGES OR EXPENSES
//   32   INCLUDING BUT NOT LIMITED TO ANY INCIDENTAL, SPECIAL, INDIRECT, PUNITIVE
//   33   OR CONSEQUENTIAL DAMAGES, LOST PROFITS OR LOST DATA, COST OF PROCUREMENT
//   34   OF SUBSTITUTE GOODS, TECHNOLOGY, SERVICES, OR ANY CLAIMS BY THIRD PARTIES
//   35   (INCLUDING BUT NOT LIMITED TO ANY DEFENSE THEREOF), OR OTHER SIMILAR COSTS.
//   36 
//   37   Should you have any questions regarding your right to use this Software,
//   38   contact Texas Instruments Incorporated at www.TI.com.
//   39 
//   40 **************************************************************************************************/
//   41 
//   42 /***************************************************************************************************
//   43  * INCLUDES
//   44  ***************************************************************************************************/
//   45 #include "ZComDef.h"
//   46 #include "OSAL.h"
//   47 #include "MT.h"
//   48 #include "MT_AF.h"
//   49 #include "MT_ZDO.h"
//   50 #include "nwk.h"
//   51 #include "OnBoard.h"
//   52 #include "MT_UART.h"
//   53 
//   54 #if defined INTER_PAN
//   55 #include "stub_aps.h"
//   56 #endif
//   57 
//   58 /* ------------------------------------------------------------------------------------------------
//   59  *                                          Constants
//   60  * ------------------------------------------------------------------------------------------------
//   61  */
//   62 
//   63 #if !defined MT_AF_EXEC_CNT
//   64 #define MT_AF_EXEC_CNT  15
//   65 #endif
//   66 
//   67 #if !defined MT_AF_EXEC_DLY
//   68 #define MT_AF_EXEC_DLY  1000
//   69 #endif
//   70 
//   71 /* ------------------------------------------------------------------------------------------------
//   72  *                                           Typedefs
//   73  * ------------------------------------------------------------------------------------------------
//   74  */
//   75 
//   76 /*
//   77 typedef struct
//   78 {
//   79   union
//   80   {
//   81     uint16      shortAddr;
//   82     ZLongAddr_t extAddr;
//   83   } addr;
//   84   afAddrMode_t addrMode;
//   85   byte endPoint;
//   86   uint16 panId;  // used for the INTER_PAN feature
//   87 } afAddrType_t;
//   88 
//   89 typedef struct
//   90 {
//   91   byte   TransSeqNumber;
//   92   uint16 DataLength;               // Number of bytes in TransData
//   93   byte  *Data;
//   94 } afMSGCommandFormat_t;
//   95  */
//   96 
//   97 typedef struct
//   98 {
//   99   uint8 *data;
//  100   afAddrType_t dstAddr;
//  101   endPointDesc_t *epDesc;
//  102   uint16 cId;
//  103   uint16 dataLen;
//  104   uint8 transId;
//  105   uint8 txOpts;
//  106   uint8 radius;
//  107   uint8 tick;
//  108 } mtAfDataReq_t;
//  109 
//  110 struct _mtAfInMsgList_t
//  111 {
//  112   struct _mtAfInMsgList_t *next;
//  113   uint8 *data;
//  114   uint32 timestamp;         // Receipt timestamp from MAC.
//  115   uint8 tick;
//  116 };
//  117 typedef struct _mtAfInMsgList_t mtAfInMsgList_t;
//  118 
//  119 /* ------------------------------------------------------------------------------------------------
//  120  *                                        Local Variables
//  121  * ------------------------------------------------------------------------------------------------
//  122  */
//  123 

        RSEG XDATA_Z:XDATA:NOROOT(0)
//  124 mtAfInMsgList_t *pMtAfInMsgList = NULL;
pMtAfInMsgList:
        DS 2
        REQUIRE __INIT_XDATA_Z

        RSEG XDATA_Z:XDATA:NOROOT(0)
//  125 mtAfDataReq_t *pMtAfDataReq = NULL;
pMtAfDataReq:
        DS 2
        REQUIRE __INIT_XDATA_Z
//  126 
//  127 /* ------------------------------------------------------------------------------------------------
//  128  *                                        Global Variables
//  129  * ------------------------------------------------------------------------------------------------
//  130  */
//  131 
//  132 #if defined ( MT_AF_CB_FUNC )
//  133 uint16 _afCallbackSub;
//  134 #endif
//  135 
//  136 /* ------------------------------------------------------------------------------------------------
//  137  *                                        Local Functions
//  138  * ------------------------------------------------------------------------------------------------
//  139  */
//  140 
//  141 void MT_AfRegister(uint8 *pBuf);
//  142 void MT_AfDataRequest(uint8 *pBuf);
//  143 
//  144 #if defined ( ZIGBEE_SOURCE_ROUTING )
//  145 void MT_AfDataRequestSrcRtg(uint8 *pBuf);
//  146 #endif
//  147 
//  148 #if defined INTER_PAN
//  149 static void MT_AfInterPanCtl(uint8 *pBuf);
//  150 #endif
//  151 
//  152 static void MT_AfDataRetrieve(uint8 *pBuf);
//  153 static void MT_AfDataStore(uint8 *pBuf);
//  154 
//  155 /**************************************************************************************************
//  156  * @fn          MT_AfExec
//  157  *
//  158  * @brief       This function is invoked by an MT timer event.
//  159  *
//  160  * input parameters
//  161  *
//  162  * None.
//  163  *
//  164  * output parameters
//  165  *
//  166  * None.
//  167  *
//  168  * @return      None.
//  169  **************************************************************************************************
//  170  */

        RSEG BANKED_CODE:CODE:NOROOT(0)
//  171 void MT_AfExec(void)
MT_AfExec:
        CFI Block cfiBlock0 Using cfiCommon0
        CFI Function MT_AfExec
//  172 {
        FUNCALL MT_AfExec, osal_mem_free
        LOCFRAME ISTACK, 0, STACK
        LOCFRAME PSTACK, 0, STACK
        LOCFRAME XSTACK, 9, STACK
        LOCFRAME IOVERLAY, 0, STATIC
        LOCFRAME DOVERLAY, 0, STATIC
        ARGFRAME ISTACK, 0, STACK
        ARGFRAME PSTACK, 0, STACK
        ARGFRAME XSTACK, 9, STACK
        ARGFRAME IOVERLAY, 0, STATIC
        ARGFRAME DOVERLAY, 0, STATIC
        FUNCALL MT_AfExec, osal_mem_free
        LOCFRAME ISTACK, 0, STACK
        LOCFRAME PSTACK, 0, STACK
        LOCFRAME XSTACK, 9, STACK
        LOCFRAME IOVERLAY, 0, STATIC
        LOCFRAME DOVERLAY, 0, STATIC
        ARGFRAME ISTACK, 0, STACK
        ARGFRAME PSTACK, 0, STACK
        ARGFRAME XSTACK, 9, STACK
        ARGFRAME IOVERLAY, 0, STATIC
        ARGFRAME DOVERLAY, 0, STATIC
        FUNCALL MT_AfExec, osal_mem_free
        LOCFRAME ISTACK, 0, STACK
        LOCFRAME PSTACK, 0, STACK
        LOCFRAME XSTACK, 9, STACK
        LOCFRAME IOVERLAY, 0, STATIC
        LOCFRAME DOVERLAY, 0, STATIC
        ARGFRAME ISTACK, 0, STACK
        ARGFRAME PSTACK, 0, STACK
        ARGFRAME XSTACK, 9, STACK
        ARGFRAME IOVERLAY, 0, STATIC
        ARGFRAME DOVERLAY, 0, STATIC
        FUNCALL MT_AfExec, osal_start_timerEx
        LOCFRAME ISTACK, 0, STACK
        LOCFRAME PSTACK, 0, STACK
        LOCFRAME XSTACK, 9, STACK
        LOCFRAME IOVERLAY, 0, STATIC
        LOCFRAME DOVERLAY, 0, STATIC
        ARGFRAME ISTACK, 0, STACK
        ARGFRAME PSTACK, 0, STACK
        ARGFRAME XSTACK, 9, STACK
        ARGFRAME IOVERLAY, 0, STATIC
        ARGFRAME DOVERLAY, 0, STATIC
        FUNCALL MT_AfExec, osal_set_event
        LOCFRAME ISTACK, 0, STACK
        LOCFRAME PSTACK, 0, STACK
        LOCFRAME XSTACK, 9, STACK
        LOCFRAME IOVERLAY, 0, STATIC
        LOCFRAME DOVERLAY, 0, STATIC
        ARGFRAME ISTACK, 0, STACK
        ARGFRAME PSTACK, 0, STACK
        ARGFRAME XSTACK, 9, STACK
        ARGFRAME IOVERLAY, 0, STATIC
        ARGFRAME DOVERLAY, 0, STATIC
        MOV     A,#-0x9
        LCALL   ?BANKED_ENTER_XDATA
        CFI R6 load(1, XDATA, add(CFA_XSP16, literal(-9)))
        CFI VB load(1, XDATA, add(CFA_XSP16, literal(-8)))
        CFI V0 load(1, XDATA, add(CFA_XSP16, literal(-7)))
        CFI R7 load(1, XDATA, add(CFA_XSP16, literal(-6)))
        CFI ?RET_LOW load(1, XDATA, add(CFA_XSP16, literal(-5)))
        CFI ?RET_HIGH load(1, XDATA, add(CFA_XSP16, literal(-4)))
        CFI ?BRET_EXT load(1, XDATA, add(CFA_XSP16, literal(-3)))
        CFI DPL0 load(1, XDATA, add(CFA_XSP16, literal(-2)))
        CFI DPH0 load(1, XDATA, add(CFA_XSP16, literal(-1)))
        CFI CFA_SP SP+0
        CFI CFA_XSP16 add(XSP16, 9)
        ; Saved register size: 9
        ; Auto size: 0
//  173   mtAfInMsgList_t *pPrev, *pItem = pMtAfInMsgList;
??MT_AfExec_0:
        LCALL   ?Subroutine30 & 0xFFFF
??CrossCallReturnLabel_89:
        SJMP    ??MT_AfExec_1
//  174 
//  175   while (pItem != NULL)
//  176   {
//  177     if (--(pItem->tick) == 0)
//  178     {
//  179       if (pMtAfInMsgList == pItem)
//  180       {
//  181         pMtAfInMsgList = pItem->next;
//  182         (void)osal_mem_free(pItem);
//  183         pItem = pMtAfInMsgList;
//  184       }
//  185       else
//  186       {
//  187         pPrev->next = pItem->next;
//  188         (void)osal_mem_free(pItem);
//  189         pItem = pPrev->next;
//  190       }
//  191     }
//  192     else
//  193     {
//  194       pPrev = pItem;
??MT_AfExec_2:
        MOV     A,R2
        MOV     R6,A
        MOV     A,R3
        MOV     R7,A
//  195       pItem = pItem->next;
        MOV     A,R0
        MOV     R2,A
        MOV     A,R1
??MT_AfExec_1:
        MOV     R3,A
//  196     }
        MOV     A,R2
        JNZ     ??MT_AfExec_3
        MOV     A,R3
??MT_AfExec_3:
        JZ      ??MT_AfExec_4
        MOV     A,R2
        ADD     A,#0x8
        MOV     R0,A
        MOV     A,R3
        ADDC    A,#0x0
        MOV     R1,A
        MOV     A,R0
        MOV     R4,A
        MOV     A,R1
        MOV     R5,A
        MOV     DPL,R4
        MOV     DPH,R5
        MOVX    A,@DPTR
        DEC     A
        MOVX    @DPTR,A
        MOV     DPL,R2
        MOV     DPH,R3
        MOVX    A,@DPTR
        MOV     R0,A
        INC     DPTR
        MOVX    A,@DPTR
        MOV     R1,A
        MOV     DPL,R4
        MOV     DPH,R5
        MOVX    A,@DPTR
        JNZ     ??MT_AfExec_2
        MOV     DPTR,#pMtAfInMsgList
        MOVX    A,@DPTR
        MOV     R4,A
        INC     DPTR
        MOVX    A,@DPTR
        MOV     R5,A
        MOV     A,R2
        XRL     A,R4
        JNZ     ??MT_AfExec_5
        MOV     A,R3
        XRL     A,R5
??MT_AfExec_5:
        JNZ     ??MT_AfExec_6
        MOV     DPTR,#pMtAfInMsgList
        LCALL   ?Subroutine23 & 0xFFFF
??CrossCallReturnLabel_35:
        SJMP    ??MT_AfExec_0
??MT_AfExec_6:
        MOV     DPL,R6
        MOV     DPH,R7
        LCALL   ?Subroutine23 & 0xFFFF
??CrossCallReturnLabel_36:
        MOV     DPL,R6
        MOV     DPH,R7
        LCALL   ??Subroutine44_0 & 0xFFFF
//  197   }
??CrossCallReturnLabel_86:
        SJMP    ??MT_AfExec_1
//  198 
//  199   if (pMtAfDataReq != NULL)
??MT_AfExec_4:
        MOV     DPTR,#pMtAfDataReq
        MOVX    A,@DPTR
        JNZ     ??MT_AfExec_7
        INC     DPTR
        MOVX    A,@DPTR
??MT_AfExec_7:
        JZ      ??MT_AfExec_8
//  200   {
//  201     if (--(pMtAfDataReq->tick) == 0)
        LCALL   ?Subroutine3 & 0xFFFF
??CrossCallReturnLabel_51:
        DEC     A
        MOVX    @DPTR,A
        LCALL   ?Subroutine3 & 0xFFFF
??CrossCallReturnLabel_52:
        JNZ     ??MT_AfExec_8
//  202     {
//  203       (void)osal_mem_free(pMtAfDataReq);
        ; Setup parameters for call to function osal_mem_free
        LCALL   ?Subroutine8 & 0xFFFF
//  204       pMtAfDataReq = NULL;
//  205     }
//  206   }
??CrossCallReturnLabel_6:
        MOVX    @DPTR,A
//  207 
//  208   if ((pMtAfInMsgList != NULL) || (pMtAfDataReq != NULL))
??MT_AfExec_8:
        MOV     DPTR,#pMtAfInMsgList
        MOVX    A,@DPTR
        JNZ     ??MT_AfExec_9
        INC     DPTR
        MOVX    A,@DPTR
??MT_AfExec_9:
        JNZ     ??MT_AfExec_10
        MOV     DPTR,#pMtAfDataReq
        MOVX    A,@DPTR
        JNZ     ??MT_AfExec_11
        INC     DPTR
        MOVX    A,@DPTR
??MT_AfExec_11:
        JZ      ??CrossCallReturnLabel_12
//  209   {
//  210     if (ZSuccess != osal_start_timerEx(MT_TaskID, MT_AF_EXEC_EVT, MT_AF_EXEC_DLY))
??MT_AfExec_10:
        ; Setup parameters for call to function osal_start_timerEx
        LCALL   ??Subroutine38_0 & 0xFFFF
??CrossCallReturnLabel_60:
        JZ      ??CrossCallReturnLabel_12
//  211     {
//  212       osal_set_event(MT_TaskID, MT_AF_EXEC_EVT);
        ; Setup parameters for call to function osal_set_event
        LCALL   ?Subroutine13 & 0xFFFF
        CFI EndBlock cfiBlock0
//  213     }
//  214   }
//  215 }
??CrossCallReturnLabel_12:
        REQUIRE ?Subroutine0
        ; // Fall through to label ?Subroutine0

        RSEG BANKED_CODE:CODE:NOROOT(0)
?Subroutine0:
        CFI Block cfiBlock1 Using cfiCommon0
        CFI NoFunction
        CFI CFA_SP SP+0
        CFI CFA_XSP16 add(XSP16, 9)
        CFI VB load(1, XDATA, add(CFA_XSP16, literal(-8)))
        CFI DPL0 load(1, XDATA, add(CFA_XSP16, literal(-2)))
        CFI DPH0 load(1, XDATA, add(CFA_XSP16, literal(-1)))
        CFI R6 load(1, XDATA, add(CFA_XSP16, literal(-9)))
        CFI R7 load(1, XDATA, add(CFA_XSP16, literal(-6)))
        CFI V0 load(1, XDATA, add(CFA_XSP16, literal(-7)))
        CFI ?BRET_EXT load(1, XDATA, add(CFA_XSP16, literal(-3)))
        CFI ?RET_HIGH load(1, XDATA, add(CFA_XSP16, literal(-4)))
        CFI ?RET_LOW load(1, XDATA, add(CFA_XSP16, literal(-5)))
        MOV     R7,#0x1
        LJMP    ?BANKED_LEAVE_XDATA
        CFI EndBlock cfiBlock1

        RSEG BANKED_CODE:CODE:NOROOT(0)
?Subroutine23:
        CFI Block cfiCond2 Using cfiCommon0
        CFI NoFunction
        CFI Conditional ??CrossCallReturnLabel_35
        CFI R6 load(1, XDATA, add(CFA_XSP16, literal(-9)))
        CFI VB load(1, XDATA, add(CFA_XSP16, literal(-8)))
        CFI V0 load(1, XDATA, add(CFA_XSP16, literal(-7)))
        CFI R7 load(1, XDATA, add(CFA_XSP16, literal(-6)))
        CFI ?RET_LOW load(1, XDATA, add(CFA_XSP16, literal(-5)))
        CFI ?RET_HIGH load(1, XDATA, add(CFA_XSP16, literal(-4)))
        CFI ?BRET_EXT load(1, XDATA, add(CFA_XSP16, literal(-3)))
        CFI DPL0 load(1, XDATA, add(CFA_XSP16, literal(-2)))
        CFI DPH0 load(1, XDATA, add(CFA_XSP16, literal(-1)))
        CFI CFA_SP SP+0
        CFI CFA_XSP16 add(XSP16, 9)
        CFI Block cfiCond3 Using cfiCommon0
        CFI (cfiCond3) NoFunction
        CFI (cfiCond3) Conditional ??CrossCallReturnLabel_36
        CFI (cfiCond3) R6 load(1, XDATA, add(CFA_XSP16, literal(-9)))
        CFI (cfiCond3) VB load(1, XDATA, add(CFA_XSP16, literal(-8)))
        CFI (cfiCond3) V0 load(1, XDATA, add(CFA_XSP16, literal(-7)))
        CFI (cfiCond3) R7 load(1, XDATA, add(CFA_XSP16, literal(-6)))
        CFI (cfiCond3) ?RET_LOW load(1, XDATA, add(CFA_XSP16, literal(-5)))
        CFI (cfiCond3) ?RET_HIGH load(1, XDATA, add(CFA_XSP16, literal(-4)))
        CFI (cfiCond3) ?BRET_EXT load(1, XDATA, add(CFA_XSP16, literal(-3)))
        CFI (cfiCond3) DPL0 load(1, XDATA, add(CFA_XSP16, literal(-2)))
        CFI (cfiCond3) DPH0 load(1, XDATA, add(CFA_XSP16, literal(-1)))
        CFI (cfiCond3) CFA_SP SP+0
        CFI (cfiCond3) CFA_XSP16 add(XSP16, 9)
        CFI Block cfiPicker4 Using cfiCommon1
        CFI (cfiPicker4) NoFunction
        CFI (cfiPicker4) Picker
        MOV     A,R0
        MOVX    @DPTR,A
        INC     DPTR
        MOV     A,R1
        MOVX    @DPTR,A
        ; Setup parameters for call to function osal_mem_free
        ; Setup parameters for call to function osal_mem_free
        LCALL   ??osal_mem_free?relay
        RET
        CFI EndBlock cfiCond2
        CFI EndBlock cfiCond3
        CFI EndBlock cfiPicker4

        RSEG BANKED_CODE:CODE:NOROOT(0)
?Subroutine3:
        CFI Block cfiCond5 Using cfiCommon0
        CFI NoFunction
        CFI Conditional ??CrossCallReturnLabel_51
        CFI R6 load(1, XDATA, add(CFA_XSP16, literal(-9)))
        CFI VB load(1, XDATA, add(CFA_XSP16, literal(-8)))
        CFI V0 load(1, XDATA, add(CFA_XSP16, literal(-7)))
        CFI R7 load(1, XDATA, add(CFA_XSP16, literal(-6)))
        CFI ?RET_LOW load(1, XDATA, add(CFA_XSP16, literal(-5)))
        CFI ?RET_HIGH load(1, XDATA, add(CFA_XSP16, literal(-4)))
        CFI ?BRET_EXT load(1, XDATA, add(CFA_XSP16, literal(-3)))
        CFI DPL0 load(1, XDATA, add(CFA_XSP16, literal(-2)))
        CFI DPH0 load(1, XDATA, add(CFA_XSP16, literal(-1)))
        CFI CFA_SP SP+0
        CFI CFA_XSP16 add(XSP16, 9)
        CFI Block cfiCond6 Using cfiCommon0
        CFI (cfiCond6) NoFunction
        CFI (cfiCond6) Conditional ??CrossCallReturnLabel_52
        CFI (cfiCond6) R6 load(1, XDATA, add(CFA_XSP16, literal(-9)))
        CFI (cfiCond6) VB load(1, XDATA, add(CFA_XSP16, literal(-8)))
        CFI (cfiCond6) V0 load(1, XDATA, add(CFA_XSP16, literal(-7)))
        CFI (cfiCond6) R7 load(1, XDATA, add(CFA_XSP16, literal(-6)))
        CFI (cfiCond6) ?RET_LOW load(1, XDATA, add(CFA_XSP16, literal(-5)))
        CFI (cfiCond6) ?RET_HIGH load(1, XDATA, add(CFA_XSP16, literal(-4)))
        CFI (cfiCond6) ?BRET_EXT load(1, XDATA, add(CFA_XSP16, literal(-3)))
        CFI (cfiCond6) DPL0 load(1, XDATA, add(CFA_XSP16, literal(-2)))
        CFI (cfiCond6) DPH0 load(1, XDATA, add(CFA_XSP16, literal(-1)))
        CFI (cfiCond6) CFA_SP SP+0
        CFI (cfiCond6) CFA_XSP16 add(XSP16, 9)
        CFI Block cfiPicker7 Using cfiCommon1
        CFI (cfiPicker7) NoFunction
        CFI (cfiPicker7) Picker
        MOV     DPTR,#pMtAfDataReq
        MOVX    A,@DPTR
        ADD     A,#0x17
        CFI EndBlock cfiCond5
        CFI EndBlock cfiCond6
        CFI EndBlock cfiPicker7
        REQUIRE ??Subroutine36_0
        ; // Fall through to label ??Subroutine36_0

        RSEG BANKED_CODE:CODE:NOROOT(0)
??Subroutine36_0:
        CFI Block cfiCond8 Using cfiCommon0
        CFI NoFunction
        CFI Conditional ??CrossCallReturnLabel_49
        CFI R6 load(1, XDATA, add(CFA_XSP16, literal(-14)))
        CFI VB load(1, XDATA, add(CFA_XSP16, literal(-13)))
        CFI V0 load(1, XDATA, add(CFA_XSP16, literal(-12)))
        CFI V1 load(1, XDATA, add(CFA_XSP16, literal(-11)))
        CFI V2 load(1, XDATA, add(CFA_XSP16, literal(-10)))
        CFI V3 load(1, XDATA, add(CFA_XSP16, literal(-9)))
        CFI V4 load(1, XDATA, add(CFA_XSP16, literal(-8)))
        CFI V5 load(1, XDATA, add(CFA_XSP16, literal(-7)))
        CFI R7 load(1, XDATA, add(CFA_XSP16, literal(-6)))
        CFI ?RET_LOW load(1, XDATA, add(CFA_XSP16, literal(-5)))
        CFI ?RET_HIGH load(1, XDATA, add(CFA_XSP16, literal(-4)))
        CFI ?BRET_EXT load(1, XDATA, add(CFA_XSP16, literal(-3)))
        CFI DPL0 load(1, XDATA, add(CFA_XSP16, literal(-2)))
        CFI DPH0 load(1, XDATA, add(CFA_XSP16, literal(-1)))
        CFI CFA_SP SP+0
        CFI CFA_XSP16 add(XSP16, 15)
        CFI Block cfiCond9 Using cfiCommon0
        CFI (cfiCond9) NoFunction
        CFI (cfiCond9) Conditional ??CrossCallReturnLabel_50
        CFI (cfiCond9) R6 load(1, XDATA, add(CFA_XSP16, literal(-14)))
        CFI (cfiCond9) VB load(1, XDATA, add(CFA_XSP16, literal(-13)))
        CFI (cfiCond9) V0 load(1, XDATA, add(CFA_XSP16, literal(-12)))
        CFI (cfiCond9) V1 load(1, XDATA, add(CFA_XSP16, literal(-11)))
        CFI (cfiCond9) V2 load(1, XDATA, add(CFA_XSP16, literal(-10)))
        CFI (cfiCond9) V3 load(1, XDATA, add(CFA_XSP16, literal(-9)))
        CFI (cfiCond9) V4 load(1, XDATA, add(CFA_XSP16, literal(-8)))
        CFI (cfiCond9) V5 load(1, XDATA, add(CFA_XSP16, literal(-7)))
        CFI (cfiCond9) R7 load(1, XDATA, add(CFA_XSP16, literal(-6)))
        CFI (cfiCond9) ?RET_LOW load(1, XDATA, add(CFA_XSP16, literal(-5)))
        CFI (cfiCond9) ?RET_HIGH load(1, XDATA, add(CFA_XSP16, literal(-4)))
        CFI (cfiCond9) ?BRET_EXT load(1, XDATA, add(CFA_XSP16, literal(-3)))
        CFI (cfiCond9) DPL0 load(1, XDATA, add(CFA_XSP16, literal(-2)))
        CFI (cfiCond9) DPH0 load(1, XDATA, add(CFA_XSP16, literal(-1)))
        CFI (cfiCond9) CFA_SP SP+0
        CFI (cfiCond9) CFA_XSP16 add(XSP16, 24)
        CFI Block cfiCond10 Using cfiCommon0
        CFI (cfiCond10) NoFunction
        CFI (cfiCond10) Conditional ??CrossCallReturnLabel_51
        CFI (cfiCond10) R6 load(1, XDATA, add(CFA_XSP16, literal(-9)))
        CFI (cfiCond10) VB load(1, XDATA, add(CFA_XSP16, literal(-8)))
        CFI (cfiCond10) V0 load(1, XDATA, add(CFA_XSP16, literal(-7)))
        CFI (cfiCond10) R7 load(1, XDATA, add(CFA_XSP16, literal(-6)))
        CFI (cfiCond10) ?RET_LOW load(1, XDATA, add(CFA_XSP16, literal(-5)))
        CFI (cfiCond10) ?RET_HIGH load(1, XDATA, add(CFA_XSP16, literal(-4)))
        CFI (cfiCond10) ?BRET_EXT load(1, XDATA, add(CFA_XSP16, literal(-3)))
        CFI (cfiCond10) DPL0 load(1, XDATA, add(CFA_XSP16, literal(-2)))
        CFI (cfiCond10) DPH0 load(1, XDATA, add(CFA_XSP16, literal(-1)))
        CFI (cfiCond10) CFA_SP SP+0
        CFI (cfiCond10) CFA_XSP16 add(XSP16, 9)
        CFI Block cfiCond11 Using cfiCommon0
        CFI (cfiCond11) NoFunction
        CFI (cfiCond11) Conditional ??CrossCallReturnLabel_52
        CFI (cfiCond11) R6 load(1, XDATA, add(CFA_XSP16, literal(-9)))
        CFI (cfiCond11) VB load(1, XDATA, add(CFA_XSP16, literal(-8)))
        CFI (cfiCond11) V0 load(1, XDATA, add(CFA_XSP16, literal(-7)))
        CFI (cfiCond11) R7 load(1, XDATA, add(CFA_XSP16, literal(-6)))
        CFI (cfiCond11) ?RET_LOW load(1, XDATA, add(CFA_XSP16, literal(-5)))
        CFI (cfiCond11) ?RET_HIGH load(1, XDATA, add(CFA_XSP16, literal(-4)))
        CFI (cfiCond11) ?BRET_EXT load(1, XDATA, add(CFA_XSP16, literal(-3)))
        CFI (cfiCond11) DPL0 load(1, XDATA, add(CFA_XSP16, literal(-2)))
        CFI (cfiCond11) DPH0 load(1, XDATA, add(CFA_XSP16, literal(-1)))
        CFI (cfiCond11) CFA_SP SP+0
        CFI (cfiCond11) CFA_XSP16 add(XSP16, 9)
        CFI Block cfiPicker12 Using cfiCommon1
        CFI (cfiPicker12) NoFunction
        CFI (cfiPicker12) Picker
        LCALL   ?Subroutine31 & 0xFFFF
??CrossCallReturnLabel_105:
        MOVX    A,@DPTR
        RET
        CFI EndBlock cfiCond8
        CFI EndBlock cfiCond9
        CFI EndBlock cfiCond10
        CFI EndBlock cfiCond11
        CFI EndBlock cfiPicker12
//  216 
//  217 /***************************************************************************************************
//  218  * @fn      MT_AfCommandProcessing
//  219  *
//  220  * @brief   Process all the AF commands that are issued by test tool
//  221  *
//  222  * @param   pBuf - pointer to the received buffer
//  223  *
//  224  * @return  status
//  225  ***************************************************************************************************/

        RSEG BANKED_CODE:CODE:NOROOT(0)
//  226 uint8 MT_AfCommandProcessing(uint8 *pBuf)
MT_AfCommandProcessing:
        CFI Block cfiBlock13 Using cfiCommon0
        CFI Function MT_AfCommandProcessing
//  227 {
        FUNCALL MT_AfCommandProcessing, MT_AfRegister
        LOCFRAME ISTACK, 0, STACK
        LOCFRAME PSTACK, 0, STACK
        LOCFRAME XSTACK, 9, STACK
        LOCFRAME IOVERLAY, 0, STATIC
        LOCFRAME DOVERLAY, 0, STATIC
        ARGFRAME ISTACK, 0, STACK
        ARGFRAME PSTACK, 0, STACK
        ARGFRAME XSTACK, 9, STACK
        ARGFRAME IOVERLAY, 0, STATIC
        ARGFRAME DOVERLAY, 0, STATIC
        FUNCALL MT_AfCommandProcessing, MT_AfDataRequest
        LOCFRAME ISTACK, 0, STACK
        LOCFRAME PSTACK, 0, STACK
        LOCFRAME XSTACK, 9, STACK
        LOCFRAME IOVERLAY, 0, STATIC
        LOCFRAME DOVERLAY, 0, STATIC
        ARGFRAME ISTACK, 0, STACK
        ARGFRAME PSTACK, 0, STACK
        ARGFRAME XSTACK, 9, STACK
        ARGFRAME IOVERLAY, 0, STATIC
        ARGFRAME DOVERLAY, 0, STATIC
        FUNCALL MT_AfCommandProcessing, MT_AfDataRetrieve
        LOCFRAME ISTACK, 0, STACK
        LOCFRAME PSTACK, 0, STACK
        LOCFRAME XSTACK, 9, STACK
        LOCFRAME IOVERLAY, 0, STATIC
        LOCFRAME DOVERLAY, 0, STATIC
        ARGFRAME ISTACK, 0, STACK
        ARGFRAME PSTACK, 0, STACK
        ARGFRAME XSTACK, 9, STACK
        ARGFRAME IOVERLAY, 0, STATIC
        ARGFRAME DOVERLAY, 0, STATIC
        FUNCALL MT_AfCommandProcessing, MT_AfDataStore
        LOCFRAME ISTACK, 0, STACK
        LOCFRAME PSTACK, 0, STACK
        LOCFRAME XSTACK, 9, STACK
        LOCFRAME IOVERLAY, 0, STATIC
        LOCFRAME DOVERLAY, 0, STATIC
        ARGFRAME ISTACK, 0, STACK
        ARGFRAME PSTACK, 0, STACK
        ARGFRAME XSTACK, 9, STACK
        ARGFRAME IOVERLAY, 0, STATIC
        ARGFRAME DOVERLAY, 0, STATIC
        MOV     A,#-0x9
        LCALL   ?BANKED_ENTER_XDATA
        CFI DPH0 load(1, XDATA, add(CFA_XSP16, literal(-1)))
        CFI DPL0 load(1, XDATA, add(CFA_XSP16, literal(-2)))
        CFI ?BRET_EXT load(1, XDATA, add(CFA_XSP16, literal(-3)))
        CFI ?RET_HIGH load(1, XDATA, add(CFA_XSP16, literal(-4)))
        CFI ?RET_LOW load(1, XDATA, add(CFA_XSP16, literal(-5)))
        CFI R7 load(1, XDATA, add(CFA_XSP16, literal(-6)))
        CFI V0 load(1, XDATA, add(CFA_XSP16, literal(-7)))
        CFI VB load(1, XDATA, add(CFA_XSP16, literal(-8)))
        CFI R6 load(1, XDATA, add(CFA_XSP16, literal(-9)))
        CFI CFA_SP SP+0
        CFI CFA_XSP16 add(XSP16, 9)
        ; Saved register size: 9
        ; Auto size: 0
//  228   uint8 status = MT_RPC_SUCCESS;
        MOV     R6,#0x0
//  229 
//  230   switch (pBuf[MT_RPC_POS_CMD1])
        MOV     DPL,R2
        MOV     DPH,R3
        INC     DPTR
        INC     DPTR
        MOVX    A,@DPTR
        LCALL   ?UC_SWITCH_SPARSE
`?<Jumptable for MT_AfCommandProcessing>_0`:
        DATA
        DB        1
        DB        1
        DB        2
        DW        ??MT_AfCommandProcessing_0
        DB        3
        DB        0
        DW        ??MT_AfCommandProcessing_1
        DB        17
        DW        ??MT_AfCommandProcessing_2
        DB        18
        DW        ??MT_AfCommandProcessing_3
        DW        ??MT_AfCommandProcessing_4
        CODE
//  231   {
//  232     case MT_AF_REGISTER:
//  233       MT_AfRegister(pBuf);
??MT_AfCommandProcessing_1:
        ; Setup parameters for call to function MT_AfRegister
        LCALL   ??MT_AfRegister?relay
        SJMP    ??MT_AfCommandProcessing_5
//  234       break;
//  235 
//  236     case MT_AF_DATA_REQUEST:
//  237     case MT_AF_DATA_REQUEST_EXT:
//  238       MT_AfDataRequest(pBuf);
??MT_AfCommandProcessing_0:
        ; Setup parameters for call to function MT_AfDataRequest
        LCALL   ??MT_AfDataRequest?relay
        SJMP    ??MT_AfCommandProcessing_5
//  239       break;
//  240 
//  241     case MT_AF_DATA_RETRIEVE:
//  242       MT_AfDataRetrieve(pBuf);
??MT_AfCommandProcessing_3:
        ; Setup parameters for call to function MT_AfDataRetrieve
        LCALL   ??MT_AfDataRetrieve?relay
        SJMP    ??MT_AfCommandProcessing_5
//  243       break;
//  244       
//  245     case MT_AF_DATA_STORE:
//  246       MT_AfDataStore(pBuf);
??MT_AfCommandProcessing_2:
        ; Setup parameters for call to function MT_AfDataStore
        LCALL   ??MT_AfDataStore?relay
        SJMP    ??MT_AfCommandProcessing_5
//  247       break;
//  248       
//  249 #if defined ( ZIGBEE_SOURCE_ROUTING )
//  250     case MT_AF_DATA_REQUEST_SRCRTG:
//  251       MT_AfDataRequestSrcRtg(pBuf);
//  252       break;
//  253 #endif
//  254       
//  255 #if defined INTER_PAN
//  256     case MT_AF_INTER_PAN_CTL:
//  257       MT_AfInterPanCtl(pBuf);
//  258       break; 
//  259 #endif
//  260       
//  261     default:
//  262       status = MT_RPC_ERR_COMMAND_ID;
??MT_AfCommandProcessing_4:
        INC     R6
        INC     R6
//  263       break;
//  264   }
//  265 
//  266   return status;
??MT_AfCommandProcessing_5:
        MOV     A,R6
        MOV     R1,A
        SJMP    ?Subroutine0
        CFI EndBlock cfiBlock13
//  267 }
//  268 
//  269 /***************************************************************************************************
//  270  * @fn      MT_AfRegister
//  271  *
//  272  * @brief   Process AF Register command
//  273  *
//  274  * @param   pBuf - pointer to the received buffer
//  275  *
//  276  * @return  none
//  277  ***************************************************************************************************/

        RSEG BANKED_CODE:CODE:NOROOT(0)
//  278 void MT_AfRegister(uint8 *pBuf)
MT_AfRegister:
        CFI Block cfiBlock14 Using cfiCommon0
        CFI Function MT_AfRegister
//  279 {
        FUNCALL MT_AfRegister, osal_mem_alloc
        LOCFRAME ISTACK, 0, STACK
        LOCFRAME PSTACK, 0, STACK
        LOCFRAME XSTACK, 15, STACK
        LOCFRAME IOVERLAY, 0, STATIC
        LOCFRAME DOVERLAY, 0, STATIC
        ARGFRAME ISTACK, 0, STACK
        ARGFRAME PSTACK, 0, STACK
        ARGFRAME XSTACK, 15, STACK
        ARGFRAME IOVERLAY, 0, STATIC
        ARGFRAME DOVERLAY, 0, STATIC
        FUNCALL MT_AfRegister, MT_BuildEndpointDesc
        LOCFRAME ISTACK, 0, STACK
        LOCFRAME PSTACK, 0, STACK
        LOCFRAME XSTACK, 15, STACK
        LOCFRAME IOVERLAY, 0, STATIC
        LOCFRAME DOVERLAY, 0, STATIC
        ARGFRAME ISTACK, 0, STACK
        ARGFRAME PSTACK, 0, STACK
        ARGFRAME XSTACK, 15, STACK
        ARGFRAME IOVERLAY, 0, STATIC
        ARGFRAME DOVERLAY, 0, STATIC
        FUNCALL MT_AfRegister, afRegister
        LOCFRAME ISTACK, 0, STACK
        LOCFRAME PSTACK, 0, STACK
        LOCFRAME XSTACK, 15, STACK
        LOCFRAME IOVERLAY, 0, STATIC
        LOCFRAME DOVERLAY, 0, STATIC
        ARGFRAME ISTACK, 0, STACK
        ARGFRAME PSTACK, 0, STACK
        ARGFRAME XSTACK, 15, STACK
        ARGFRAME IOVERLAY, 0, STATIC
        ARGFRAME DOVERLAY, 0, STATIC
        FUNCALL MT_AfRegister, osal_mem_free
        LOCFRAME ISTACK, 0, STACK
        LOCFRAME PSTACK, 0, STACK
        LOCFRAME XSTACK, 15, STACK
        LOCFRAME IOVERLAY, 0, STATIC
        LOCFRAME DOVERLAY, 0, STATIC
        ARGFRAME ISTACK, 0, STACK
        ARGFRAME PSTACK, 0, STACK
        ARGFRAME XSTACK, 15, STACK
        ARGFRAME IOVERLAY, 0, STATIC
        ARGFRAME DOVERLAY, 0, STATIC
        FUNCALL MT_AfRegister, MT_BuildAndSendZToolResponse
        LOCFRAME ISTACK, 0, STACK
        LOCFRAME PSTACK, 0, STACK
        LOCFRAME XSTACK, 15, STACK
        LOCFRAME IOVERLAY, 0, STATIC
        LOCFRAME DOVERLAY, 0, STATIC
        ARGFRAME ISTACK, 0, STACK
        ARGFRAME PSTACK, 0, STACK
        ARGFRAME XSTACK, 15, STACK
        ARGFRAME IOVERLAY, 0, STATIC
        ARGFRAME DOVERLAY, 0, STATIC
        MOV     A,#-0xe
        LCALL   ?BANKED_ENTER_XDATA
        CFI DPH0 load(1, XDATA, add(CFA_XSP16, literal(-1)))
        CFI DPL0 load(1, XDATA, add(CFA_XSP16, literal(-2)))
        CFI ?BRET_EXT load(1, XDATA, add(CFA_XSP16, literal(-3)))
        CFI ?RET_HIGH load(1, XDATA, add(CFA_XSP16, literal(-4)))
        CFI ?RET_LOW load(1, XDATA, add(CFA_XSP16, literal(-5)))
        CFI R7 load(1, XDATA, add(CFA_XSP16, literal(-6)))
        CFI V5 load(1, XDATA, add(CFA_XSP16, literal(-7)))
        CFI V4 load(1, XDATA, add(CFA_XSP16, literal(-8)))
        CFI V3 load(1, XDATA, add(CFA_XSP16, literal(-9)))
        CFI V2 load(1, XDATA, add(CFA_XSP16, literal(-10)))
        CFI V1 load(1, XDATA, add(CFA_XSP16, literal(-11)))
        CFI V0 load(1, XDATA, add(CFA_XSP16, literal(-12)))
        CFI VB load(1, XDATA, add(CFA_XSP16, literal(-13)))
        CFI R6 load(1, XDATA, add(CFA_XSP16, literal(-14)))
        CFI CFA_SP SP+0
        CFI CFA_XSP16 add(XSP16, 14)
        ; Saved register size: 14
        ; Auto size: 1
        MOV     A,#-0x1
        LCALL   ?ALLOC_XSTACK8
        CFI CFA_XSP16 add(XSP16, 15)
        MOV     ?V0 + 0,R2
        MOV     ?V0 + 1,R3
//  280   uint8 cmdId;
//  281   uint8 retValue = ZMemError;
        MOV     A,#0x10
        LCALL   ?Subroutine21 & 0xFFFF
//  282   endPointDesc_t *epDesc;
//  283 
//  284   /* parse header */
//  285   cmdId = pBuf[MT_RPC_POS_CMD1];
??CrossCallReturnLabel_30:
        MOV     ?V0 + 2,A
//  286   pBuf += MT_RPC_FRAME_HDR_SZ;
//  287 
//  288   epDesc = (endPointDesc_t *)osal_mem_alloc(sizeof(endPointDesc_t));
        ; Setup parameters for call to function osal_mem_alloc
        MOV     R2,#0x6
        MOV     R3,#0x0
        LCALL   ??osal_mem_alloc?relay
        MOV     ?V0 + 4,R2
        MOV     ?V0 + 5,R3
        MOV     R6,?V0 + 4
        MOV     R7,?V0 + 5
//  289   if ( epDesc )
        MOV     A,R6
        JNZ     ??MT_AfRegister_0
        MOV     A,R7
??MT_AfRegister_0:
        JZ      ??MT_AfRegister_1
//  290   {
//  291     epDesc->task_id = &MT_TaskID;
        MOV     DPL,R6
        MOV     DPH,R7
        INC     DPTR
        MOV     A,#(MT_TaskID & 0xff)
        MOVX    @DPTR,A
        INC     DPTR
        MOV     A,#((MT_TaskID >> 8) & 0xff)
        MOVX    @DPTR,A
//  292     retValue = MT_BuildEndpointDesc( pBuf, epDesc );
        ; Setup parameters for call to function MT_BuildEndpointDesc
        MOV     A,R6
        MOV     R4,A
        MOV     A,R7
        MOV     R5,A
        MOV     A,?V0 + 0
        ADD     A,#0x3
        MOV     R2,A
        MOV     A,?V0 + 1
        ADDC    A,#0x0
        MOV     R3,A
        LCALL   ??MT_BuildEndpointDesc?relay
        MOV     A,R1
        MOV     DPL,?XSP + 0
        MOV     DPH,?XSP + 1
        MOVX    @DPTR,A
//  293     if ( retValue == ZSuccess )
        JNZ     ??MT_AfRegister_2
//  294     {
//  295       retValue = afRegister( epDesc );
        ; Setup parameters for call to function afRegister
        MOV     A,R6
        MOV     R2,A
        MOV     A,R7
        MOV     R3,A
        LCALL   ??afRegister?relay
        MOV     A,R1
        MOV     DPL,?XSP + 0
        MOV     DPH,?XSP + 1
        MOVX    @DPTR,A
//  296     }
//  297 
//  298     if ( retValue != ZSuccess )
??MT_AfRegister_2:
        MOVX    A,@DPTR
        JZ      ??MT_AfRegister_1
//  299     {
//  300       osal_mem_free( epDesc );
        ; Setup parameters for call to function osal_mem_free
        MOV     A,R6
        MOV     R2,A
        MOV     A,R7
        MOV     R3,A
        LCALL   ??osal_mem_free?relay
//  301     }
//  302   }
//  303 
//  304   /* Build and send back the response */
//  305   MT_BuildAndSendZToolResponse(((uint8)MT_RPC_CMD_SRSP | (uint8)MT_RPC_SYS_AF), cmdId, 1, &retValue);
??MT_AfRegister_1:
        ; Setup parameters for call to function MT_BuildAndSendZToolResponse
        MOV     DPL,?XSP + 0
        MOV     DPH,?XSP + 1
        MOV     R4,DPL
        MOV     R5,DPH
        MOV     R3,#0x1
        MOV     R2,?V0 + 2
        CFI EndBlock cfiBlock14
        REQUIRE ?Subroutine1
        ; // Fall through to label ?Subroutine1
//  306 }

        RSEG BANKED_CODE:CODE:NOROOT(0)
?Subroutine1:
        CFI Block cfiBlock15 Using cfiCommon0
        CFI NoFunction
        CFI CFA_SP SP+0
        CFI CFA_XSP16 add(XSP16, 15)
        CFI VB load(1, XDATA, add(CFA_XSP16, literal(-13)))
        CFI DPL0 load(1, XDATA, add(CFA_XSP16, literal(-2)))
        CFI DPH0 load(1, XDATA, add(CFA_XSP16, literal(-1)))
        CFI R6 load(1, XDATA, add(CFA_XSP16, literal(-14)))
        CFI R7 load(1, XDATA, add(CFA_XSP16, literal(-6)))
        CFI V0 load(1, XDATA, add(CFA_XSP16, literal(-12)))
        CFI V1 load(1, XDATA, add(CFA_XSP16, literal(-11)))
        CFI V2 load(1, XDATA, add(CFA_XSP16, literal(-10)))
        CFI V3 load(1, XDATA, add(CFA_XSP16, literal(-9)))
        CFI V4 load(1, XDATA, add(CFA_XSP16, literal(-8)))
        CFI V5 load(1, XDATA, add(CFA_XSP16, literal(-7)))
        CFI ?BRET_EXT load(1, XDATA, add(CFA_XSP16, literal(-3)))
        CFI ?RET_HIGH load(1, XDATA, add(CFA_XSP16, literal(-4)))
        CFI ?RET_LOW load(1, XDATA, add(CFA_XSP16, literal(-5)))
        MOV     R1,#0x64
        LCALL   ??MT_BuildAndSendZToolResponse?relay
        MOV     A,#0x1
        LCALL   ?DEALLOC_XSTACK8
        CFI CFA_XSP16 add(XSP16, 14)
        MOV     R7,#0x6
        LJMP    ?BANKED_LEAVE_XDATA
        CFI EndBlock cfiBlock15
//  307 
//  308 /***************************************************************************************************
//  309  * @fn      MT_AfDataRequest
//  310  *
//  311  * @brief   Process AF Register command
//  312  *
//  313  * @param   pBuf - pointer to the received buffer
//  314  *
//  315  * @return  none
//  316  ***************************************************************************************************/

        RSEG BANKED_CODE:CODE:NOROOT(0)
//  317 void MT_AfDataRequest(uint8 *pBuf)
MT_AfDataRequest:
        CFI Block cfiBlock16 Using cfiCommon0
        CFI Function MT_AfDataRequest
//  318 {
        FUNCALL MT_AfDataRequest, osal_memcpy
        LOCFRAME ISTACK, 0, STACK
        LOCFRAME PSTACK, 0, STACK
        LOCFRAME XSTACK, 38, STACK
        LOCFRAME IOVERLAY, 0, STATIC
        LOCFRAME DOVERLAY, 0, STATIC
        ARGFRAME ISTACK, 0, STACK
        ARGFRAME PSTACK, 0, STACK
        ARGFRAME XSTACK, 38, STACK
        ARGFRAME IOVERLAY, 0, STATIC
        ARGFRAME DOVERLAY, 0, STATIC
        FUNCALL MT_AfDataRequest, afFindEndPointDesc
        LOCFRAME ISTACK, 0, STACK
        LOCFRAME PSTACK, 0, STACK
        LOCFRAME XSTACK, 35, STACK
        LOCFRAME IOVERLAY, 0, STATIC
        LOCFRAME DOVERLAY, 0, STATIC
        ARGFRAME ISTACK, 0, STACK
        ARGFRAME PSTACK, 0, STACK
        ARGFRAME XSTACK, 35, STACK
        ARGFRAME IOVERLAY, 0, STATIC
        ARGFRAME DOVERLAY, 0, STATIC
        FUNCALL MT_AfDataRequest, osal_mem_alloc
        LOCFRAME ISTACK, 0, STACK
        LOCFRAME PSTACK, 0, STACK
        LOCFRAME XSTACK, 35, STACK
        LOCFRAME IOVERLAY, 0, STATIC
        LOCFRAME DOVERLAY, 0, STATIC
        ARGFRAME ISTACK, 0, STACK
        ARGFRAME PSTACK, 0, STACK
        ARGFRAME XSTACK, 35, STACK
        ARGFRAME IOVERLAY, 0, STATIC
        ARGFRAME DOVERLAY, 0, STATIC
        FUNCALL MT_AfDataRequest, osal_memcpy
        LOCFRAME ISTACK, 0, STACK
        LOCFRAME PSTACK, 0, STACK
        LOCFRAME XSTACK, 38, STACK
        LOCFRAME IOVERLAY, 0, STATIC
        LOCFRAME DOVERLAY, 0, STATIC
        ARGFRAME ISTACK, 0, STACK
        ARGFRAME PSTACK, 0, STACK
        ARGFRAME XSTACK, 38, STACK
        ARGFRAME IOVERLAY, 0, STATIC
        ARGFRAME DOVERLAY, 0, STATIC
        FUNCALL MT_AfDataRequest, osal_start_timerEx
        LOCFRAME ISTACK, 0, STACK
        LOCFRAME PSTACK, 0, STACK
        LOCFRAME XSTACK, 35, STACK
        LOCFRAME IOVERLAY, 0, STATIC
        LOCFRAME DOVERLAY, 0, STATIC
        ARGFRAME ISTACK, 0, STACK
        ARGFRAME PSTACK, 0, STACK
        ARGFRAME XSTACK, 35, STACK
        ARGFRAME IOVERLAY, 0, STATIC
        ARGFRAME DOVERLAY, 0, STATIC
        FUNCALL MT_AfDataRequest, osal_set_event
        LOCFRAME ISTACK, 0, STACK
        LOCFRAME PSTACK, 0, STACK
        LOCFRAME XSTACK, 35, STACK
        LOCFRAME IOVERLAY, 0, STATIC
        LOCFRAME DOVERLAY, 0, STATIC
        ARGFRAME ISTACK, 0, STACK
        ARGFRAME PSTACK, 0, STACK
        ARGFRAME XSTACK, 35, STACK
        ARGFRAME IOVERLAY, 0, STATIC
        ARGFRAME DOVERLAY, 0, STATIC
        FUNCALL MT_AfDataRequest, AF_DataRequest
        LOCFRAME ISTACK, 0, STACK
        LOCFRAME PSTACK, 0, STACK
        LOCFRAME XSTACK, 44, STACK
        LOCFRAME IOVERLAY, 0, STATIC
        LOCFRAME DOVERLAY, 0, STATIC
        ARGFRAME ISTACK, 0, STACK
        ARGFRAME PSTACK, 0, STACK
        ARGFRAME XSTACK, 44, STACK
        ARGFRAME IOVERLAY, 0, STATIC
        ARGFRAME DOVERLAY, 0, STATIC
        FUNCALL MT_AfDataRequest, MT_BuildAndSendZToolResponse
        LOCFRAME ISTACK, 0, STACK
        LOCFRAME PSTACK, 0, STACK
        LOCFRAME XSTACK, 35, STACK
        LOCFRAME IOVERLAY, 0, STATIC
        LOCFRAME DOVERLAY, 0, STATIC
        ARGFRAME ISTACK, 0, STACK
        ARGFRAME PSTACK, 0, STACK
        ARGFRAME XSTACK, 35, STACK
        ARGFRAME IOVERLAY, 0, STATIC
        ARGFRAME DOVERLAY, 0, STATIC
        MOV     A,#-0x15
        LCALL   ?BANKED_ENTER_XDATA
        CFI DPH0 load(1, XDATA, add(CFA_XSP16, literal(-1)))
        CFI DPL0 load(1, XDATA, add(CFA_XSP16, literal(-2)))
        CFI ?BRET_EXT load(1, XDATA, add(CFA_XSP16, literal(-3)))
        CFI ?RET_HIGH load(1, XDATA, add(CFA_XSP16, literal(-4)))
        CFI ?RET_LOW load(1, XDATA, add(CFA_XSP16, literal(-5)))
        CFI R7 load(1, XDATA, add(CFA_XSP16, literal(-6)))
        CFI V12 load(1, XDATA, add(CFA_XSP16, literal(-7)))
        CFI V11 load(1, XDATA, add(CFA_XSP16, literal(-8)))
        CFI V10 load(1, XDATA, add(CFA_XSP16, literal(-9)))
        CFI V9 load(1, XDATA, add(CFA_XSP16, literal(-10)))
        CFI V8 load(1, XDATA, add(CFA_XSP16, literal(-11)))
        CFI V7 load(1, XDATA, add(CFA_XSP16, literal(-12)))
        CFI V6 load(1, XDATA, add(CFA_XSP16, literal(-13)))
        CFI V5 load(1, XDATA, add(CFA_XSP16, literal(-14)))
        CFI V4 load(1, XDATA, add(CFA_XSP16, literal(-15)))
        CFI V3 load(1, XDATA, add(CFA_XSP16, literal(-16)))
        CFI V2 load(1, XDATA, add(CFA_XSP16, literal(-17)))
        CFI V1 load(1, XDATA, add(CFA_XSP16, literal(-18)))
        CFI V0 load(1, XDATA, add(CFA_XSP16, literal(-19)))
        CFI VB load(1, XDATA, add(CFA_XSP16, literal(-20)))
        CFI R6 load(1, XDATA, add(CFA_XSP16, literal(-21)))
        CFI CFA_SP SP+0
        CFI CFA_XSP16 add(XSP16, 21)
        ; Saved register size: 21
        ; Auto size: 14
        MOV     A,#-0xe
        LCALL   ?ALLOC_XSTACK8
        CFI CFA_XSP16 add(XSP16, 35)
//  319   #define MT_AF_REQ_MSG_LEN  10
//  320   #define MT_AF_REQ_MSG_EXT  10
//  321 
//  322   endPointDesc_t *epDesc;
//  323   afAddrType_t dstAddr;
//  324   cId_t cId;
//  325   uint8 transId, txOpts, radius;
//  326   uint8 cmd0, cmd1;
//  327   uint8 retValue = ZFailure;
        MOV     A,#0x1
        MOV     DPL,?XSP + 0
        MOV     DPH,?XSP + 1
        LCALL   ?Subroutine22 & 0xFFFF
//  328   uint16 dataLen, tempLen;
//  329 
//  330   /* Parse header */
//  331   cmd0 = pBuf[MT_RPC_POS_CMD0];
??CrossCallReturnLabel_32:
        MOVX    A,@DPTR
        MOV     ?V0 + 12,A
//  332   cmd1 = pBuf[MT_RPC_POS_CMD1];
        MOV     DPL,R2
        MOV     DPH,R3
        INC     DPTR
        INC     DPTR
        MOVX    A,@DPTR
        MOV     ?V0 + 11,A
//  333   pBuf += MT_RPC_FRAME_HDR_SZ;
        MOV     A,R2
        ADD     A,#0x3
        MOV     ?V0 + 2,A
        MOV     A,R3
        LCALL   ?Subroutine33 & 0xFFFF
//  334 
//  335   if (cmd1 == MT_AF_DATA_REQUEST_EXT)
??CrossCallReturnLabel_56:
        INC     DPTR
        MOV     R0,DPL
        MOV     R1,DPH
        MOV     A,#0x2
        XRL     A,?V0 + 11
        JNZ     ??MT_AfDataRequest_0
//  336   {
//  337     dstAddr.addrMode = (afAddrMode_t)*pBuf++;
        MOV     DPL,?V0 + 2
        MOV     DPH,?V0 + 3
        MOVX    A,@DPTR
        MOV     R2,A
        MOV     A,#0xa
        LCALL   ?XSTACK_DISP0_8
        MOV     A,R2
        MOVX    @DPTR,A
        MOV     ?V0 + 2,R0
        MOV     ?V0 + 3,R1
//  338 
//  339     if (dstAddr.addrMode == afAddr64Bit)
        MOV     A,#0x3
        XRL     A,R2
        JNZ     ??MT_AfDataRequest_1
//  340     {
//  341       (void)osal_memcpy(dstAddr.addr.extAddr, pBuf, Z_EXTADDR_LEN);
        ; Setup parameters for call to function osal_memcpy
        MOV     ?V0 + 4,R0
        MOV     ?V0 + 5,R1
        MOV     ?V0 + 6,#0x0
        MOV     R0,#?V0 + 4
        LCALL   ?PUSH_XSTACK_I_THREE
        CFI CFA_XSP16 add(XSP16, 38)
        MOV     R4,#0x8
        MOV     R5,#0x0
        MOV     A,#0x5
        LCALL   ?XSTACK_DISP0_8
        MOV     R2,DPL
        MOV     R3,DPH
        LCALL   ??Subroutine42_0 & 0xFFFF
//  342     }
??CrossCallReturnLabel_78:
        LCALL   ?DEALLOC_XSTACK8
        CFI CFA_XSP16 add(XSP16, 35)
        SJMP    ??CrossCallReturnLabel_37
//  343     else
//  344     {
//  345       dstAddr.addr.shortAddr = BUILD_UINT16(pBuf[0], pBuf[1]);
??MT_AfDataRequest_1:
        MOV     DPL,R0
        MOV     DPH,R1
        LCALL   ??Subroutine43_0 & 0xFFFF
//  346     }
??CrossCallReturnLabel_84:
        MOV     R0,A
        MOV     A,#0x2
        LCALL   ?XSTACK_DISP0_8
        LCALL   ?Subroutine24 & 0xFFFF
//  347     pBuf += Z_EXTADDR_LEN;
??CrossCallReturnLabel_37:
        MOV     A,?V0 + 2
        ADD     A,#0x8
        LCALL   ??Subroutine37_0 & 0xFFFF
//  348 
//  349     dstAddr.endPoint = *pBuf++;
??CrossCallReturnLabel_55:
        PUSH    A
        CFI CFA_SP SP+-1
        MOV     A,#0xb
        LCALL   ?XSTACK_DISP0_8
        POP     A
        CFI CFA_SP SP+0
        MOVX    @DPTR,A
        LCALL   ?Subroutine9 & 0xFFFF
//  350     dstAddr.panId = BUILD_UINT16(pBuf[0], pBuf[1]);
??CrossCallReturnLabel_82:
        MOV     R0,A
        MOV     A,#0xc
        LCALL   ?XSTACK_DISP0_8
        LCALL   ?Subroutine24 & 0xFFFF
//  351     pBuf += 2;
??CrossCallReturnLabel_38:
        LCALL   ?Subroutine27 & 0xFFFF
//  352   }
??CrossCallReturnLabel_45:
        SJMP    ??MT_AfDataRequest_2
//  353   else
//  354   {
//  355     /* Destination address */
//  356     dstAddr.addrMode = afAddr16Bit;
??MT_AfDataRequest_0:
        MOV     A,#0xa
        LCALL   ?XSTACK_DISP0_8
        MOV     A,#0x2
        MOVX    @DPTR,A
//  357     dstAddr.addr.shortAddr = BUILD_UINT16(pBuf[0], pBuf[1]);
        MOV     DPL,?V0 + 2
        MOV     DPH,?V0 + 3
        MOVX    A,@DPTR
        MOV     R2,A
        MOV     DPL,R0
        MOV     DPH,R1
        MOVX    A,@DPTR
        MOV     R1,A
        MOV     A,R2
        MOV     R0,A
        MOV     A,#0x2
        LCALL   ?XSTACK_DISP0_8
        LCALL   ?Subroutine24 & 0xFFFF
//  358     pBuf += 2;
??CrossCallReturnLabel_39:
        LCALL   ?Subroutine14 & 0xFFFF
//  359 
//  360     /* Destination endpoint */
//  361     dstAddr.endPoint = *pBuf++;
??CrossCallReturnLabel_53:
        PUSH    A
        CFI CFA_SP SP+-1
        MOV     A,#0xb
        LCALL   ?XSTACK_DISP0_8
        POP     A
        CFI CFA_SP SP+0
        LCALL   ?Subroutine25 & 0xFFFF
??CrossCallReturnLabel_43:
        MOV     ?V0 + 2,DPL
        MOV     ?V0 + 3,DPH
//  362     dstAddr.panId = 0;
        MOV     A,#0xc
        LCALL   ?XSTACK_DISP0_8
        CLR     A
        MOVX    @DPTR,A
        INC     DPTR
        MOVX    @DPTR,A
//  363   }
//  364 
//  365   /* Source endpoint */
//  366   epDesc = afFindEndPointDesc(*pBuf++);
??MT_AfDataRequest_2:
        ; Setup parameters for call to function afFindEndPointDesc
        MOV     DPL,?V0 + 2
        MOV     DPH,?V0 + 3
        MOVX    A,@DPTR
        MOV     R1,A
        LCALL   ??afFindEndPointDesc?relay
        MOV     ?V0 + 6,R2
        MOV     ?V0 + 7,R3
        LCALL   ?Subroutine9 & 0xFFFF
//  367 
//  368   /* ClusterId */
//  369   cId = BUILD_UINT16(pBuf[0], pBuf[1]);
??CrossCallReturnLabel_83:
        MOV     ?V0 + 0,A
        MOV     A,R1
        MOV     ?V0 + 1,A
//  370   pBuf +=2;
        LCALL   ?Subroutine14 & 0xFFFF
//  371 
//  372   /* TransId */
//  373   transId = *pBuf++;
??CrossCallReturnLabel_54:
        PUSH    A
        CFI CFA_SP SP+-1
        MOV     A,#0x1
        LCALL   ?XSTACK_DISP0_8
        POP     A
        CFI CFA_SP SP+0
        LCALL   ?Subroutine25 & 0xFFFF
//  374 
//  375   /* TxOption */
//  376   txOpts = *pBuf++;
??CrossCallReturnLabel_44:
        LCALL   ??Subroutine45_0 & 0xFFFF
//  377 
//  378   /* Radius */
//  379   radius = *pBuf++;
??CrossCallReturnLabel_92:
        INC     DPTR
        MOV     ?V0 + 2,DPL
        MOV     ?V0 + 3,DPH
//  380 
//  381   /* Length */
//  382   if (cmd1 == MT_AF_DATA_REQUEST_EXT)
        INC     DPTR
        MOV     R0,DPL
        MOV     R1,DPH
        MOV     DPL,?V0 + 2
        MOV     DPH,?V0 + 3
        MOVX    A,@DPTR
        MOV     ?V0 + 8,A
        MOV     A,#0x2
        XRL     A,?V0 + 11
        JNZ     ??MT_AfDataRequest_3
//  383   {
//  384     dataLen = BUILD_UINT16(pBuf[0], pBuf[1]);
        MOV     DPL,R0
        MOV     DPH,R1
        MOVX    A,@DPTR
        MOV     R6,?V0 + 8
        MOV     R7,A
//  385     tempLen = dataLen + MT_AF_REQ_MSG_LEN + MT_AF_REQ_MSG_EXT;
        MOV     A,#0x14
        ADD     A,R6
        MOV     R0,A
        CLR     A
        ADDC    A,R7
        MOV     R1,A
//  386     pBuf += 2;
        LCALL   ?Subroutine27 & 0xFFFF
//  387   }
??CrossCallReturnLabel_46:
        SJMP    ??MT_AfDataRequest_4
//  388   else
//  389   {
//  390     dataLen = *pBuf++;
??MT_AfDataRequest_3:
        MOV     DPL,?V0 + 8
        MOV     R6,DPL
        MOV     R7,#0x0
        MOV     ?V0 + 2,R0
        MOV     ?V0 + 3,R1
//  391     tempLen = dataLen + MT_AF_REQ_MSG_LEN;
        MOV     A,#0xa
        ADD     A,R6
        MOV     R0,A
        CLR     A
        ADDC    A,#0x0
        MOV     R1,A
//  392   }
//  393 
//  394   if ( epDesc == NULL )
??MT_AfDataRequest_4:
        MOV     A,?V0 + 6
        JNZ     ??MT_AfDataRequest_5
        MOV     A,R3
??MT_AfDataRequest_5:
        JNZ     ??MT_AfDataRequest_6
//  395   {
//  396     retValue = afStatus_INVALID_PARAMETER;
??MT_AfDataRequest_7:
        MOV     A,#0x2
        LJMP    ??MT_AfDataRequest_8 & 0xFFFF
//  397   }
//  398   else if (tempLen > (uint16)MT_RPC_DATA_MAX)
??MT_AfDataRequest_6:
        CLR     C
        MOV     A,R0
        SUBB    A,#-0x5
        MOV     A,R1
        SUBB    A,#0x0
        JNC     $+5
        LJMP    ??MT_AfDataRequest_9 & 0xFFFF
//  399   {
//  400     if (pMtAfDataReq != NULL)
        MOV     DPTR,#pMtAfDataReq
        MOVX    A,@DPTR
        JNZ     ??MT_AfDataRequest_10
        INC     DPTR
        MOVX    A,@DPTR
??MT_AfDataRequest_10:
        JNZ     ??MT_AfDataRequest_7
//  401     {
//  402       retValue = afStatus_INVALID_PARAMETER;
//  403     }
//  404     else if ((pMtAfDataReq = osal_mem_alloc(sizeof(mtAfDataReq_t) + dataLen)) == NULL)
        ; Setup parameters for call to function osal_mem_alloc
        MOV     A,#0x18
        LCALL   ?Subroutine28 & 0xFFFF
??CrossCallReturnLabel_47:
        MOV     DPTR,#pMtAfDataReq
        MOV     A,R2
        MOVX    @DPTR,A
        INC     DPTR
        MOV     A,R3
        LCALL   ?Subroutine17 & 0xFFFF
??CrossCallReturnLabel_22:
        JNZ     ??MT_AfDataRequest_11
        INC     DPTR
        MOVX    A,@DPTR
??MT_AfDataRequest_11:
        JNZ     ??MT_AfDataRequest_12
//  405     {
//  406       retValue = afStatus_MEM_FAIL;
        MOV     A,#0x10
        LJMP    ??MT_AfDataRequest_8 & 0xFFFF
//  407     }
//  408     else
//  409     {
//  410       retValue = afStatus_SUCCESS;
??MT_AfDataRequest_12:
        CLR     A
        MOV     DPL,?XSP + 0
        MOV     DPH,?XSP + 1
        LCALL   ?Subroutine17 & 0xFFFF
//  411 
//  412       pMtAfDataReq->data = (uint8 *)(pMtAfDataReq+1);
??CrossCallReturnLabel_17:
        ADD     A,#0x18
        MOV     R2,A
        INC     DPTR
        MOVX    A,@DPTR
        ADDC    A,#0x0
        MOV     R3,A
        LCALL   ?Subroutine12 & 0xFFFF
??CrossCallReturnLabel_10:
        MOV     A,R2
        MOVX    @DPTR,A
        INC     DPTR
        MOV     A,R3
        MOVX    @DPTR,A
//  413       (void)osal_memcpy(&(pMtAfDataReq->dstAddr), &dstAddr, sizeof(afAddrType_t));
        ; Setup parameters for call to function osal_memcpy
        MOV     A,#0x2
        LCALL   ?XSTACK_DISP0_8
        MOV     R1,DPL
        MOV     R2,DPH
        MOV     ?V0 + 8,R1
        MOV     ?V0 + 9,R2
        MOV     ?V0 + 10,#0x0
        MOV     R0,#?V0 + 8
        LCALL   ?PUSH_XSTACK_I_THREE
        CFI CFA_XSP16 add(XSP16, 38)
        MOV     R4,#0xc
        MOV     R5,#0x0
        LCALL   ?Subroutine11 & 0xFFFF
??CrossCallReturnLabel_8:
        LCALL   ??Subroutine42_0 & 0xFFFF
??CrossCallReturnLabel_79:
        LCALL   ?DEALLOC_XSTACK8
        CFI CFA_XSP16 add(XSP16, 35)
//  414       pMtAfDataReq->epDesc = epDesc;
        MOV     DPTR,#pMtAfDataReq
        MOVX    A,@DPTR
        ADD     A,#0xe
        LCALL   ??Subroutine46_0 & 0xFFFF
??CrossCallReturnLabel_96:
        MOV     A,?V0 + 6
        MOVX    @DPTR,A
        INC     DPTR
        MOV     A,?V0 + 7
        MOVX    @DPTR,A
//  415       pMtAfDataReq->cId = cId;
        LCALL   ?Subroutine4 & 0xFFFF
??CrossCallReturnLabel_103:
        MOV     A,?V0 + 0
        MOVX    @DPTR,A
        INC     DPTR
        MOV     A,?V0 + 1
        LCALL   ?Subroutine17 & 0xFFFF
//  416       pMtAfDataReq->dataLen = dataLen;
??CrossCallReturnLabel_18:
        ADD     A,#0x12
        LCALL   ??Subroutine46_0 & 0xFFFF
??CrossCallReturnLabel_97:
        MOV     A,R6
        MOVX    @DPTR,A
        INC     DPTR
        MOV     A,R7
        MOVX    @DPTR,A
//  417       pMtAfDataReq->transId = transId;
        MOV     A,#0x1
        LCALL   ?XSTACK_DISP0_8
        MOVX    A,@DPTR
        PUSH    A
        CFI CFA_SP SP+-1
        MOV     DPTR,#pMtAfDataReq
        MOVX    A,@DPTR
        ADD     A,#0x14
        LCALL   ??Subroutine46_0 & 0xFFFF
??CrossCallReturnLabel_98:
        POP     A
        CFI CFA_SP SP+0
        LCALL   ?Subroutine17 & 0xFFFF
//  418       pMtAfDataReq->txOpts = txOpts;
??CrossCallReturnLabel_19:
        ADD     A,#0x15
        LCALL   ??Subroutine46_0 & 0xFFFF
??CrossCallReturnLabel_99:
        MOV     A,?V0 + 4
        LCALL   ?Subroutine17 & 0xFFFF
//  419       pMtAfDataReq->radius = radius;
??CrossCallReturnLabel_20:
        ADD     A,#0x16
        LCALL   ??Subroutine46_0 & 0xFFFF
??CrossCallReturnLabel_100:
        MOV     A,?V0 + 5
        LCALL   ?Subroutine17 & 0xFFFF
//  420 
//  421       // Setup to time-out the huge outgoing item if host does not MT_AF_DATA_STORE it.
//  422       pMtAfDataReq->tick = MT_AF_EXEC_CNT;
??CrossCallReturnLabel_21:
        ADD     A,#0x17
        LCALL   ??Subroutine46_0 & 0xFFFF
??CrossCallReturnLabel_101:
        MOV     A,#0xf
        LCALL   ?Subroutine10 & 0xFFFF
//  423       if (ZSuccess != osal_start_timerEx(MT_TaskID, MT_AF_EXEC_EVT, MT_AF_EXEC_DLY))
??CrossCallReturnLabel_58:
        JZ      ??MT_AfDataRequest_13
//  424       {
//  425         (void)osal_set_event(MT_TaskID, MT_AF_EXEC_EVT);
        ; Setup parameters for call to function osal_set_event
        LCALL   ?Subroutine13 & 0xFFFF
//  426       }
//  427     }
//  428   }
??CrossCallReturnLabel_13:
        SJMP    ??MT_AfDataRequest_13
//  429   else
//  430   {
//  431     retValue = AF_DataRequest(&dstAddr, epDesc, cId, dataLen, pBuf, &transId, txOpts, radius);
??MT_AfDataRequest_9:
        ; Setup parameters for call to function AF_DataRequest
        MOV     R0,#?V0 + 5
        LCALL   ?PUSH_XSTACK_I_ONE
        CFI CFA_XSP16 add(XSP16, 36)
        MOV     A,#0x2
        LCALL   ?XSTACK_DISP0_8
        MOV     ?V0 + 8,DPL
        MOV     ?V0 + 9,DPH
        MOV     R0,#?V0 + 8
        LCALL   ?PUSH_XSTACK_I_TWO
        CFI CFA_XSP16 add(XSP16, 38)
        MOV     R0,#?V0 + 2
        LCALL   ?PUSH_XSTACK_I_TWO
        CFI CFA_XSP16 add(XSP16, 40)
        MOV     ?V0 + 2,R6
        MOV     ?V0 + 3,R7
        MOV     R0,#?V0 + 2
        LCALL   ?PUSH_XSTACK_I_TWO
        CFI CFA_XSP16 add(XSP16, 42)
        MOV     R0,#?V0 + 0
        LCALL   ?PUSH_XSTACK_I_TWO
        CFI CFA_XSP16 add(XSP16, 44)
        MOV     R1,?V0 + 4
        MOV     R4,?V0 + 6
        MOV     R5,?V0 + 7
        MOV     A,#0xb
        LCALL   ?XSTACK_DISP0_8
        MOV     R2,DPL
        MOV     R3,DPH
        LCALL   ??AF_DataRequest?relay
        MOV     A,#0x9
        LCALL   ?DEALLOC_XSTACK8
        CFI CFA_XSP16 add(XSP16, 35)
        MOV     A,R1
??MT_AfDataRequest_8:
        MOV     DPL,?XSP + 0
        MOV     DPH,?XSP + 1
        MOVX    @DPTR,A
//  432   }
//  433 
//  434   if (MT_RPC_CMD_SREQ == (cmd0 & MT_RPC_CMD_TYPE_MASK))
??MT_AfDataRequest_13:
        MOV     A,#-0x20
        ANL     A,?V0 + 12
        XRL     A,#0x20
        JNZ     ??MT_AfDataRequest_14
//  435   {
//  436     MT_BuildAndSendZToolResponse(((uint8)MT_RPC_CMD_SRSP|(uint8)MT_RPC_SYS_AF), cmd1, 1, &retValue);
        ; Setup parameters for call to function MT_BuildAndSendZToolResponse
        MOV     DPL,?XSP + 0
        MOV     DPH,?XSP + 1
        MOV     R4,DPL
        MOV     R5,DPH
        MOV     R3,#0x1
        MOV     R2,?V0 + 11
        MOV     R1,#0x64
        LCALL   ??MT_BuildAndSendZToolResponse?relay
//  437   }
//  438 }
??MT_AfDataRequest_14:
        MOV     A,#0xe
        LCALL   ?DEALLOC_XSTACK8
        CFI CFA_XSP16 add(XSP16, 21)
        MOV     R7,#0xd
        LJMP    ?BANKED_LEAVE_XDATA
        CFI EndBlock cfiBlock16

        RSEG BANKED_CODE:CODE:NOROOT(0)
?Subroutine27:
        CFI Block cfiCond17 Using cfiCommon0
        CFI NoFunction
        CFI Conditional ??CrossCallReturnLabel_45
        CFI R6 load(1, XDATA, add(CFA_XSP16, literal(-21)))
        CFI VB load(1, XDATA, add(CFA_XSP16, literal(-20)))
        CFI V0 load(1, XDATA, add(CFA_XSP16, literal(-19)))
        CFI V1 load(1, XDATA, add(CFA_XSP16, literal(-18)))
        CFI V2 load(1, XDATA, add(CFA_XSP16, literal(-17)))
        CFI V3 load(1, XDATA, add(CFA_XSP16, literal(-16)))
        CFI V4 load(1, XDATA, add(CFA_XSP16, literal(-15)))
        CFI V5 load(1, XDATA, add(CFA_XSP16, literal(-14)))
        CFI V6 load(1, XDATA, add(CFA_XSP16, literal(-13)))
        CFI V7 load(1, XDATA, add(CFA_XSP16, literal(-12)))
        CFI V8 load(1, XDATA, add(CFA_XSP16, literal(-11)))
        CFI V9 load(1, XDATA, add(CFA_XSP16, literal(-10)))
        CFI V10 load(1, XDATA, add(CFA_XSP16, literal(-9)))
        CFI V11 load(1, XDATA, add(CFA_XSP16, literal(-8)))
        CFI V12 load(1, XDATA, add(CFA_XSP16, literal(-7)))
        CFI R7 load(1, XDATA, add(CFA_XSP16, literal(-6)))
        CFI ?RET_LOW load(1, XDATA, add(CFA_XSP16, literal(-5)))
        CFI ?RET_HIGH load(1, XDATA, add(CFA_XSP16, literal(-4)))
        CFI ?BRET_EXT load(1, XDATA, add(CFA_XSP16, literal(-3)))
        CFI DPL0 load(1, XDATA, add(CFA_XSP16, literal(-2)))
        CFI DPH0 load(1, XDATA, add(CFA_XSP16, literal(-1)))
        CFI CFA_SP SP+0
        CFI CFA_XSP16 add(XSP16, 35)
        CFI Block cfiCond18 Using cfiCommon0
        CFI (cfiCond18) NoFunction
        CFI (cfiCond18) Conditional ??CrossCallReturnLabel_46
        CFI (cfiCond18) R6 load(1, XDATA, add(CFA_XSP16, literal(-21)))
        CFI (cfiCond18) VB load(1, XDATA, add(CFA_XSP16, literal(-20)))
        CFI (cfiCond18) V0 load(1, XDATA, add(CFA_XSP16, literal(-19)))
        CFI (cfiCond18) V1 load(1, XDATA, add(CFA_XSP16, literal(-18)))
        CFI (cfiCond18) V2 load(1, XDATA, add(CFA_XSP16, literal(-17)))
        CFI (cfiCond18) V3 load(1, XDATA, add(CFA_XSP16, literal(-16)))
        CFI (cfiCond18) V4 load(1, XDATA, add(CFA_XSP16, literal(-15)))
        CFI (cfiCond18) V5 load(1, XDATA, add(CFA_XSP16, literal(-14)))
        CFI (cfiCond18) V6 load(1, XDATA, add(CFA_XSP16, literal(-13)))
        CFI (cfiCond18) V7 load(1, XDATA, add(CFA_XSP16, literal(-12)))
        CFI (cfiCond18) V8 load(1, XDATA, add(CFA_XSP16, literal(-11)))
        CFI (cfiCond18) V9 load(1, XDATA, add(CFA_XSP16, literal(-10)))
        CFI (cfiCond18) V10 load(1, XDATA, add(CFA_XSP16, literal(-9)))
        CFI (cfiCond18) V11 load(1, XDATA, add(CFA_XSP16, literal(-8)))
        CFI (cfiCond18) V12 load(1, XDATA, add(CFA_XSP16, literal(-7)))
        CFI (cfiCond18) R7 load(1, XDATA, add(CFA_XSP16, literal(-6)))
        CFI (cfiCond18) ?RET_LOW load(1, XDATA, add(CFA_XSP16, literal(-5)))
        CFI (cfiCond18) ?RET_HIGH load(1, XDATA, add(CFA_XSP16, literal(-4)))
        CFI (cfiCond18) ?BRET_EXT load(1, XDATA, add(CFA_XSP16, literal(-3)))
        CFI (cfiCond18) DPL0 load(1, XDATA, add(CFA_XSP16, literal(-2)))
        CFI (cfiCond18) DPH0 load(1, XDATA, add(CFA_XSP16, literal(-1)))
        CFI (cfiCond18) CFA_SP SP+0
        CFI (cfiCond18) CFA_XSP16 add(XSP16, 35)
        CFI Block cfiPicker19 Using cfiCommon1
        CFI (cfiPicker19) NoFunction
        CFI (cfiPicker19) Picker
        MOV     A,?V0 + 2
        ADD     A,#0x2
        MOV     ?V0 + 2,A
        MOV     A,?V0 + 3
        ADDC    A,#0x0
        MOV     ?V0 + 3,A
        RET
        CFI EndBlock cfiCond17
        CFI EndBlock cfiCond18
        CFI EndBlock cfiPicker19

        RSEG BANKED_CODE:CODE:NOROOT(0)
?Subroutine25:
        CFI Block cfiCond20 Using cfiCommon0
        CFI NoFunction
        CFI Conditional ??CrossCallReturnLabel_43
        CFI R6 load(1, XDATA, add(CFA_XSP16, literal(-21)))
        CFI VB load(1, XDATA, add(CFA_XSP16, literal(-20)))
        CFI V0 load(1, XDATA, add(CFA_XSP16, literal(-19)))
        CFI V1 load(1, XDATA, add(CFA_XSP16, literal(-18)))
        CFI V2 load(1, XDATA, add(CFA_XSP16, literal(-17)))
        CFI V3 load(1, XDATA, add(CFA_XSP16, literal(-16)))
        CFI V4 load(1, XDATA, add(CFA_XSP16, literal(-15)))
        CFI V5 load(1, XDATA, add(CFA_XSP16, literal(-14)))
        CFI V6 load(1, XDATA, add(CFA_XSP16, literal(-13)))
        CFI V7 load(1, XDATA, add(CFA_XSP16, literal(-12)))
        CFI V8 load(1, XDATA, add(CFA_XSP16, literal(-11)))
        CFI V9 load(1, XDATA, add(CFA_XSP16, literal(-10)))
        CFI V10 load(1, XDATA, add(CFA_XSP16, literal(-9)))
        CFI V11 load(1, XDATA, add(CFA_XSP16, literal(-8)))
        CFI V12 load(1, XDATA, add(CFA_XSP16, literal(-7)))
        CFI R7 load(1, XDATA, add(CFA_XSP16, literal(-6)))
        CFI ?RET_LOW load(1, XDATA, add(CFA_XSP16, literal(-5)))
        CFI ?RET_HIGH load(1, XDATA, add(CFA_XSP16, literal(-4)))
        CFI ?BRET_EXT load(1, XDATA, add(CFA_XSP16, literal(-3)))
        CFI DPL0 load(1, XDATA, add(CFA_XSP16, literal(-2)))
        CFI DPH0 load(1, XDATA, add(CFA_XSP16, literal(-1)))
        CFI CFA_SP SP+0
        CFI CFA_XSP16 add(XSP16, 35)
        CFI Block cfiCond21 Using cfiCommon0
        CFI (cfiCond21) NoFunction
        CFI (cfiCond21) Conditional ??CrossCallReturnLabel_44
        CFI (cfiCond21) R6 load(1, XDATA, add(CFA_XSP16, literal(-21)))
        CFI (cfiCond21) VB load(1, XDATA, add(CFA_XSP16, literal(-20)))
        CFI (cfiCond21) V0 load(1, XDATA, add(CFA_XSP16, literal(-19)))
        CFI (cfiCond21) V1 load(1, XDATA, add(CFA_XSP16, literal(-18)))
        CFI (cfiCond21) V2 load(1, XDATA, add(CFA_XSP16, literal(-17)))
        CFI (cfiCond21) V3 load(1, XDATA, add(CFA_XSP16, literal(-16)))
        CFI (cfiCond21) V4 load(1, XDATA, add(CFA_XSP16, literal(-15)))
        CFI (cfiCond21) V5 load(1, XDATA, add(CFA_XSP16, literal(-14)))
        CFI (cfiCond21) V6 load(1, XDATA, add(CFA_XSP16, literal(-13)))
        CFI (cfiCond21) V7 load(1, XDATA, add(CFA_XSP16, literal(-12)))
        CFI (cfiCond21) V8 load(1, XDATA, add(CFA_XSP16, literal(-11)))
        CFI (cfiCond21) V9 load(1, XDATA, add(CFA_XSP16, literal(-10)))
        CFI (cfiCond21) V10 load(1, XDATA, add(CFA_XSP16, literal(-9)))
        CFI (cfiCond21) V11 load(1, XDATA, add(CFA_XSP16, literal(-8)))
        CFI (cfiCond21) V12 load(1, XDATA, add(CFA_XSP16, literal(-7)))
        CFI (cfiCond21) R7 load(1, XDATA, add(CFA_XSP16, literal(-6)))
        CFI (cfiCond21) ?RET_LOW load(1, XDATA, add(CFA_XSP16, literal(-5)))
        CFI (cfiCond21) ?RET_HIGH load(1, XDATA, add(CFA_XSP16, literal(-4)))
        CFI (cfiCond21) ?BRET_EXT load(1, XDATA, add(CFA_XSP16, literal(-3)))
        CFI (cfiCond21) DPL0 load(1, XDATA, add(CFA_XSP16, literal(-2)))
        CFI (cfiCond21) DPH0 load(1, XDATA, add(CFA_XSP16, literal(-1)))
        CFI (cfiCond21) CFA_SP SP+0
        CFI (cfiCond21) CFA_XSP16 add(XSP16, 35)
        CFI Block cfiPicker22 Using cfiCommon1
        CFI (cfiPicker22) NoFunction
        CFI (cfiPicker22) Picker
        MOVX    @DPTR,A
        MOV     DPL,?V0 + 2
        MOV     DPH,?V0 + 3
        INC     DPTR
        RET
        CFI EndBlock cfiCond20
        CFI EndBlock cfiCond21
        CFI EndBlock cfiPicker22

        RSEG BANKED_CODE:CODE:NOROOT(0)
?Subroutine17:
        CFI Block cfiCond23 Using cfiCommon0
        CFI NoFunction
        CFI Conditional ??CrossCallReturnLabel_22
        CFI R6 load(1, XDATA, add(CFA_XSP16, literal(-21)))
        CFI VB load(1, XDATA, add(CFA_XSP16, literal(-20)))
        CFI V0 load(1, XDATA, add(CFA_XSP16, literal(-19)))
        CFI V1 load(1, XDATA, add(CFA_XSP16, literal(-18)))
        CFI V2 load(1, XDATA, add(CFA_XSP16, literal(-17)))
        CFI V3 load(1, XDATA, add(CFA_XSP16, literal(-16)))
        CFI V4 load(1, XDATA, add(CFA_XSP16, literal(-15)))
        CFI V5 load(1, XDATA, add(CFA_XSP16, literal(-14)))
        CFI V6 load(1, XDATA, add(CFA_XSP16, literal(-13)))
        CFI V7 load(1, XDATA, add(CFA_XSP16, literal(-12)))
        CFI V8 load(1, XDATA, add(CFA_XSP16, literal(-11)))
        CFI V9 load(1, XDATA, add(CFA_XSP16, literal(-10)))
        CFI V10 load(1, XDATA, add(CFA_XSP16, literal(-9)))
        CFI V11 load(1, XDATA, add(CFA_XSP16, literal(-8)))
        CFI V12 load(1, XDATA, add(CFA_XSP16, literal(-7)))
        CFI R7 load(1, XDATA, add(CFA_XSP16, literal(-6)))
        CFI ?RET_LOW load(1, XDATA, add(CFA_XSP16, literal(-5)))
        CFI ?RET_HIGH load(1, XDATA, add(CFA_XSP16, literal(-4)))
        CFI ?BRET_EXT load(1, XDATA, add(CFA_XSP16, literal(-3)))
        CFI DPL0 load(1, XDATA, add(CFA_XSP16, literal(-2)))
        CFI DPH0 load(1, XDATA, add(CFA_XSP16, literal(-1)))
        CFI CFA_SP SP+0
        CFI CFA_XSP16 add(XSP16, 35)
        CFI Block cfiCond24 Using cfiCommon0
        CFI (cfiCond24) NoFunction
        CFI (cfiCond24) Conditional ??CrossCallReturnLabel_17
        CFI (cfiCond24) R6 load(1, XDATA, add(CFA_XSP16, literal(-21)))
        CFI (cfiCond24) VB load(1, XDATA, add(CFA_XSP16, literal(-20)))
        CFI (cfiCond24) V0 load(1, XDATA, add(CFA_XSP16, literal(-19)))
        CFI (cfiCond24) V1 load(1, XDATA, add(CFA_XSP16, literal(-18)))
        CFI (cfiCond24) V2 load(1, XDATA, add(CFA_XSP16, literal(-17)))
        CFI (cfiCond24) V3 load(1, XDATA, add(CFA_XSP16, literal(-16)))
        CFI (cfiCond24) V4 load(1, XDATA, add(CFA_XSP16, literal(-15)))
        CFI (cfiCond24) V5 load(1, XDATA, add(CFA_XSP16, literal(-14)))
        CFI (cfiCond24) V6 load(1, XDATA, add(CFA_XSP16, literal(-13)))
        CFI (cfiCond24) V7 load(1, XDATA, add(CFA_XSP16, literal(-12)))
        CFI (cfiCond24) V8 load(1, XDATA, add(CFA_XSP16, literal(-11)))
        CFI (cfiCond24) V9 load(1, XDATA, add(CFA_XSP16, literal(-10)))
        CFI (cfiCond24) V10 load(1, XDATA, add(CFA_XSP16, literal(-9)))
        CFI (cfiCond24) V11 load(1, XDATA, add(CFA_XSP16, literal(-8)))
        CFI (cfiCond24) V12 load(1, XDATA, add(CFA_XSP16, literal(-7)))
        CFI (cfiCond24) R7 load(1, XDATA, add(CFA_XSP16, literal(-6)))
        CFI (cfiCond24) ?RET_LOW load(1, XDATA, add(CFA_XSP16, literal(-5)))
        CFI (cfiCond24) ?RET_HIGH load(1, XDATA, add(CFA_XSP16, literal(-4)))
        CFI (cfiCond24) ?BRET_EXT load(1, XDATA, add(CFA_XSP16, literal(-3)))
        CFI (cfiCond24) DPL0 load(1, XDATA, add(CFA_XSP16, literal(-2)))
        CFI (cfiCond24) DPH0 load(1, XDATA, add(CFA_XSP16, literal(-1)))
        CFI (cfiCond24) CFA_SP SP+0
        CFI (cfiCond24) CFA_XSP16 add(XSP16, 35)
        CFI Block cfiCond25 Using cfiCommon0
        CFI (cfiCond25) NoFunction
        CFI (cfiCond25) Conditional ??CrossCallReturnLabel_18
        CFI (cfiCond25) R6 load(1, XDATA, add(CFA_XSP16, literal(-21)))
        CFI (cfiCond25) VB load(1, XDATA, add(CFA_XSP16, literal(-20)))
        CFI (cfiCond25) V0 load(1, XDATA, add(CFA_XSP16, literal(-19)))
        CFI (cfiCond25) V1 load(1, XDATA, add(CFA_XSP16, literal(-18)))
        CFI (cfiCond25) V2 load(1, XDATA, add(CFA_XSP16, literal(-17)))
        CFI (cfiCond25) V3 load(1, XDATA, add(CFA_XSP16, literal(-16)))
        CFI (cfiCond25) V4 load(1, XDATA, add(CFA_XSP16, literal(-15)))
        CFI (cfiCond25) V5 load(1, XDATA, add(CFA_XSP16, literal(-14)))
        CFI (cfiCond25) V6 load(1, XDATA, add(CFA_XSP16, literal(-13)))
        CFI (cfiCond25) V7 load(1, XDATA, add(CFA_XSP16, literal(-12)))
        CFI (cfiCond25) V8 load(1, XDATA, add(CFA_XSP16, literal(-11)))
        CFI (cfiCond25) V9 load(1, XDATA, add(CFA_XSP16, literal(-10)))
        CFI (cfiCond25) V10 load(1, XDATA, add(CFA_XSP16, literal(-9)))
        CFI (cfiCond25) V11 load(1, XDATA, add(CFA_XSP16, literal(-8)))
        CFI (cfiCond25) V12 load(1, XDATA, add(CFA_XSP16, literal(-7)))
        CFI (cfiCond25) R7 load(1, XDATA, add(CFA_XSP16, literal(-6)))
        CFI (cfiCond25) ?RET_LOW load(1, XDATA, add(CFA_XSP16, literal(-5)))
        CFI (cfiCond25) ?RET_HIGH load(1, XDATA, add(CFA_XSP16, literal(-4)))
        CFI (cfiCond25) ?BRET_EXT load(1, XDATA, add(CFA_XSP16, literal(-3)))
        CFI (cfiCond25) DPL0 load(1, XDATA, add(CFA_XSP16, literal(-2)))
        CFI (cfiCond25) DPH0 load(1, XDATA, add(CFA_XSP16, literal(-1)))
        CFI (cfiCond25) CFA_SP SP+0
        CFI (cfiCond25) CFA_XSP16 add(XSP16, 35)
        CFI Block cfiCond26 Using cfiCommon0
        CFI (cfiCond26) NoFunction
        CFI (cfiCond26) Conditional ??CrossCallReturnLabel_19
        CFI (cfiCond26) R6 load(1, XDATA, add(CFA_XSP16, literal(-21)))
        CFI (cfiCond26) VB load(1, XDATA, add(CFA_XSP16, literal(-20)))
        CFI (cfiCond26) V0 load(1, XDATA, add(CFA_XSP16, literal(-19)))
        CFI (cfiCond26) V1 load(1, XDATA, add(CFA_XSP16, literal(-18)))
        CFI (cfiCond26) V2 load(1, XDATA, add(CFA_XSP16, literal(-17)))
        CFI (cfiCond26) V3 load(1, XDATA, add(CFA_XSP16, literal(-16)))
        CFI (cfiCond26) V4 load(1, XDATA, add(CFA_XSP16, literal(-15)))
        CFI (cfiCond26) V5 load(1, XDATA, add(CFA_XSP16, literal(-14)))
        CFI (cfiCond26) V6 load(1, XDATA, add(CFA_XSP16, literal(-13)))
        CFI (cfiCond26) V7 load(1, XDATA, add(CFA_XSP16, literal(-12)))
        CFI (cfiCond26) V8 load(1, XDATA, add(CFA_XSP16, literal(-11)))
        CFI (cfiCond26) V9 load(1, XDATA, add(CFA_XSP16, literal(-10)))
        CFI (cfiCond26) V10 load(1, XDATA, add(CFA_XSP16, literal(-9)))
        CFI (cfiCond26) V11 load(1, XDATA, add(CFA_XSP16, literal(-8)))
        CFI (cfiCond26) V12 load(1, XDATA, add(CFA_XSP16, literal(-7)))
        CFI (cfiCond26) R7 load(1, XDATA, add(CFA_XSP16, literal(-6)))
        CFI (cfiCond26) ?RET_LOW load(1, XDATA, add(CFA_XSP16, literal(-5)))
        CFI (cfiCond26) ?RET_HIGH load(1, XDATA, add(CFA_XSP16, literal(-4)))
        CFI (cfiCond26) ?BRET_EXT load(1, XDATA, add(CFA_XSP16, literal(-3)))
        CFI (cfiCond26) DPL0 load(1, XDATA, add(CFA_XSP16, literal(-2)))
        CFI (cfiCond26) DPH0 load(1, XDATA, add(CFA_XSP16, literal(-1)))
        CFI (cfiCond26) CFA_SP SP+0
        CFI (cfiCond26) CFA_XSP16 add(XSP16, 35)
        CFI Block cfiCond27 Using cfiCommon0
        CFI (cfiCond27) NoFunction
        CFI (cfiCond27) Conditional ??CrossCallReturnLabel_20
        CFI (cfiCond27) R6 load(1, XDATA, add(CFA_XSP16, literal(-21)))
        CFI (cfiCond27) VB load(1, XDATA, add(CFA_XSP16, literal(-20)))
        CFI (cfiCond27) V0 load(1, XDATA, add(CFA_XSP16, literal(-19)))
        CFI (cfiCond27) V1 load(1, XDATA, add(CFA_XSP16, literal(-18)))
        CFI (cfiCond27) V2 load(1, XDATA, add(CFA_XSP16, literal(-17)))
        CFI (cfiCond27) V3 load(1, XDATA, add(CFA_XSP16, literal(-16)))
        CFI (cfiCond27) V4 load(1, XDATA, add(CFA_XSP16, literal(-15)))
        CFI (cfiCond27) V5 load(1, XDATA, add(CFA_XSP16, literal(-14)))
        CFI (cfiCond27) V6 load(1, XDATA, add(CFA_XSP16, literal(-13)))
        CFI (cfiCond27) V7 load(1, XDATA, add(CFA_XSP16, literal(-12)))
        CFI (cfiCond27) V8 load(1, XDATA, add(CFA_XSP16, literal(-11)))
        CFI (cfiCond27) V9 load(1, XDATA, add(CFA_XSP16, literal(-10)))
        CFI (cfiCond27) V10 load(1, XDATA, add(CFA_XSP16, literal(-9)))
        CFI (cfiCond27) V11 load(1, XDATA, add(CFA_XSP16, literal(-8)))
        CFI (cfiCond27) V12 load(1, XDATA, add(CFA_XSP16, literal(-7)))
        CFI (cfiCond27) R7 load(1, XDATA, add(CFA_XSP16, literal(-6)))
        CFI (cfiCond27) ?RET_LOW load(1, XDATA, add(CFA_XSP16, literal(-5)))
        CFI (cfiCond27) ?RET_HIGH load(1, XDATA, add(CFA_XSP16, literal(-4)))
        CFI (cfiCond27) ?BRET_EXT load(1, XDATA, add(CFA_XSP16, literal(-3)))
        CFI (cfiCond27) DPL0 load(1, XDATA, add(CFA_XSP16, literal(-2)))
        CFI (cfiCond27) DPH0 load(1, XDATA, add(CFA_XSP16, literal(-1)))
        CFI (cfiCond27) CFA_SP SP+0
        CFI (cfiCond27) CFA_XSP16 add(XSP16, 35)
        CFI Block cfiCond28 Using cfiCommon0
        CFI (cfiCond28) NoFunction
        CFI (cfiCond28) Conditional ??CrossCallReturnLabel_21
        CFI (cfiCond28) R6 load(1, XDATA, add(CFA_XSP16, literal(-21)))
        CFI (cfiCond28) VB load(1, XDATA, add(CFA_XSP16, literal(-20)))
        CFI (cfiCond28) V0 load(1, XDATA, add(CFA_XSP16, literal(-19)))
        CFI (cfiCond28) V1 load(1, XDATA, add(CFA_XSP16, literal(-18)))
        CFI (cfiCond28) V2 load(1, XDATA, add(CFA_XSP16, literal(-17)))
        CFI (cfiCond28) V3 load(1, XDATA, add(CFA_XSP16, literal(-16)))
        CFI (cfiCond28) V4 load(1, XDATA, add(CFA_XSP16, literal(-15)))
        CFI (cfiCond28) V5 load(1, XDATA, add(CFA_XSP16, literal(-14)))
        CFI (cfiCond28) V6 load(1, XDATA, add(CFA_XSP16, literal(-13)))
        CFI (cfiCond28) V7 load(1, XDATA, add(CFA_XSP16, literal(-12)))
        CFI (cfiCond28) V8 load(1, XDATA, add(CFA_XSP16, literal(-11)))
        CFI (cfiCond28) V9 load(1, XDATA, add(CFA_XSP16, literal(-10)))
        CFI (cfiCond28) V10 load(1, XDATA, add(CFA_XSP16, literal(-9)))
        CFI (cfiCond28) V11 load(1, XDATA, add(CFA_XSP16, literal(-8)))
        CFI (cfiCond28) V12 load(1, XDATA, add(CFA_XSP16, literal(-7)))
        CFI (cfiCond28) R7 load(1, XDATA, add(CFA_XSP16, literal(-6)))
        CFI (cfiCond28) ?RET_LOW load(1, XDATA, add(CFA_XSP16, literal(-5)))
        CFI (cfiCond28) ?RET_HIGH load(1, XDATA, add(CFA_XSP16, literal(-4)))
        CFI (cfiCond28) ?BRET_EXT load(1, XDATA, add(CFA_XSP16, literal(-3)))
        CFI (cfiCond28) DPL0 load(1, XDATA, add(CFA_XSP16, literal(-2)))
        CFI (cfiCond28) DPH0 load(1, XDATA, add(CFA_XSP16, literal(-1)))
        CFI (cfiCond28) CFA_SP SP+0
        CFI (cfiCond28) CFA_XSP16 add(XSP16, 35)
        CFI Block cfiPicker29 Using cfiCommon1
        CFI (cfiPicker29) NoFunction
        CFI (cfiPicker29) Picker
        MOVX    @DPTR,A
        MOV     DPTR,#pMtAfDataReq
        MOVX    A,@DPTR
        RET
        CFI EndBlock cfiCond23
        CFI EndBlock cfiCond24
        CFI EndBlock cfiCond25
        CFI EndBlock cfiCond26
        CFI EndBlock cfiCond27
        CFI EndBlock cfiCond28
        CFI EndBlock cfiPicker29

        RSEG BANKED_CODE:CODE:NOROOT(0)
?Subroutine14:
        CFI Block cfiCond30 Using cfiCommon0
        CFI NoFunction
        CFI Conditional ??CrossCallReturnLabel_53
        CFI R6 load(1, XDATA, add(CFA_XSP16, literal(-21)))
        CFI VB load(1, XDATA, add(CFA_XSP16, literal(-20)))
        CFI V0 load(1, XDATA, add(CFA_XSP16, literal(-19)))
        CFI V1 load(1, XDATA, add(CFA_XSP16, literal(-18)))
        CFI V2 load(1, XDATA, add(CFA_XSP16, literal(-17)))
        CFI V3 load(1, XDATA, add(CFA_XSP16, literal(-16)))
        CFI V4 load(1, XDATA, add(CFA_XSP16, literal(-15)))
        CFI V5 load(1, XDATA, add(CFA_XSP16, literal(-14)))
        CFI V6 load(1, XDATA, add(CFA_XSP16, literal(-13)))
        CFI V7 load(1, XDATA, add(CFA_XSP16, literal(-12)))
        CFI V8 load(1, XDATA, add(CFA_XSP16, literal(-11)))
        CFI V9 load(1, XDATA, add(CFA_XSP16, literal(-10)))
        CFI V10 load(1, XDATA, add(CFA_XSP16, literal(-9)))
        CFI V11 load(1, XDATA, add(CFA_XSP16, literal(-8)))
        CFI V12 load(1, XDATA, add(CFA_XSP16, literal(-7)))
        CFI R7 load(1, XDATA, add(CFA_XSP16, literal(-6)))
        CFI ?RET_LOW load(1, XDATA, add(CFA_XSP16, literal(-5)))
        CFI ?RET_HIGH load(1, XDATA, add(CFA_XSP16, literal(-4)))
        CFI ?BRET_EXT load(1, XDATA, add(CFA_XSP16, literal(-3)))
        CFI DPL0 load(1, XDATA, add(CFA_XSP16, literal(-2)))
        CFI DPH0 load(1, XDATA, add(CFA_XSP16, literal(-1)))
        CFI CFA_SP SP+0
        CFI CFA_XSP16 add(XSP16, 35)
        CFI Block cfiCond31 Using cfiCommon0
        CFI (cfiCond31) NoFunction
        CFI (cfiCond31) Conditional ??CrossCallReturnLabel_54
        CFI (cfiCond31) R6 load(1, XDATA, add(CFA_XSP16, literal(-21)))
        CFI (cfiCond31) VB load(1, XDATA, add(CFA_XSP16, literal(-20)))
        CFI (cfiCond31) V0 load(1, XDATA, add(CFA_XSP16, literal(-19)))
        CFI (cfiCond31) V1 load(1, XDATA, add(CFA_XSP16, literal(-18)))
        CFI (cfiCond31) V2 load(1, XDATA, add(CFA_XSP16, literal(-17)))
        CFI (cfiCond31) V3 load(1, XDATA, add(CFA_XSP16, literal(-16)))
        CFI (cfiCond31) V4 load(1, XDATA, add(CFA_XSP16, literal(-15)))
        CFI (cfiCond31) V5 load(1, XDATA, add(CFA_XSP16, literal(-14)))
        CFI (cfiCond31) V6 load(1, XDATA, add(CFA_XSP16, literal(-13)))
        CFI (cfiCond31) V7 load(1, XDATA, add(CFA_XSP16, literal(-12)))
        CFI (cfiCond31) V8 load(1, XDATA, add(CFA_XSP16, literal(-11)))
        CFI (cfiCond31) V9 load(1, XDATA, add(CFA_XSP16, literal(-10)))
        CFI (cfiCond31) V10 load(1, XDATA, add(CFA_XSP16, literal(-9)))
        CFI (cfiCond31) V11 load(1, XDATA, add(CFA_XSP16, literal(-8)))
        CFI (cfiCond31) V12 load(1, XDATA, add(CFA_XSP16, literal(-7)))
        CFI (cfiCond31) R7 load(1, XDATA, add(CFA_XSP16, literal(-6)))
        CFI (cfiCond31) ?RET_LOW load(1, XDATA, add(CFA_XSP16, literal(-5)))
        CFI (cfiCond31) ?RET_HIGH load(1, XDATA, add(CFA_XSP16, literal(-4)))
        CFI (cfiCond31) ?BRET_EXT load(1, XDATA, add(CFA_XSP16, literal(-3)))
        CFI (cfiCond31) DPL0 load(1, XDATA, add(CFA_XSP16, literal(-2)))
        CFI (cfiCond31) DPH0 load(1, XDATA, add(CFA_XSP16, literal(-1)))
        CFI (cfiCond31) CFA_SP SP+0
        CFI (cfiCond31) CFA_XSP16 add(XSP16, 35)
        CFI Block cfiPicker32 Using cfiCommon1
        CFI (cfiPicker32) NoFunction
        CFI (cfiPicker32) Picker
        MOV     A,?V0 + 2
        ADD     A,#0x2
        CFI EndBlock cfiCond30
        CFI EndBlock cfiCond31
        CFI EndBlock cfiPicker32
        REQUIRE ??Subroutine37_0
        ; // Fall through to label ??Subroutine37_0

        RSEG BANKED_CODE:CODE:NOROOT(0)
??Subroutine37_0:
        CFI Block cfiCond33 Using cfiCommon0
        CFI NoFunction
        CFI Conditional ??CrossCallReturnLabel_55
        CFI R6 load(1, XDATA, add(CFA_XSP16, literal(-21)))
        CFI VB load(1, XDATA, add(CFA_XSP16, literal(-20)))
        CFI V0 load(1, XDATA, add(CFA_XSP16, literal(-19)))
        CFI V1 load(1, XDATA, add(CFA_XSP16, literal(-18)))
        CFI V2 load(1, XDATA, add(CFA_XSP16, literal(-17)))
        CFI V3 load(1, XDATA, add(CFA_XSP16, literal(-16)))
        CFI V4 load(1, XDATA, add(CFA_XSP16, literal(-15)))
        CFI V5 load(1, XDATA, add(CFA_XSP16, literal(-14)))
        CFI V6 load(1, XDATA, add(CFA_XSP16, literal(-13)))
        CFI V7 load(1, XDATA, add(CFA_XSP16, literal(-12)))
        CFI V8 load(1, XDATA, add(CFA_XSP16, literal(-11)))
        CFI V9 load(1, XDATA, add(CFA_XSP16, literal(-10)))
        CFI V10 load(1, XDATA, add(CFA_XSP16, literal(-9)))
        CFI V11 load(1, XDATA, add(CFA_XSP16, literal(-8)))
        CFI V12 load(1, XDATA, add(CFA_XSP16, literal(-7)))
        CFI R7 load(1, XDATA, add(CFA_XSP16, literal(-6)))
        CFI ?RET_LOW load(1, XDATA, add(CFA_XSP16, literal(-5)))
        CFI ?RET_HIGH load(1, XDATA, add(CFA_XSP16, literal(-4)))
        CFI ?BRET_EXT load(1, XDATA, add(CFA_XSP16, literal(-3)))
        CFI DPL0 load(1, XDATA, add(CFA_XSP16, literal(-2)))
        CFI DPH0 load(1, XDATA, add(CFA_XSP16, literal(-1)))
        CFI CFA_SP SP+0
        CFI CFA_XSP16 add(XSP16, 35)
        CFI Block cfiCond34 Using cfiCommon0
        CFI (cfiCond34) NoFunction
        CFI (cfiCond34) Conditional ??CrossCallReturnLabel_53
        CFI (cfiCond34) R6 load(1, XDATA, add(CFA_XSP16, literal(-21)))
        CFI (cfiCond34) VB load(1, XDATA, add(CFA_XSP16, literal(-20)))
        CFI (cfiCond34) V0 load(1, XDATA, add(CFA_XSP16, literal(-19)))
        CFI (cfiCond34) V1 load(1, XDATA, add(CFA_XSP16, literal(-18)))
        CFI (cfiCond34) V2 load(1, XDATA, add(CFA_XSP16, literal(-17)))
        CFI (cfiCond34) V3 load(1, XDATA, add(CFA_XSP16, literal(-16)))
        CFI (cfiCond34) V4 load(1, XDATA, add(CFA_XSP16, literal(-15)))
        CFI (cfiCond34) V5 load(1, XDATA, add(CFA_XSP16, literal(-14)))
        CFI (cfiCond34) V6 load(1, XDATA, add(CFA_XSP16, literal(-13)))
        CFI (cfiCond34) V7 load(1, XDATA, add(CFA_XSP16, literal(-12)))
        CFI (cfiCond34) V8 load(1, XDATA, add(CFA_XSP16, literal(-11)))
        CFI (cfiCond34) V9 load(1, XDATA, add(CFA_XSP16, literal(-10)))
        CFI (cfiCond34) V10 load(1, XDATA, add(CFA_XSP16, literal(-9)))
        CFI (cfiCond34) V11 load(1, XDATA, add(CFA_XSP16, literal(-8)))
        CFI (cfiCond34) V12 load(1, XDATA, add(CFA_XSP16, literal(-7)))
        CFI (cfiCond34) R7 load(1, XDATA, add(CFA_XSP16, literal(-6)))
        CFI (cfiCond34) ?RET_LOW load(1, XDATA, add(CFA_XSP16, literal(-5)))
        CFI (cfiCond34) ?RET_HIGH load(1, XDATA, add(CFA_XSP16, literal(-4)))
        CFI (cfiCond34) ?BRET_EXT load(1, XDATA, add(CFA_XSP16, literal(-3)))
        CFI (cfiCond34) DPL0 load(1, XDATA, add(CFA_XSP16, literal(-2)))
        CFI (cfiCond34) DPH0 load(1, XDATA, add(CFA_XSP16, literal(-1)))
        CFI (cfiCond34) CFA_SP SP+0
        CFI (cfiCond34) CFA_XSP16 add(XSP16, 35)
        CFI Block cfiCond35 Using cfiCommon0
        CFI (cfiCond35) NoFunction
        CFI (cfiCond35) Conditional ??CrossCallReturnLabel_54
        CFI (cfiCond35) R6 load(1, XDATA, add(CFA_XSP16, literal(-21)))
        CFI (cfiCond35) VB load(1, XDATA, add(CFA_XSP16, literal(-20)))
        CFI (cfiCond35) V0 load(1, XDATA, add(CFA_XSP16, literal(-19)))
        CFI (cfiCond35) V1 load(1, XDATA, add(CFA_XSP16, literal(-18)))
        CFI (cfiCond35) V2 load(1, XDATA, add(CFA_XSP16, literal(-17)))
        CFI (cfiCond35) V3 load(1, XDATA, add(CFA_XSP16, literal(-16)))
        CFI (cfiCond35) V4 load(1, XDATA, add(CFA_XSP16, literal(-15)))
        CFI (cfiCond35) V5 load(1, XDATA, add(CFA_XSP16, literal(-14)))
        CFI (cfiCond35) V6 load(1, XDATA, add(CFA_XSP16, literal(-13)))
        CFI (cfiCond35) V7 load(1, XDATA, add(CFA_XSP16, literal(-12)))
        CFI (cfiCond35) V8 load(1, XDATA, add(CFA_XSP16, literal(-11)))
        CFI (cfiCond35) V9 load(1, XDATA, add(CFA_XSP16, literal(-10)))
        CFI (cfiCond35) V10 load(1, XDATA, add(CFA_XSP16, literal(-9)))
        CFI (cfiCond35) V11 load(1, XDATA, add(CFA_XSP16, literal(-8)))
        CFI (cfiCond35) V12 load(1, XDATA, add(CFA_XSP16, literal(-7)))
        CFI (cfiCond35) R7 load(1, XDATA, add(CFA_XSP16, literal(-6)))
        CFI (cfiCond35) ?RET_LOW load(1, XDATA, add(CFA_XSP16, literal(-5)))
        CFI (cfiCond35) ?RET_HIGH load(1, XDATA, add(CFA_XSP16, literal(-4)))
        CFI (cfiCond35) ?BRET_EXT load(1, XDATA, add(CFA_XSP16, literal(-3)))
        CFI (cfiCond35) DPL0 load(1, XDATA, add(CFA_XSP16, literal(-2)))
        CFI (cfiCond35) DPH0 load(1, XDATA, add(CFA_XSP16, literal(-1)))
        CFI (cfiCond35) CFA_SP SP+0
        CFI (cfiCond35) CFA_XSP16 add(XSP16, 35)
        CFI Block cfiPicker36 Using cfiCommon1
        CFI (cfiPicker36) NoFunction
        CFI (cfiPicker36) Picker
        MOV     ?V0 + 2,A
        MOV     A,?V0 + 3
        LCALL   ?Subroutine33 & 0xFFFF
??CrossCallReturnLabel_57:
        MOVX    A,@DPTR
        RET
        CFI EndBlock cfiCond33
        CFI EndBlock cfiCond34
        CFI EndBlock cfiCond35
        CFI EndBlock cfiPicker36

        RSEG BANKED_CODE:CODE:NOROOT(0)
?Subroutine33:
        CFI Block cfiCond37 Using cfiCommon0
        CFI NoFunction
        CFI Conditional ??CrossCallReturnLabel_56
        CFI R6 load(1, XDATA, add(CFA_XSP16, literal(-21)))
        CFI VB load(1, XDATA, add(CFA_XSP16, literal(-20)))
        CFI V0 load(1, XDATA, add(CFA_XSP16, literal(-19)))
        CFI V1 load(1, XDATA, add(CFA_XSP16, literal(-18)))
        CFI V2 load(1, XDATA, add(CFA_XSP16, literal(-17)))
        CFI V3 load(1, XDATA, add(CFA_XSP16, literal(-16)))
        CFI V4 load(1, XDATA, add(CFA_XSP16, literal(-15)))
        CFI V5 load(1, XDATA, add(CFA_XSP16, literal(-14)))
        CFI V6 load(1, XDATA, add(CFA_XSP16, literal(-13)))
        CFI V7 load(1, XDATA, add(CFA_XSP16, literal(-12)))
        CFI V8 load(1, XDATA, add(CFA_XSP16, literal(-11)))
        CFI V9 load(1, XDATA, add(CFA_XSP16, literal(-10)))
        CFI V10 load(1, XDATA, add(CFA_XSP16, literal(-9)))
        CFI V11 load(1, XDATA, add(CFA_XSP16, literal(-8)))
        CFI V12 load(1, XDATA, add(CFA_XSP16, literal(-7)))
        CFI R7 load(1, XDATA, add(CFA_XSP16, literal(-6)))
        CFI ?RET_LOW load(1, XDATA, add(CFA_XSP16, literal(-5)))
        CFI ?RET_HIGH load(1, XDATA, add(CFA_XSP16, literal(-4)))
        CFI ?BRET_EXT load(1, XDATA, add(CFA_XSP16, literal(-3)))
        CFI DPL0 load(1, XDATA, add(CFA_XSP16, literal(-2)))
        CFI DPH0 load(1, XDATA, add(CFA_XSP16, literal(-1)))
        CFI CFA_SP SP+0
        CFI CFA_XSP16 add(XSP16, 35)
        CFI Block cfiCond38 Using cfiCommon0
        CFI (cfiCond38) NoFunction
        CFI (cfiCond38) Conditional ??CrossCallReturnLabel_57, ??CrossCallReturnLabel_53
        CFI (cfiCond38) R6 load(1, XDATA, add(CFA_XSP16, literal(-21)))
        CFI (cfiCond38) VB load(1, XDATA, add(CFA_XSP16, literal(-20)))
        CFI (cfiCond38) V0 load(1, XDATA, add(CFA_XSP16, literal(-19)))
        CFI (cfiCond38) V1 load(1, XDATA, add(CFA_XSP16, literal(-18)))
        CFI (cfiCond38) V2 load(1, XDATA, add(CFA_XSP16, literal(-17)))
        CFI (cfiCond38) V3 load(1, XDATA, add(CFA_XSP16, literal(-16)))
        CFI (cfiCond38) V4 load(1, XDATA, add(CFA_XSP16, literal(-15)))
        CFI (cfiCond38) V5 load(1, XDATA, add(CFA_XSP16, literal(-14)))
        CFI (cfiCond38) V6 load(1, XDATA, add(CFA_XSP16, literal(-13)))
        CFI (cfiCond38) V7 load(1, XDATA, add(CFA_XSP16, literal(-12)))
        CFI (cfiCond38) V8 load(1, XDATA, add(CFA_XSP16, literal(-11)))
        CFI (cfiCond38) V9 load(1, XDATA, add(CFA_XSP16, literal(-10)))
        CFI (cfiCond38) V10 load(1, XDATA, add(CFA_XSP16, literal(-9)))
        CFI (cfiCond38) V11 load(1, XDATA, add(CFA_XSP16, literal(-8)))
        CFI (cfiCond38) V12 load(1, XDATA, add(CFA_XSP16, literal(-7)))
        CFI (cfiCond38) R7 load(1, XDATA, add(CFA_XSP16, literal(-6)))
        CFI (cfiCond38) ?RET_LOW load(1, XDATA, add(CFA_XSP16, literal(-5)))
        CFI (cfiCond38) ?RET_HIGH load(1, XDATA, add(CFA_XSP16, literal(-4)))
        CFI (cfiCond38) ?BRET_EXT load(1, XDATA, add(CFA_XSP16, literal(-3)))
        CFI (cfiCond38) DPL0 load(1, XDATA, add(CFA_XSP16, literal(-2)))
        CFI (cfiCond38) DPH0 load(1, XDATA, add(CFA_XSP16, literal(-1)))
        CFI (cfiCond38) CFA_SP SP+0
        CFI (cfiCond38) CFA_XSP16 add(XSP16, 35)
        CFI Block cfiCond39 Using cfiCommon0
        CFI (cfiCond39) NoFunction
        CFI (cfiCond39) Conditional ??CrossCallReturnLabel_57, ??CrossCallReturnLabel_54
        CFI (cfiCond39) R6 load(1, XDATA, add(CFA_XSP16, literal(-21)))
        CFI (cfiCond39) VB load(1, XDATA, add(CFA_XSP16, literal(-20)))
        CFI (cfiCond39) V0 load(1, XDATA, add(CFA_XSP16, literal(-19)))
        CFI (cfiCond39) V1 load(1, XDATA, add(CFA_XSP16, literal(-18)))
        CFI (cfiCond39) V2 load(1, XDATA, add(CFA_XSP16, literal(-17)))
        CFI (cfiCond39) V3 load(1, XDATA, add(CFA_XSP16, literal(-16)))
        CFI (cfiCond39) V4 load(1, XDATA, add(CFA_XSP16, literal(-15)))
        CFI (cfiCond39) V5 load(1, XDATA, add(CFA_XSP16, literal(-14)))
        CFI (cfiCond39) V6 load(1, XDATA, add(CFA_XSP16, literal(-13)))
        CFI (cfiCond39) V7 load(1, XDATA, add(CFA_XSP16, literal(-12)))
        CFI (cfiCond39) V8 load(1, XDATA, add(CFA_XSP16, literal(-11)))
        CFI (cfiCond39) V9 load(1, XDATA, add(CFA_XSP16, literal(-10)))
        CFI (cfiCond39) V10 load(1, XDATA, add(CFA_XSP16, literal(-9)))
        CFI (cfiCond39) V11 load(1, XDATA, add(CFA_XSP16, literal(-8)))
        CFI (cfiCond39) V12 load(1, XDATA, add(CFA_XSP16, literal(-7)))
        CFI (cfiCond39) R7 load(1, XDATA, add(CFA_XSP16, literal(-6)))
        CFI (cfiCond39) ?RET_LOW load(1, XDATA, add(CFA_XSP16, literal(-5)))
        CFI (cfiCond39) ?RET_HIGH load(1, XDATA, add(CFA_XSP16, literal(-4)))
        CFI (cfiCond39) ?BRET_EXT load(1, XDATA, add(CFA_XSP16, literal(-3)))
        CFI (cfiCond39) DPL0 load(1, XDATA, add(CFA_XSP16, literal(-2)))
        CFI (cfiCond39) DPH0 load(1, XDATA, add(CFA_XSP16, literal(-1)))
        CFI (cfiCond39) CFA_SP SP+0
        CFI (cfiCond39) CFA_XSP16 add(XSP16, 35)
        CFI Block cfiCond40 Using cfiCommon0
        CFI (cfiCond40) NoFunction
        CFI (cfiCond40) Conditional ??CrossCallReturnLabel_57, ??CrossCallReturnLabel_55
        CFI (cfiCond40) R6 load(1, XDATA, add(CFA_XSP16, literal(-21)))
        CFI (cfiCond40) VB load(1, XDATA, add(CFA_XSP16, literal(-20)))
        CFI (cfiCond40) V0 load(1, XDATA, add(CFA_XSP16, literal(-19)))
        CFI (cfiCond40) V1 load(1, XDATA, add(CFA_XSP16, literal(-18)))
        CFI (cfiCond40) V2 load(1, XDATA, add(CFA_XSP16, literal(-17)))
        CFI (cfiCond40) V3 load(1, XDATA, add(CFA_XSP16, literal(-16)))
        CFI (cfiCond40) V4 load(1, XDATA, add(CFA_XSP16, literal(-15)))
        CFI (cfiCond40) V5 load(1, XDATA, add(CFA_XSP16, literal(-14)))
        CFI (cfiCond40) V6 load(1, XDATA, add(CFA_XSP16, literal(-13)))
        CFI (cfiCond40) V7 load(1, XDATA, add(CFA_XSP16, literal(-12)))
        CFI (cfiCond40) V8 load(1, XDATA, add(CFA_XSP16, literal(-11)))
        CFI (cfiCond40) V9 load(1, XDATA, add(CFA_XSP16, literal(-10)))
        CFI (cfiCond40) V10 load(1, XDATA, add(CFA_XSP16, literal(-9)))
        CFI (cfiCond40) V11 load(1, XDATA, add(CFA_XSP16, literal(-8)))
        CFI (cfiCond40) V12 load(1, XDATA, add(CFA_XSP16, literal(-7)))
        CFI (cfiCond40) R7 load(1, XDATA, add(CFA_XSP16, literal(-6)))
        CFI (cfiCond40) ?RET_LOW load(1, XDATA, add(CFA_XSP16, literal(-5)))
        CFI (cfiCond40) ?RET_HIGH load(1, XDATA, add(CFA_XSP16, literal(-4)))
        CFI (cfiCond40) ?BRET_EXT load(1, XDATA, add(CFA_XSP16, literal(-3)))
        CFI (cfiCond40) DPL0 load(1, XDATA, add(CFA_XSP16, literal(-2)))
        CFI (cfiCond40) DPH0 load(1, XDATA, add(CFA_XSP16, literal(-1)))
        CFI (cfiCond40) CFA_SP SP+0
        CFI (cfiCond40) CFA_XSP16 add(XSP16, 35)
        CFI Block cfiPicker41 Using cfiCommon1
        CFI (cfiPicker41) NoFunction
        CFI (cfiPicker41) Picker
        ADDC    A,#0x0
        MOV     ?V0 + 3,A
        MOV     DPL,?V0 + 2
        MOV     DPH,A
        RET
        CFI EndBlock cfiCond37
        CFI EndBlock cfiCond38
        CFI EndBlock cfiCond39
        CFI EndBlock cfiCond40
        CFI EndBlock cfiPicker41

        RSEG BANKED_CODE:CODE:NOROOT(0)
?Subroutine13:
        CFI Block cfiCond42 Using cfiCommon0
        CFI NoFunction
        CFI Conditional ??CrossCallReturnLabel_12
        CFI R6 load(1, XDATA, add(CFA_XSP16, literal(-9)))
        CFI VB load(1, XDATA, add(CFA_XSP16, literal(-8)))
        CFI V0 load(1, XDATA, add(CFA_XSP16, literal(-7)))
        CFI R7 load(1, XDATA, add(CFA_XSP16, literal(-6)))
        CFI ?RET_LOW load(1, XDATA, add(CFA_XSP16, literal(-5)))
        CFI ?RET_HIGH load(1, XDATA, add(CFA_XSP16, literal(-4)))
        CFI ?BRET_EXT load(1, XDATA, add(CFA_XSP16, literal(-3)))
        CFI DPL0 load(1, XDATA, add(CFA_XSP16, literal(-2)))
        CFI DPH0 load(1, XDATA, add(CFA_XSP16, literal(-1)))
        CFI CFA_SP SP+0
        CFI CFA_XSP16 add(XSP16, 9)
        CFI Block cfiCond43 Using cfiCommon0
        CFI (cfiCond43) NoFunction
        CFI (cfiCond43) Conditional ??CrossCallReturnLabel_13
        CFI (cfiCond43) R6 load(1, XDATA, add(CFA_XSP16, literal(-21)))
        CFI (cfiCond43) VB load(1, XDATA, add(CFA_XSP16, literal(-20)))
        CFI (cfiCond43) V0 load(1, XDATA, add(CFA_XSP16, literal(-19)))
        CFI (cfiCond43) V1 load(1, XDATA, add(CFA_XSP16, literal(-18)))
        CFI (cfiCond43) V2 load(1, XDATA, add(CFA_XSP16, literal(-17)))
        CFI (cfiCond43) V3 load(1, XDATA, add(CFA_XSP16, literal(-16)))
        CFI (cfiCond43) V4 load(1, XDATA, add(CFA_XSP16, literal(-15)))
        CFI (cfiCond43) V5 load(1, XDATA, add(CFA_XSP16, literal(-14)))
        CFI (cfiCond43) V6 load(1, XDATA, add(CFA_XSP16, literal(-13)))
        CFI (cfiCond43) V7 load(1, XDATA, add(CFA_XSP16, literal(-12)))
        CFI (cfiCond43) V8 load(1, XDATA, add(CFA_XSP16, literal(-11)))
        CFI (cfiCond43) V9 load(1, XDATA, add(CFA_XSP16, literal(-10)))
        CFI (cfiCond43) V10 load(1, XDATA, add(CFA_XSP16, literal(-9)))
        CFI (cfiCond43) V11 load(1, XDATA, add(CFA_XSP16, literal(-8)))
        CFI (cfiCond43) V12 load(1, XDATA, add(CFA_XSP16, literal(-7)))
        CFI (cfiCond43) R7 load(1, XDATA, add(CFA_XSP16, literal(-6)))
        CFI (cfiCond43) ?RET_LOW load(1, XDATA, add(CFA_XSP16, literal(-5)))
        CFI (cfiCond43) ?RET_HIGH load(1, XDATA, add(CFA_XSP16, literal(-4)))
        CFI (cfiCond43) ?BRET_EXT load(1, XDATA, add(CFA_XSP16, literal(-3)))
        CFI (cfiCond43) DPL0 load(1, XDATA, add(CFA_XSP16, literal(-2)))
        CFI (cfiCond43) DPH0 load(1, XDATA, add(CFA_XSP16, literal(-1)))
        CFI (cfiCond43) CFA_SP SP+0
        CFI (cfiCond43) CFA_XSP16 add(XSP16, 35)
        CFI Block cfiCond44 Using cfiCommon0
        CFI (cfiCond44) NoFunction
        CFI (cfiCond44) Conditional ??CrossCallReturnLabel_14
        CFI (cfiCond44) R6 load(1, XDATA, add(CFA_XSP16, literal(-24)))
        CFI (cfiCond44) VB load(1, XDATA, add(CFA_XSP16, literal(-23)))
        CFI (cfiCond44) V0 load(1, XDATA, add(CFA_XSP16, literal(-22)))
        CFI (cfiCond44) V1 load(1, XDATA, add(CFA_XSP16, literal(-21)))
        CFI (cfiCond44) V2 load(1, XDATA, add(CFA_XSP16, literal(-20)))
        CFI (cfiCond44) V3 load(1, XDATA, add(CFA_XSP16, literal(-19)))
        CFI (cfiCond44) V4 load(1, XDATA, add(CFA_XSP16, literal(-18)))
        CFI (cfiCond44) V5 load(1, XDATA, add(CFA_XSP16, literal(-17)))
        CFI (cfiCond44) V6 load(1, XDATA, add(CFA_XSP16, literal(-16)))
        CFI (cfiCond44) V7 load(1, XDATA, add(CFA_XSP16, literal(-15)))
        CFI (cfiCond44) V8 load(1, XDATA, add(CFA_XSP16, literal(-14)))
        CFI (cfiCond44) V9 load(1, XDATA, add(CFA_XSP16, literal(-13)))
        CFI (cfiCond44) V10 load(1, XDATA, add(CFA_XSP16, literal(-12)))
        CFI (cfiCond44) V11 load(1, XDATA, add(CFA_XSP16, literal(-11)))
        CFI (cfiCond44) V12 load(1, XDATA, add(CFA_XSP16, literal(-10)))
        CFI (cfiCond44) V13 load(1, XDATA, add(CFA_XSP16, literal(-9)))
        CFI (cfiCond44) V14 load(1, XDATA, add(CFA_XSP16, literal(-8)))
        CFI (cfiCond44) V15 load(1, XDATA, add(CFA_XSP16, literal(-7)))
        CFI (cfiCond44) R7 load(1, XDATA, add(CFA_XSP16, literal(-6)))
        CFI (cfiCond44) ?RET_LOW load(1, XDATA, add(CFA_XSP16, literal(-5)))
        CFI (cfiCond44) ?RET_HIGH load(1, XDATA, add(CFA_XSP16, literal(-4)))
        CFI (cfiCond44) ?BRET_EXT load(1, XDATA, add(CFA_XSP16, literal(-3)))
        CFI (cfiCond44) DPL0 load(1, XDATA, add(CFA_XSP16, literal(-2)))
        CFI (cfiCond44) DPH0 load(1, XDATA, add(CFA_XSP16, literal(-1)))
        CFI (cfiCond44) CFA_SP SP+0
        CFI (cfiCond44) CFA_XSP16 add(XSP16, 25)
        CFI Block cfiPicker45 Using cfiCommon1
        CFI (cfiPicker45) NoFunction
        CFI (cfiPicker45) Picker
        MOV     R2,#0x8
        MOV     R3,#0x0
        MOV     DPTR,#MT_TaskID
        MOVX    A,@DPTR
        MOV     R1,A
        LCALL   ??osal_set_event?relay
        RET
        CFI EndBlock cfiCond42
        CFI EndBlock cfiCond43
        CFI EndBlock cfiCond44
        CFI EndBlock cfiPicker45

        RSEG BANKED_CODE:CODE:NOROOT(0)
?Subroutine10:
        CFI Block cfiCond46 Using cfiCommon0
        CFI NoFunction
        CFI Conditional ??CrossCallReturnLabel_58
        CFI R6 load(1, XDATA, add(CFA_XSP16, literal(-21)))
        CFI VB load(1, XDATA, add(CFA_XSP16, literal(-20)))
        CFI V0 load(1, XDATA, add(CFA_XSP16, literal(-19)))
        CFI V1 load(1, XDATA, add(CFA_XSP16, literal(-18)))
        CFI V2 load(1, XDATA, add(CFA_XSP16, literal(-17)))
        CFI V3 load(1, XDATA, add(CFA_XSP16, literal(-16)))
        CFI V4 load(1, XDATA, add(CFA_XSP16, literal(-15)))
        CFI V5 load(1, XDATA, add(CFA_XSP16, literal(-14)))
        CFI V6 load(1, XDATA, add(CFA_XSP16, literal(-13)))
        CFI V7 load(1, XDATA, add(CFA_XSP16, literal(-12)))
        CFI V8 load(1, XDATA, add(CFA_XSP16, literal(-11)))
        CFI V9 load(1, XDATA, add(CFA_XSP16, literal(-10)))
        CFI V10 load(1, XDATA, add(CFA_XSP16, literal(-9)))
        CFI V11 load(1, XDATA, add(CFA_XSP16, literal(-8)))
        CFI V12 load(1, XDATA, add(CFA_XSP16, literal(-7)))
        CFI R7 load(1, XDATA, add(CFA_XSP16, literal(-6)))
        CFI ?RET_LOW load(1, XDATA, add(CFA_XSP16, literal(-5)))
        CFI ?RET_HIGH load(1, XDATA, add(CFA_XSP16, literal(-4)))
        CFI ?BRET_EXT load(1, XDATA, add(CFA_XSP16, literal(-3)))
        CFI DPL0 load(1, XDATA, add(CFA_XSP16, literal(-2)))
        CFI DPH0 load(1, XDATA, add(CFA_XSP16, literal(-1)))
        CFI CFA_SP SP+0
        CFI CFA_XSP16 add(XSP16, 35)
        CFI Block cfiCond47 Using cfiCommon0
        CFI (cfiCond47) NoFunction
        CFI (cfiCond47) Conditional ??CrossCallReturnLabel_59
        CFI (cfiCond47) R6 load(1, XDATA, add(CFA_XSP16, literal(-24)))
        CFI (cfiCond47) VB load(1, XDATA, add(CFA_XSP16, literal(-23)))
        CFI (cfiCond47) V0 load(1, XDATA, add(CFA_XSP16, literal(-22)))
        CFI (cfiCond47) V1 load(1, XDATA, add(CFA_XSP16, literal(-21)))
        CFI (cfiCond47) V2 load(1, XDATA, add(CFA_XSP16, literal(-20)))
        CFI (cfiCond47) V3 load(1, XDATA, add(CFA_XSP16, literal(-19)))
        CFI (cfiCond47) V4 load(1, XDATA, add(CFA_XSP16, literal(-18)))
        CFI (cfiCond47) V5 load(1, XDATA, add(CFA_XSP16, literal(-17)))
        CFI (cfiCond47) V6 load(1, XDATA, add(CFA_XSP16, literal(-16)))
        CFI (cfiCond47) V7 load(1, XDATA, add(CFA_XSP16, literal(-15)))
        CFI (cfiCond47) V8 load(1, XDATA, add(CFA_XSP16, literal(-14)))
        CFI (cfiCond47) V9 load(1, XDATA, add(CFA_XSP16, literal(-13)))
        CFI (cfiCond47) V10 load(1, XDATA, add(CFA_XSP16, literal(-12)))
        CFI (cfiCond47) V11 load(1, XDATA, add(CFA_XSP16, literal(-11)))
        CFI (cfiCond47) V12 load(1, XDATA, add(CFA_XSP16, literal(-10)))
        CFI (cfiCond47) V13 load(1, XDATA, add(CFA_XSP16, literal(-9)))
        CFI (cfiCond47) V14 load(1, XDATA, add(CFA_XSP16, literal(-8)))
        CFI (cfiCond47) V15 load(1, XDATA, add(CFA_XSP16, literal(-7)))
        CFI (cfiCond47) R7 load(1, XDATA, add(CFA_XSP16, literal(-6)))
        CFI (cfiCond47) ?RET_LOW load(1, XDATA, add(CFA_XSP16, literal(-5)))
        CFI (cfiCond47) ?RET_HIGH load(1, XDATA, add(CFA_XSP16, literal(-4)))
        CFI (cfiCond47) ?BRET_EXT load(1, XDATA, add(CFA_XSP16, literal(-3)))
        CFI (cfiCond47) DPL0 load(1, XDATA, add(CFA_XSP16, literal(-2)))
        CFI (cfiCond47) DPH0 load(1, XDATA, add(CFA_XSP16, literal(-1)))
        CFI (cfiCond47) CFA_SP SP+0
        CFI (cfiCond47) CFA_XSP16 add(XSP16, 25)
        CFI Block cfiPicker48 Using cfiCommon1
        CFI (cfiPicker48) NoFunction
        CFI (cfiPicker48) Picker
        MOVX    @DPTR,A
        CFI EndBlock cfiCond46
        CFI EndBlock cfiCond47
        CFI EndBlock cfiPicker48
        ; Setup parameters for call to function osal_start_timerEx
        ; Setup parameters for call to function osal_start_timerEx
        REQUIRE ??Subroutine38_0
        ; // Fall through to label ??Subroutine38_0

        RSEG BANKED_CODE:CODE:NOROOT(0)
??Subroutine38_0:
        CFI Block cfiCond49 Using cfiCommon0
        CFI NoFunction
        CFI Conditional ??CrossCallReturnLabel_60
        CFI R6 load(1, XDATA, add(CFA_XSP16, literal(-9)))
        CFI VB load(1, XDATA, add(CFA_XSP16, literal(-8)))
        CFI V0 load(1, XDATA, add(CFA_XSP16, literal(-7)))
        CFI R7 load(1, XDATA, add(CFA_XSP16, literal(-6)))
        CFI ?RET_LOW load(1, XDATA, add(CFA_XSP16, literal(-5)))
        CFI ?RET_HIGH load(1, XDATA, add(CFA_XSP16, literal(-4)))
        CFI ?BRET_EXT load(1, XDATA, add(CFA_XSP16, literal(-3)))
        CFI DPL0 load(1, XDATA, add(CFA_XSP16, literal(-2)))
        CFI DPH0 load(1, XDATA, add(CFA_XSP16, literal(-1)))
        CFI CFA_SP SP+0
        CFI CFA_XSP16 add(XSP16, 9)
        CFI Block cfiCond50 Using cfiCommon0
        CFI (cfiCond50) NoFunction
        CFI (cfiCond50) Conditional ??CrossCallReturnLabel_58
        CFI (cfiCond50) R6 load(1, XDATA, add(CFA_XSP16, literal(-21)))
        CFI (cfiCond50) VB load(1, XDATA, add(CFA_XSP16, literal(-20)))
        CFI (cfiCond50) V0 load(1, XDATA, add(CFA_XSP16, literal(-19)))
        CFI (cfiCond50) V1 load(1, XDATA, add(CFA_XSP16, literal(-18)))
        CFI (cfiCond50) V2 load(1, XDATA, add(CFA_XSP16, literal(-17)))
        CFI (cfiCond50) V3 load(1, XDATA, add(CFA_XSP16, literal(-16)))
        CFI (cfiCond50) V4 load(1, XDATA, add(CFA_XSP16, literal(-15)))
        CFI (cfiCond50) V5 load(1, XDATA, add(CFA_XSP16, literal(-14)))
        CFI (cfiCond50) V6 load(1, XDATA, add(CFA_XSP16, literal(-13)))
        CFI (cfiCond50) V7 load(1, XDATA, add(CFA_XSP16, literal(-12)))
        CFI (cfiCond50) V8 load(1, XDATA, add(CFA_XSP16, literal(-11)))
        CFI (cfiCond50) V9 load(1, XDATA, add(CFA_XSP16, literal(-10)))
        CFI (cfiCond50) V10 load(1, XDATA, add(CFA_XSP16, literal(-9)))
        CFI (cfiCond50) V11 load(1, XDATA, add(CFA_XSP16, literal(-8)))
        CFI (cfiCond50) V12 load(1, XDATA, add(CFA_XSP16, literal(-7)))
        CFI (cfiCond50) R7 load(1, XDATA, add(CFA_XSP16, literal(-6)))
        CFI (cfiCond50) ?RET_LOW load(1, XDATA, add(CFA_XSP16, literal(-5)))
        CFI (cfiCond50) ?RET_HIGH load(1, XDATA, add(CFA_XSP16, literal(-4)))
        CFI (cfiCond50) ?BRET_EXT load(1, XDATA, add(CFA_XSP16, literal(-3)))
        CFI (cfiCond50) DPL0 load(1, XDATA, add(CFA_XSP16, literal(-2)))
        CFI (cfiCond50) DPH0 load(1, XDATA, add(CFA_XSP16, literal(-1)))
        CFI (cfiCond50) CFA_SP SP+0
        CFI (cfiCond50) CFA_XSP16 add(XSP16, 35)
        CFI Block cfiCond51 Using cfiCommon0
        CFI (cfiCond51) NoFunction
        CFI (cfiCond51) Conditional ??CrossCallReturnLabel_59
        CFI (cfiCond51) R6 load(1, XDATA, add(CFA_XSP16, literal(-24)))
        CFI (cfiCond51) VB load(1, XDATA, add(CFA_XSP16, literal(-23)))
        CFI (cfiCond51) V0 load(1, XDATA, add(CFA_XSP16, literal(-22)))
        CFI (cfiCond51) V1 load(1, XDATA, add(CFA_XSP16, literal(-21)))
        CFI (cfiCond51) V2 load(1, XDATA, add(CFA_XSP16, literal(-20)))
        CFI (cfiCond51) V3 load(1, XDATA, add(CFA_XSP16, literal(-19)))
        CFI (cfiCond51) V4 load(1, XDATA, add(CFA_XSP16, literal(-18)))
        CFI (cfiCond51) V5 load(1, XDATA, add(CFA_XSP16, literal(-17)))
        CFI (cfiCond51) V6 load(1, XDATA, add(CFA_XSP16, literal(-16)))
        CFI (cfiCond51) V7 load(1, XDATA, add(CFA_XSP16, literal(-15)))
        CFI (cfiCond51) V8 load(1, XDATA, add(CFA_XSP16, literal(-14)))
        CFI (cfiCond51) V9 load(1, XDATA, add(CFA_XSP16, literal(-13)))
        CFI (cfiCond51) V10 load(1, XDATA, add(CFA_XSP16, literal(-12)))
        CFI (cfiCond51) V11 load(1, XDATA, add(CFA_XSP16, literal(-11)))
        CFI (cfiCond51) V12 load(1, XDATA, add(CFA_XSP16, literal(-10)))
        CFI (cfiCond51) V13 load(1, XDATA, add(CFA_XSP16, literal(-9)))
        CFI (cfiCond51) V14 load(1, XDATA, add(CFA_XSP16, literal(-8)))
        CFI (cfiCond51) V15 load(1, XDATA, add(CFA_XSP16, literal(-7)))
        CFI (cfiCond51) R7 load(1, XDATA, add(CFA_XSP16, literal(-6)))
        CFI (cfiCond51) ?RET_LOW load(1, XDATA, add(CFA_XSP16, literal(-5)))
        CFI (cfiCond51) ?RET_HIGH load(1, XDATA, add(CFA_XSP16, literal(-4)))
        CFI (cfiCond51) ?BRET_EXT load(1, XDATA, add(CFA_XSP16, literal(-3)))
        CFI (cfiCond51) DPL0 load(1, XDATA, add(CFA_XSP16, literal(-2)))
        CFI (cfiCond51) DPH0 load(1, XDATA, add(CFA_XSP16, literal(-1)))
        CFI (cfiCond51) CFA_SP SP+0
        CFI (cfiCond51) CFA_XSP16 add(XSP16, 25)
        CFI Block cfiPicker52 Using cfiCommon1
        CFI (cfiPicker52) NoFunction
        CFI (cfiPicker52) Picker
        MOV     R4,#-0x18
        MOV     R5,#0x3
        MOV     R2,#0x8
        MOV     R3,#0x0
        MOV     DPTR,#MT_TaskID
        MOVX    A,@DPTR
        MOV     R1,A
        LCALL   ??osal_start_timerEx?relay
        MOV     A,R1
        RET
        CFI EndBlock cfiCond49
        CFI EndBlock cfiCond50
        CFI EndBlock cfiCond51
        CFI EndBlock cfiPicker52
//  439 
//  440 #if defined ( ZIGBEE_SOURCE_ROUTING )
//  441 
//  442 /***************************************************************************************************
//  443  * @fn      MT_AfDataRequestSrcRtg
//  444  *
//  445  * @brief   Process AF Register command
//  446  *
//  447  * @param   pBuf - pointer to the received buffer
//  448  *
//  449  * @return  none
//  450  ***************************************************************************************************/
//  451 void MT_AfDataRequestSrcRtg(uint8 *pBuf)
//  452 {
//  453   uint8 cmdId, dataLen = 0;
//  454   uint8 retValue = ZFailure;
//  455   endPointDesc_t *epDesc;
//  456   byte transId;
//  457   afAddrType_t dstAddr;
//  458   cId_t cId;
//  459   byte txOpts, radius, srcEP, relayCnt;
//  460   uint16 *pRelayList;
//  461   uint8 i;
//  462 
//  463   /* parse header */
//  464   cmdId = pBuf[MT_RPC_POS_CMD1];
//  465   pBuf += MT_RPC_FRAME_HDR_SZ;
//  466 
//  467   /* Destination address */
//  468   /* Initialize the panID field to zero to avoid inter-pan */
//  469   osal_memset( &dstAddr, 0, sizeof(afAddrType_t) ); 
//  470   dstAddr.addrMode = afAddr16Bit;
//  471   dstAddr.addr.shortAddr = BUILD_UINT16(pBuf[0], pBuf[1]);
//  472   pBuf += 2;
//  473 
//  474   /* Destination endpoint */
//  475   dstAddr.endPoint = *pBuf++;
//  476 
//  477   /* Source endpoint */
//  478   srcEP = *pBuf++;
//  479   epDesc = afFindEndPointDesc( srcEP );
//  480 
//  481   /* ClusterId */
//  482   cId = BUILD_UINT16(pBuf[0], pBuf[1]);
//  483   pBuf +=2;
//  484 
//  485   /* TransId */
//  486   transId = *pBuf++;
//  487 
//  488   /* TxOption */
//  489   txOpts = *pBuf++;
//  490 
//  491   /* Radius */
//  492   radius = *pBuf++;
//  493   
//  494   /* Source route relay count */
//  495   relayCnt = *pBuf++;
//  496   
//  497   /* Convert the source route relay list */
//  498   if( (pRelayList = osal_mem_alloc( relayCnt * sizeof( uint16 ))) != NULL )
//  499   {
//  500     for( i = 0; i < relayCnt; i++ )
//  501     {
//  502       pRelayList[i]  = BUILD_UINT16( pBuf[0], pBuf[1] );
//  503       pBuf += 2;
//  504     }
//  505   
//  506     /* Data payload Length */
//  507     dataLen = *pBuf++;
//  508 
//  509     if ( epDesc == NULL )
//  510     {
//  511       retValue = afStatus_INVALID_PARAMETER;
//  512     }
//  513     else
//  514     {
//  515       retValue = AF_DataRequestSrcRtg( &dstAddr, epDesc, cId, dataLen, pBuf, 
//  516                                      &transId, txOpts, radius, relayCnt, pRelayList );
//  517     }
//  518     
//  519     /* Free the memory allocated */
//  520     osal_mem_free( pRelayList );
//  521   }
//  522   else
//  523   {
//  524     retValue = afStatus_MEM_FAIL;
//  525   }
//  526     
//  527 
//  528   /* Build and send back the response */
//  529   MT_BuildAndSendZToolResponse(((uint8)MT_RPC_CMD_SRSP | (uint8)MT_RPC_SYS_AF), cmdId, 1, &retValue);
//  530 }
//  531 #endif
//  532 
//  533 #if defined INTER_PAN
//  534 /***************************************************************************************************
//  535  * @fn      MT_AfInterPanCtl
//  536  *
//  537  * @brief   Process the AF Inter Pan control command.
//  538  *
//  539  * @param   pBuf - pointer to the received buffer
//  540  *
//  541  * @return  none
//  542  ***************************************************************************************************/
//  543 static void MT_AfInterPanCtl(uint8 *pBuf)
//  544 {
//  545   uint8 cmd, rtrn;
//  546   uint16 panId;
//  547   endPointDesc_t *pEP;
//  548   
//  549   cmd = pBuf[MT_RPC_POS_CMD1];
//  550   pBuf += MT_RPC_FRAME_HDR_SZ;
//  551 
//  552   switch (*pBuf++)  // Inter-pan request parameter.
//  553   {
//  554   case InterPanClr:
//  555     rtrn = StubAPS_SetIntraPanChannel();           // Switch channel back to the NIB channel.
//  556     break;
//  557 
//  558   case InterPanSet:
//  559     rtrn = StubAPS_SetInterPanChannel(*pBuf);      // Set channel for inter-pan communication.
//  560     break;
//  561 
//  562   case InterPanReg:
//  563     if ((pEP = afFindEndPointDesc(*pBuf)))
//  564     {
//  565       StubAPS_RegisterApp(pEP);
//  566       rtrn = SUCCESS;
//  567     }
//  568     else
//  569     {
//  570       rtrn = FAILURE;
//  571     }
//  572     break;
//  573 
//  574   case InterPanChk:
//  575     panId = BUILD_UINT16(pBuf[0], pBuf[1]);
//  576     rtrn = (StubAPS_InterPan(panId, pBuf[2])) ? ZSuccess : ZFailure;
//  577     break;
//  578 
//  579   default:
//  580     rtrn = afStatus_INVALID_PARAMETER;
//  581     break;
//  582   }
//  583 
//  584   MT_BuildAndSendZToolResponse(((uint8)MT_RPC_CMD_SRSP | (uint8)MT_RPC_SYS_AF), cmd, 1, &rtrn);
//  585 }
//  586 #endif
//  587 
//  588 /***************************************************************************************************
//  589  * @fn      MT_AfDataConfirm
//  590  *
//  591  * @brief   Process
//  592  *
//  593  * @param   pBuf - pointer to the received buffer
//  594  *
//  595  * @return  none
//  596  ***************************************************************************************************/

        RSEG BANKED_CODE:CODE:NOROOT(0)
//  597 void MT_AfDataConfirm(afDataConfirm_t *pMsg)
MT_AfDataConfirm:
        CFI Block cfiBlock53 Using cfiCommon0
        CFI Function MT_AfDataConfirm
//  598 {
        FUNCALL MT_AfDataConfirm, MT_BuildAndSendZToolResponse
        LOCFRAME ISTACK, 2, STACK
        LOCFRAME PSTACK, 0, STACK
        LOCFRAME XSTACK, 3, STACK
        LOCFRAME IOVERLAY, 0, STATIC
        LOCFRAME DOVERLAY, 0, STATIC
        ARGFRAME ISTACK, 2, STACK
        ARGFRAME PSTACK, 0, STACK
        ARGFRAME XSTACK, 3, STACK
        ARGFRAME IOVERLAY, 0, STATIC
        ARGFRAME DOVERLAY, 0, STATIC
        PUSH    DPL
        CFI DPL0 Frame(CFA_SP, 4)
        CFI CFA_SP SP+-4
        PUSH    DPH
        CFI DPH0 Frame(CFA_SP, 5)
        CFI CFA_SP SP+-5
        ; Saved register size: 2
        ; Auto size: 3
        MOV     A,#-0x3
        LCALL   ?ALLOC_XSTACK8
        CFI CFA_XSP16 add(XSP16, 3)
//  599   uint8 retArray[3];
//  600 
//  601   retArray[0] = pMsg->hdr.status;
        MOV     DPL,R2
        MOV     DPH,R3
        INC     DPTR
        MOVX    A,@DPTR
        LCALL   ?Subroutine21 & 0xFFFF
//  602   retArray[1] = pMsg->endpoint;
??CrossCallReturnLabel_31:
        PUSH    A
        CFI CFA_SP SP+-6
        MOV     A,#0x1
        LCALL   ?XSTACK_DISP0_8
        POP     A
        CFI CFA_SP SP+-5
        LCALL   ?Subroutine22 & 0xFFFF
//  603   retArray[2] = pMsg->transID;
??CrossCallReturnLabel_33:
        INC     DPTR
        INC     DPTR
        MOVX    A,@DPTR
        PUSH    A
        CFI CFA_SP SP+-6
        MOV     A,#0x2
        LCALL   ?XSTACK_DISP0_8
        POP     A
        CFI CFA_SP SP+-5
        LCALL   ?Subroutine18 & 0xFFFF
//  604 
//  605   /* Build and send back the response */
//  606   MT_BuildAndSendZToolResponse(((uint8)MT_RPC_CMD_AREQ | (uint8)MT_RPC_SYS_AF), MT_AF_DATA_CONFIRM, 3, retArray);
??CrossCallReturnLabel_23:
        MOV     R3,#0x3
        MOV     R2,#-0x80
        MOV     R1,#0x44
        LCALL   ??MT_BuildAndSendZToolResponse?relay
//  607 }
        MOV     A,#0x3
        LCALL   ?DEALLOC_XSTACK8
        CFI CFA_XSP16 XSP16+0
        POP     DPH
        CFI DPH0 SameValue
        CFI CFA_SP SP+-4
        POP     DPL
        CFI DPL0 SameValue
        CFI CFA_SP SP+-3
        LJMP    ?BRET
        CFI EndBlock cfiBlock53

        RSEG BANKED_CODE:CODE:NOROOT(0)
?Subroutine22:
        CFI Block cfiCond54 Using cfiCommon0
        CFI NoFunction
        CFI Conditional ??CrossCallReturnLabel_32
        CFI R6 load(1, XDATA, add(CFA_XSP16, literal(-21)))
        CFI VB load(1, XDATA, add(CFA_XSP16, literal(-20)))
        CFI V0 load(1, XDATA, add(CFA_XSP16, literal(-19)))
        CFI V1 load(1, XDATA, add(CFA_XSP16, literal(-18)))
        CFI V2 load(1, XDATA, add(CFA_XSP16, literal(-17)))
        CFI V3 load(1, XDATA, add(CFA_XSP16, literal(-16)))
        CFI V4 load(1, XDATA, add(CFA_XSP16, literal(-15)))
        CFI V5 load(1, XDATA, add(CFA_XSP16, literal(-14)))
        CFI V6 load(1, XDATA, add(CFA_XSP16, literal(-13)))
        CFI V7 load(1, XDATA, add(CFA_XSP16, literal(-12)))
        CFI V8 load(1, XDATA, add(CFA_XSP16, literal(-11)))
        CFI V9 load(1, XDATA, add(CFA_XSP16, literal(-10)))
        CFI V10 load(1, XDATA, add(CFA_XSP16, literal(-9)))
        CFI V11 load(1, XDATA, add(CFA_XSP16, literal(-8)))
        CFI V12 load(1, XDATA, add(CFA_XSP16, literal(-7)))
        CFI R7 load(1, XDATA, add(CFA_XSP16, literal(-6)))
        CFI ?RET_LOW load(1, XDATA, add(CFA_XSP16, literal(-5)))
        CFI ?RET_HIGH load(1, XDATA, add(CFA_XSP16, literal(-4)))
        CFI ?BRET_EXT load(1, XDATA, add(CFA_XSP16, literal(-3)))
        CFI DPL0 load(1, XDATA, add(CFA_XSP16, literal(-2)))
        CFI DPH0 load(1, XDATA, add(CFA_XSP16, literal(-1)))
        CFI CFA_SP SP+0
        CFI CFA_XSP16 add(XSP16, 35)
        CFI Block cfiCond55 Using cfiCommon0
        CFI (cfiCond55) NoFunction
        CFI (cfiCond55) Conditional ??CrossCallReturnLabel_33
        CFI (cfiCond55) DPL0 Frame(CFA_SP, 4)
        CFI (cfiCond55) DPH0 Frame(CFA_SP, 5)
        CFI (cfiCond55) CFA_SP SP+-5
        CFI (cfiCond55) CFA_XSP16 add(XSP16, 3)
        CFI Block cfiCond56 Using cfiCommon0
        CFI (cfiCond56) NoFunction
        CFI (cfiCond56) Conditional ??CrossCallReturnLabel_34
        CFI (cfiCond56) R6 load(1, XDATA, add(CFA_XSP16, literal(-24)))
        CFI (cfiCond56) VB load(1, XDATA, add(CFA_XSP16, literal(-23)))
        CFI (cfiCond56) V0 load(1, XDATA, add(CFA_XSP16, literal(-22)))
        CFI (cfiCond56) V1 load(1, XDATA, add(CFA_XSP16, literal(-21)))
        CFI (cfiCond56) V2 load(1, XDATA, add(CFA_XSP16, literal(-20)))
        CFI (cfiCond56) V3 load(1, XDATA, add(CFA_XSP16, literal(-19)))
        CFI (cfiCond56) V4 load(1, XDATA, add(CFA_XSP16, literal(-18)))
        CFI (cfiCond56) V5 load(1, XDATA, add(CFA_XSP16, literal(-17)))
        CFI (cfiCond56) V6 load(1, XDATA, add(CFA_XSP16, literal(-16)))
        CFI (cfiCond56) V7 load(1, XDATA, add(CFA_XSP16, literal(-15)))
        CFI (cfiCond56) V8 load(1, XDATA, add(CFA_XSP16, literal(-14)))
        CFI (cfiCond56) V9 load(1, XDATA, add(CFA_XSP16, literal(-13)))
        CFI (cfiCond56) V10 load(1, XDATA, add(CFA_XSP16, literal(-12)))
        CFI (cfiCond56) V11 load(1, XDATA, add(CFA_XSP16, literal(-11)))
        CFI (cfiCond56) V12 load(1, XDATA, add(CFA_XSP16, literal(-10)))
        CFI (cfiCond56) V13 load(1, XDATA, add(CFA_XSP16, literal(-9)))
        CFI (cfiCond56) V14 load(1, XDATA, add(CFA_XSP16, literal(-8)))
        CFI (cfiCond56) V15 load(1, XDATA, add(CFA_XSP16, literal(-7)))
        CFI (cfiCond56) R7 load(1, XDATA, add(CFA_XSP16, literal(-6)))
        CFI (cfiCond56) ?RET_LOW load(1, XDATA, add(CFA_XSP16, literal(-5)))
        CFI (cfiCond56) ?RET_HIGH load(1, XDATA, add(CFA_XSP16, literal(-4)))
        CFI (cfiCond56) ?BRET_EXT load(1, XDATA, add(CFA_XSP16, literal(-3)))
        CFI (cfiCond56) DPL0 load(1, XDATA, add(CFA_XSP16, literal(-2)))
        CFI (cfiCond56) DPH0 load(1, XDATA, add(CFA_XSP16, literal(-1)))
        CFI (cfiCond56) CFA_SP SP+0
        CFI (cfiCond56) CFA_XSP16 add(XSP16, 25)
        CFI Block cfiPicker57 Using cfiCommon1
        CFI (cfiPicker57) NoFunction
        CFI (cfiPicker57) Picker
        MOVX    @DPTR,A
        MOV     DPL,R2
        MOV     DPH,R3
        INC     DPTR
        RET
        CFI EndBlock cfiCond54
        CFI EndBlock cfiCond55
        CFI EndBlock cfiCond56
        CFI EndBlock cfiPicker57

        RSEG BANKED_CODE:CODE:NOROOT(0)
?Subroutine21:
        CFI Block cfiCond58 Using cfiCommon0
        CFI NoFunction
        CFI Conditional ??CrossCallReturnLabel_30
        CFI R6 load(1, XDATA, add(CFA_XSP16, literal(-14)))
        CFI VB load(1, XDATA, add(CFA_XSP16, literal(-13)))
        CFI V0 load(1, XDATA, add(CFA_XSP16, literal(-12)))
        CFI V1 load(1, XDATA, add(CFA_XSP16, literal(-11)))
        CFI V2 load(1, XDATA, add(CFA_XSP16, literal(-10)))
        CFI V3 load(1, XDATA, add(CFA_XSP16, literal(-9)))
        CFI V4 load(1, XDATA, add(CFA_XSP16, literal(-8)))
        CFI V5 load(1, XDATA, add(CFA_XSP16, literal(-7)))
        CFI R7 load(1, XDATA, add(CFA_XSP16, literal(-6)))
        CFI ?RET_LOW load(1, XDATA, add(CFA_XSP16, literal(-5)))
        CFI ?RET_HIGH load(1, XDATA, add(CFA_XSP16, literal(-4)))
        CFI ?BRET_EXT load(1, XDATA, add(CFA_XSP16, literal(-3)))
        CFI DPL0 load(1, XDATA, add(CFA_XSP16, literal(-2)))
        CFI DPH0 load(1, XDATA, add(CFA_XSP16, literal(-1)))
        CFI CFA_SP SP+0
        CFI CFA_XSP16 add(XSP16, 15)
        CFI Block cfiCond59 Using cfiCommon0
        CFI (cfiCond59) NoFunction
        CFI (cfiCond59) Conditional ??CrossCallReturnLabel_31
        CFI (cfiCond59) DPL0 Frame(CFA_SP, 4)
        CFI (cfiCond59) DPH0 Frame(CFA_SP, 5)
        CFI (cfiCond59) CFA_SP SP+-5
        CFI (cfiCond59) CFA_XSP16 add(XSP16, 3)
        CFI Block cfiPicker60 Using cfiCommon1
        CFI (cfiPicker60) NoFunction
        CFI (cfiPicker60) Picker
        MOV     DPL,?XSP + 0
        MOV     DPH,?XSP + 1
        MOVX    @DPTR,A
        MOV     DPL,R2
        MOV     DPH,R3
        INC     DPTR
        INC     DPTR
        MOVX    A,@DPTR
        RET
        CFI EndBlock cfiCond58
        CFI EndBlock cfiCond59
        CFI EndBlock cfiPicker60
//  608 
//  609 /***************************************************************************************************
//  610  * @fn          MT_AfIncomingMsg
//  611  *
//  612  * @brief       Process the callback subscription for AF Incoming data.
//  613  *
//  614  * @param       pkt - Incoming AF data.
//  615  *
//  616  * @return      none
//  617  ***************************************************************************************************/

        RSEG BANKED_CODE:CODE:NOROOT(0)
//  618 void MT_AfIncomingMsg(afIncomingMSGPacket_t *pMsg)
MT_AfIncomingMsg:
        CFI Block cfiBlock61 Using cfiCommon0
        CFI Function MT_AfIncomingMsg
//  619 {
        FUNCALL MT_AfIncomingMsg, osal_mem_alloc
        LOCFRAME ISTACK, 0, STACK
        LOCFRAME PSTACK, 0, STACK
        LOCFRAME XSTACK, 25, STACK
        LOCFRAME IOVERLAY, 0, STATIC
        LOCFRAME DOVERLAY, 0, STATIC
        ARGFRAME ISTACK, 0, STACK
        ARGFRAME PSTACK, 0, STACK
        ARGFRAME XSTACK, 25, STACK
        ARGFRAME IOVERLAY, 0, STATIC
        ARGFRAME DOVERLAY, 0, STATIC
        FUNCALL MT_AfIncomingMsg, osal_mem_alloc
        LOCFRAME ISTACK, 0, STACK
        LOCFRAME PSTACK, 0, STACK
        LOCFRAME XSTACK, 25, STACK
        LOCFRAME IOVERLAY, 0, STATIC
        LOCFRAME DOVERLAY, 0, STATIC
        ARGFRAME ISTACK, 0, STACK
        ARGFRAME PSTACK, 0, STACK
        ARGFRAME XSTACK, 25, STACK
        ARGFRAME IOVERLAY, 0, STATIC
        ARGFRAME DOVERLAY, 0, STATIC
        FUNCALL MT_AfIncomingMsg, osal_mem_free
        LOCFRAME ISTACK, 0, STACK
        LOCFRAME PSTACK, 0, STACK
        LOCFRAME XSTACK, 25, STACK
        LOCFRAME IOVERLAY, 0, STATIC
        LOCFRAME DOVERLAY, 0, STATIC
        ARGFRAME ISTACK, 0, STACK
        ARGFRAME PSTACK, 0, STACK
        ARGFRAME XSTACK, 25, STACK
        ARGFRAME IOVERLAY, 0, STATIC
        ARGFRAME DOVERLAY, 0, STATIC
        FUNCALL MT_AfIncomingMsg, osal_memcpy
        LOCFRAME ISTACK, 0, STACK
        LOCFRAME PSTACK, 0, STACK
        LOCFRAME XSTACK, 28, STACK
        LOCFRAME IOVERLAY, 0, STATIC
        LOCFRAME DOVERLAY, 0, STATIC
        ARGFRAME ISTACK, 0, STACK
        ARGFRAME PSTACK, 0, STACK
        ARGFRAME XSTACK, 28, STACK
        ARGFRAME IOVERLAY, 0, STATIC
        ARGFRAME DOVERLAY, 0, STATIC
        FUNCALL MT_AfIncomingMsg, osal_start_timerEx
        LOCFRAME ISTACK, 0, STACK
        LOCFRAME PSTACK, 0, STACK
        LOCFRAME XSTACK, 25, STACK
        LOCFRAME IOVERLAY, 0, STATIC
        LOCFRAME DOVERLAY, 0, STATIC
        ARGFRAME ISTACK, 0, STACK
        ARGFRAME PSTACK, 0, STACK
        ARGFRAME XSTACK, 25, STACK
        ARGFRAME IOVERLAY, 0, STATIC
        ARGFRAME DOVERLAY, 0, STATIC
        FUNCALL MT_AfIncomingMsg, osal_set_event
        LOCFRAME ISTACK, 0, STACK
        LOCFRAME PSTACK, 0, STACK
        LOCFRAME XSTACK, 25, STACK
        LOCFRAME IOVERLAY, 0, STATIC
        LOCFRAME DOVERLAY, 0, STATIC
        ARGFRAME ISTACK, 0, STACK
        ARGFRAME PSTACK, 0, STACK
        ARGFRAME XSTACK, 25, STACK
        ARGFRAME IOVERLAY, 0, STATIC
        ARGFRAME DOVERLAY, 0, STATIC
        FUNCALL MT_AfIncomingMsg, osal_memcpy
        LOCFRAME ISTACK, 0, STACK
        LOCFRAME PSTACK, 0, STACK
        LOCFRAME XSTACK, 28, STACK
        LOCFRAME IOVERLAY, 0, STATIC
        LOCFRAME DOVERLAY, 0, STATIC
        ARGFRAME ISTACK, 0, STACK
        ARGFRAME PSTACK, 0, STACK
        ARGFRAME XSTACK, 28, STACK
        ARGFRAME IOVERLAY, 0, STATIC
        ARGFRAME DOVERLAY, 0, STATIC
        FUNCALL MT_AfIncomingMsg, osal_memcpy
        LOCFRAME ISTACK, 0, STACK
        LOCFRAME PSTACK, 0, STACK
        LOCFRAME XSTACK, 28, STACK
        LOCFRAME IOVERLAY, 0, STATIC
        LOCFRAME DOVERLAY, 0, STATIC
        ARGFRAME ISTACK, 0, STACK
        ARGFRAME PSTACK, 0, STACK
        ARGFRAME XSTACK, 28, STACK
        ARGFRAME IOVERLAY, 0, STATIC
        ARGFRAME DOVERLAY, 0, STATIC
        FUNCALL MT_AfIncomingMsg, MT_BuildAndSendZToolResponse
        LOCFRAME ISTACK, 0, STACK
        LOCFRAME PSTACK, 0, STACK
        LOCFRAME XSTACK, 25, STACK
        LOCFRAME IOVERLAY, 0, STATIC
        LOCFRAME DOVERLAY, 0, STATIC
        ARGFRAME ISTACK, 0, STACK
        ARGFRAME PSTACK, 0, STACK
        ARGFRAME XSTACK, 25, STACK
        ARGFRAME IOVERLAY, 0, STATIC
        ARGFRAME DOVERLAY, 0, STATIC
        FUNCALL MT_AfIncomingMsg, osal_mem_free
        LOCFRAME ISTACK, 0, STACK
        LOCFRAME PSTACK, 0, STACK
        LOCFRAME XSTACK, 25, STACK
        LOCFRAME IOVERLAY, 0, STATIC
        LOCFRAME DOVERLAY, 0, STATIC
        ARGFRAME ISTACK, 0, STACK
        ARGFRAME PSTACK, 0, STACK
        ARGFRAME XSTACK, 25, STACK
        ARGFRAME IOVERLAY, 0, STATIC
        ARGFRAME DOVERLAY, 0, STATIC
        MOV     A,#-0x18
        LCALL   ?BANKED_ENTER_XDATA
        CFI DPH0 load(1, XDATA, add(CFA_XSP16, literal(-1)))
        CFI DPL0 load(1, XDATA, add(CFA_XSP16, literal(-2)))
        CFI ?BRET_EXT load(1, XDATA, add(CFA_XSP16, literal(-3)))
        CFI ?RET_HIGH load(1, XDATA, add(CFA_XSP16, literal(-4)))
        CFI ?RET_LOW load(1, XDATA, add(CFA_XSP16, literal(-5)))
        CFI R7 load(1, XDATA, add(CFA_XSP16, literal(-6)))
        CFI V15 load(1, XDATA, add(CFA_XSP16, literal(-7)))
        CFI V14 load(1, XDATA, add(CFA_XSP16, literal(-8)))
        CFI V13 load(1, XDATA, add(CFA_XSP16, literal(-9)))
        CFI V12 load(1, XDATA, add(CFA_XSP16, literal(-10)))
        CFI V11 load(1, XDATA, add(CFA_XSP16, literal(-11)))
        CFI V10 load(1, XDATA, add(CFA_XSP16, literal(-12)))
        CFI V9 load(1, XDATA, add(CFA_XSP16, literal(-13)))
        CFI V8 load(1, XDATA, add(CFA_XSP16, literal(-14)))
        CFI V7 load(1, XDATA, add(CFA_XSP16, literal(-15)))
        CFI V6 load(1, XDATA, add(CFA_XSP16, literal(-16)))
        CFI V5 load(1, XDATA, add(CFA_XSP16, literal(-17)))
        CFI V4 load(1, XDATA, add(CFA_XSP16, literal(-18)))
        CFI V3 load(1, XDATA, add(CFA_XSP16, literal(-19)))
        CFI V2 load(1, XDATA, add(CFA_XSP16, literal(-20)))
        CFI V1 load(1, XDATA, add(CFA_XSP16, literal(-21)))
        CFI V0 load(1, XDATA, add(CFA_XSP16, literal(-22)))
        CFI VB load(1, XDATA, add(CFA_XSP16, literal(-23)))
        CFI R6 load(1, XDATA, add(CFA_XSP16, literal(-24)))
        CFI CFA_SP SP+0
        CFI CFA_XSP16 add(XSP16, 24)
        ; Saved register size: 24
        ; Auto size: 1
        MOV     A,#-0x1
        LCALL   ?ALLOC_XSTACK8
        CFI CFA_XSP16 add(XSP16, 25)
        MOV     ?V0 + 8,R2
        MOV     ?V0 + 9,R3
//  620   #define MT_AF_INC_MSG_LEN  17
//  621   #define MT_AF_INC_MSG_EXT  10
//  622 
//  623   uint16 dataLen = pMsg->cmd.DataLength;  // Length of the data section in the response packet.
        MOV     A,R2
        ADD     A,#0x1f
        MOV     DPL,A
        MOV     A,R3
        ADDC    A,#0x0
        MOV     DPH,A
        MOVX    A,@DPTR
        MOV     R6,A
        INC     DPTR
        MOVX    A,@DPTR
        MOV     R7,A
//  624   uint16 respLen = MT_AF_INC_MSG_LEN + dataLen;
        MOV     A,#0x11
        ADD     A,R6
        MOV     ?V0 + 0,A
        CLR     A
        ADDC    A,R7
        MOV     ?V0 + 1,A
//  625   uint8 cmd = MT_AF_INCOMING_MSG;
        MOV     A,#-0x7f
        MOV     DPL,?XSP + 0
        MOV     DPH,?XSP + 1
        MOVX    @DPTR,A
//  626   uint8 *pRsp, *pTmp;
//  627   mtAfInMsgList_t *pItem = NULL;
        MOV     ?V0 + 10,#0x0
        MOV     ?V0 + 11,#0x0
//  628 
//  629 #if defined INTER_PAN
//  630   if (StubAPS_InterPan(pMsg->srcAddr.panId, pMsg->srcAddr.endPoint))
//  631   {
//  632     cmd = MT_AF_INCOMING_MSG_EXT;
//  633   }
//  634   else
//  635 #endif
//  636   if ((pMsg->srcAddr.addrMode == afAddr64Bit) ||
//  637       (respLen > (uint16)(MT_RPC_DATA_MAX - MT_AF_INC_MSG_EXT)))
        MOV     A,R2
        ADD     A,#0xe
        MOV     ?V0 + 4,A
        MOV     A,R3
        ADDC    A,#0x0
        MOV     ?V0 + 5,A
        MOV     DPL,?V0 + 4
        MOV     DPH,A
        MOVX    A,@DPTR
        XRL     A,#0x3
        JZ      ??MT_AfIncomingMsg_0
        CLR     C
        MOV     A,?V0 + 0
        SUBB    A,#-0xf
        MOV     A,?V0 + 1
        SUBB    A,#0x0
        JC      ??MT_AfIncomingMsg_1
//  638   {
//  639     cmd = MT_AF_INCOMING_MSG_EXT;
??MT_AfIncomingMsg_0:
        MOV     A,#-0x7e
        MOV     DPL,?XSP + 0
        MOV     DPH,?XSP + 1
        MOVX    @DPTR,A
//  640   }
//  641 
//  642   if (cmd == MT_AF_INCOMING_MSG_EXT)
//  643   {
//  644     respLen += MT_AF_INC_MSG_EXT;
        MOV     A,?V0 + 0
        ADD     A,#0xa
        MOV     ?V0 + 0,A
        MOV     A,?V0 + 1
        ADDC    A,#0x0
        MOV     ?V0 + 1,A
//  645   }
//  646 
//  647   if (respLen > (uint16)MT_RPC_DATA_MAX)
??MT_AfIncomingMsg_1:
        CLR     C
        MOV     A,?V0 + 0
        SUBB    A,#-0x5
        MOV     A,?V0 + 1
        SUBB    A,#0x0
        JC      ??MT_AfIncomingMsg_2
//  648   {
//  649     if ((pItem = (mtAfInMsgList_t *)osal_mem_alloc(sizeof(mtAfInMsgList_t) + dataLen)) == NULL)
        ; Setup parameters for call to function osal_mem_alloc
        MOV     A,#0x9
        LCALL   ?Subroutine28 & 0xFFFF
??CrossCallReturnLabel_48:
        MOV     ?V0 + 10,R2
        MOV     ?V0 + 11,R3
        MOV     A,R2
        JNZ     ??MT_AfIncomingMsg_3
        MOV     A,R3
??MT_AfIncomingMsg_3:
        JNZ     $+5
        LJMP    ??MT_AfIncomingMsg_4 & 0xFFFF
//  650     {
//  651       return;  // If cannot hold a huge message, cannot give indication at all.
//  652     }
//  653 
//  654     pItem->data = (uint8 *)(pItem+1);
        MOV     A,R2
        ADD     A,#0x9
        MOV     R0,A
        MOV     A,R3
        ADDC    A,#0x0
        MOV     R1,A
        MOV     DPL,R2
        MOV     DPH,R3
        INC     DPTR
        INC     DPTR
        LCALL   ?Subroutine24 & 0xFFFF
//  655     respLen -= dataLen;  // Zero data bytes are sent with an over-sized incoming indication.
??CrossCallReturnLabel_40:
        CLR     C
        MOV     A,?V0 + 0
        SUBB    A,R6
        MOV     ?V0 + 0,A
        MOV     A,?V0 + 1
        SUBB    A,R7
        MOV     ?V0 + 1,A
//  656   }
//  657 
//  658   // Attempt to allocate memory for the response packet.
//  659   if ((pRsp = osal_mem_alloc(respLen)) == NULL)
??MT_AfIncomingMsg_2:
        ; Setup parameters for call to function osal_mem_alloc
        MOV     R2,?V0 + 0
        MOV     R3,?V0 + 1
        LCALL   ??osal_mem_alloc?relay
        MOV     ?V0 + 14,R2
        MOV     ?V0 + 15,R3
        MOV     A,R2
        JNZ     ??MT_AfIncomingMsg_5
        MOV     A,R3
??MT_AfIncomingMsg_5:
        JNZ     ??MT_AfIncomingMsg_6
//  660   {
//  661     if (pItem != NULL)
        MOV     A,?V0 + 10
        JNZ     ??MT_AfIncomingMsg_7
        MOV     A,?V0 + 11
??MT_AfIncomingMsg_7:
        JNZ     $+5
        LJMP    ??MT_AfIncomingMsg_4 & 0xFFFF
//  662     {
//  663       (void)osal_mem_free(pItem);
        ; Setup parameters for call to function osal_mem_free
        MOV     R2,?V0 + 10
        MOV     R3,?V0 + 11
        LJMP    ??MT_AfIncomingMsg_8 & 0xFFFF
//  664     }
//  665     return;
//  666   }
//  667   pTmp = pRsp;
//  668 
//  669   /* Group ID */
//  670   *pTmp++ = LO_UINT16(pMsg->groupId);
??MT_AfIncomingMsg_6:
        MOV     A,?V0 + 8
        ADD     A,#0x2
        MOV     R0,A
        LCALL   ?Subroutine34 & 0xFFFF
??CrossCallReturnLabel_107:
        MOVX    A,@DPTR
        MOV     DPL,R2
        MOV     DPH,R3
        LCALL   ?Subroutine20 & 0xFFFF
//  671   *pTmp++ = HI_UINT16(pMsg->groupId);
??CrossCallReturnLabel_27:
        MOV     DPL,R0
        MOV     DPH,R1
        INC     DPTR
        LCALL   ??Subroutine41_0 & 0xFFFF
//  672 
//  673   /* Cluster ID */
//  674   *pTmp++ = LO_UINT16(pMsg->clusterId);
??CrossCallReturnLabel_71:
        ADD     A,#0x4
        INC     R0
        INC     R0
        LCALL   ?Subroutine34 & 0xFFFF
??CrossCallReturnLabel_108:
        LCALL   ?Subroutine6 & 0xFFFF
//  675   *pTmp++ = HI_UINT16(pMsg->clusterId);
??CrossCallReturnLabel_0:
        MOV     DPL,R0
        MOV     DPH,R1
        INC     DPTR
        LCALL   ?Subroutine6 & 0xFFFF
//  676 
//  677   if (cmd == MT_AF_INCOMING_MSG_EXT)
??CrossCallReturnLabel_1:
        INC     DPTR
        MOV     R0,DPL
        MOV     R1,DPH
        MOV     A,?V0 + 8
        ADD     A,#0xf
        MOV     ?V0 + 12,A
        MOV     A,?V0 + 9
        ADDC    A,#0x0
        MOV     ?V0 + 13,A
        MOV     A,?V0 + 8
        ADD     A,#0x6
        MOV     R2,A
        MOV     A,?V0 + 9
        ADDC    A,#0x0
        MOV     R3,A
        MOV     DPL,?XSP + 0
        MOV     DPH,?XSP + 1
        MOVX    A,@DPTR
        XRL     A,#0x82
        JNZ     ??MT_AfIncomingMsg_9
//  678   {
//  679     *pTmp++ = pMsg->srcAddr.addrMode;
        MOV     DPL,?V0 + 4
        MOV     DPH,?V0 + 5
        LCALL   ?Subroutine7 & 0xFFFF
??CrossCallReturnLabel_2:
        MOV     ?V0 + 2,R0
        MOV     ?V0 + 3,R1
//  680 
//  681     if (pMsg->srcAddr.addrMode == afAddr64Bit)
        MOV     DPL,?V0 + 4
        MOV     DPH,?V0 + 5
        MOVX    A,@DPTR
        XRL     A,#0x3
        JNZ     ??MT_AfIncomingMsg_10
//  682     {
//  683       (void)osal_memcpy(pTmp, pMsg->srcAddr.addr.extAddr, Z_EXTADDR_LEN);
        ; Setup parameters for call to function osal_memcpy
        MOV     ?V0 + 4,R2
        MOV     ?V0 + 5,R3
        MOV     ?V0 + 6,#0x0
        MOV     R0,#?V0 + 4
        LCALL   ?PUSH_XSTACK_I_THREE
        CFI CFA_XSP16 add(XSP16, 28)
        MOV     R4,#0x8
        MOV     R5,#0x0
        MOV     R2,?V0 + 2
        MOV     R3,?V0 + 3
        LCALL   ??Subroutine42_0 & 0xFFFF
//  684     }
??CrossCallReturnLabel_80:
        LCALL   ?DEALLOC_XSTACK8
        CFI CFA_XSP16 add(XSP16, 25)
        SJMP    ??MT_AfIncomingMsg_11
//  685     else
//  686     {
//  687       pTmp[0] = LO_UINT16(pMsg->srcAddr.addr.shortAddr);
??MT_AfIncomingMsg_10:
        MOV     DPL,R2
        MOV     DPH,R3
        MOVX    A,@DPTR
        MOV     DPL,R0
        MOV     DPH,R1
        LCALL   ?Subroutine22 & 0xFFFF
//  688       pTmp[1] = HI_UINT16(pMsg->srcAddr.addr.shortAddr);
//  689     }
??CrossCallReturnLabel_34:
        MOVX    A,@DPTR
        MOV     DPL,R0
        MOV     DPH,R1
        INC     DPTR
        MOVX    @DPTR,A
//  690     pTmp += Z_EXTADDR_LEN;
??MT_AfIncomingMsg_11:
        MOV     A,?V0 + 2
        ADD     A,#0x8
        MOV     ?V0 + 2,A
        MOV     A,?V0 + 3
        ADDC    A,#0x0
        MOV     ?V0 + 3,A
//  691 
//  692     *pTmp++ = pMsg->srcAddr.endPoint;
        MOV     DPL,?V0 + 12
        MOV     DPH,?V0 + 13
        LCALL   ?Subroutine7 & 0xFFFF
??CrossCallReturnLabel_3:
        INC     DPTR
//  693 #if defined INTER_PAN
//  694     *pTmp++ = LO_UINT16(pMsg->srcAddr.panId);
//  695     *pTmp++ = HI_UINT16(pMsg->srcAddr.panId);
//  696 #else
//  697     *pTmp++ = 0;
        CLR     A
        MOVX    @DPTR,A
        INC     DPTR
//  698     *pTmp++ = 0;
        SJMP    ??MT_AfIncomingMsg_12
//  699 #endif
//  700   }
//  701   else
//  702   {
//  703     /* Source Address */
//  704     *pTmp++ = LO_UINT16(pMsg->srcAddr.addr.shortAddr);
??MT_AfIncomingMsg_9:
        MOV     DPL,R2
        MOV     DPH,R3
        LCALL   ?Subroutine7 & 0xFFFF
//  705     *pTmp++ = HI_UINT16(pMsg->srcAddr.addr.shortAddr);
??CrossCallReturnLabel_4:
        MOV     DPL,R2
        MOV     DPH,R3
        INC     DPTR
        MOVX    A,@DPTR
        MOV     DPL,R0
        MOV     DPH,R1
        LCALL   ?Subroutine20 & 0xFFFF
//  706 
//  707     /* Source EP */
//  708     *pTmp++ = pMsg->srcAddr.endPoint;
??CrossCallReturnLabel_28:
        MOV     DPL,?V0 + 12
        MOV     DPH,?V0 + 13
        MOVX    A,@DPTR
        MOV     DPL,?V0 + 2
        MOV     DPH,?V0 + 3
//  709   }
??MT_AfIncomingMsg_12:
        LCALL   ?Subroutine19 & 0xFFFF
//  710 
//  711   /* Destination EP */
//  712   *pTmp++ = pMsg->endPoint;
??CrossCallReturnLabel_25:
        ADD     A,#0x14
        LCALL   ?Subroutine2 & 0xFFFF
//  713 
//  714   /* WasBroadCast */
//  715   *pTmp++ = pMsg->wasBroadcast;
??CrossCallReturnLabel_67:
        ADD     A,#0x15
        LCALL   ?Subroutine2 & 0xFFFF
//  716 
//  717   /* LinkQuality */
//  718   *pTmp++ = pMsg->LinkQuality;
??CrossCallReturnLabel_68:
        ADD     A,#0x16
        LCALL   ?Subroutine2 & 0xFFFF
//  719 
//  720   /* SecurityUse */
//  721   *pTmp++ = pMsg->SecurityUse;
??CrossCallReturnLabel_69:
        ADD     A,#0x19
        LCALL   ?Subroutine2 & 0xFFFF
//  722 
//  723   /* Timestamp */
//  724   *pTmp++ = BREAK_UINT32(pMsg->timestamp, 0);
??CrossCallReturnLabel_70:
        ADD     A,#0x1a
        MOV     ?V0 + 12,A
        MOV     A,?V0 + 9
        ADDC    A,#0x0
        MOV     ?V0 + 13,A
        MOV     DPL,?V0 + 12
        MOV     DPH,A
        MOV     R0,#?V0 + 4
        LCALL   ?L_MOV_X
        LCALL   ?Subroutine16 & 0xFFFF
//  725   *pTmp++ = BREAK_UINT32(pMsg->timestamp, 1);
??CrossCallReturnLabel_61:
        LCALL   ?L_MOV_X
        MOV     A,?V0 + 5
        MOV     DPL,?V0 + 2
        MOV     DPH,?V0 + 3
        LCALL   ??Subroutine40_0 & 0xFFFF
//  726   *pTmp++ = BREAK_UINT32(pMsg->timestamp, 2);
??CrossCallReturnLabel_63:
        LCALL   ?L_MOV_X
        MOV     A,#0x10
        MOV     R0,#?V0 + 4
        LCALL   ?UL_SHR
        LCALL   ?Subroutine16 & 0xFFFF
//  727   *pTmp++ = BREAK_UINT32(pMsg->timestamp, 3);
??CrossCallReturnLabel_62:
        LCALL   ?L_MOV_X
        MOV     A,#0x18
        MOV     R0,#?V0 + 4
        LCALL   ?UL_SHR
        MOV     DPL,?V0 + 2
        MOV     DPH,?V0 + 3
        MOV     A,?V0 + 4
        LCALL   ?Subroutine20 & 0xFFFF
//  728 
//  729 
//  730   /* Data Length */
//  731   if (cmd == MT_AF_INCOMING_MSG_EXT)
??CrossCallReturnLabel_29:
        INC     DPTR
        MOV     R0,DPL
        MOV     R1,DPH
        MOV     DPL,?XSP + 0
        MOV     DPH,?XSP + 1
        MOVX    A,@DPTR
        XRL     A,#0x82
        JNZ     ??MT_AfIncomingMsg_13
//  732   {
//  733     /* Z-Tool apparently takes the last Byte before the data buffer as the dynamic length and
//  734      * ignores the bigger UInt16 length of an EXT incoming message. But no data bytes will be sent
//  735      * with a huge message, so it's necessary to work-around and fake-out Z-Tool with a zero here.
//  736      */
//  737     *pTmp++ = 0;  // TODO - workaround Z-Tool shortcoming; should be: = pMsg->cmd.TransSeqNumber;
        CLR     A
        MOV     DPL,?V0 + 2
        MOV     DPH,?V0 + 3
        MOVX    @DPTR,A
//  738     *pTmp++ = LO_UINT16(dataLen);
        MOV     A,R6
        MOV     DPL,R0
        MOV     DPH,R1
        MOVX    @DPTR,A
        INC     DPTR
//  739     *pTmp++ = HI_UINT16(dataLen);
        MOV     A,R7
        SJMP    ??MT_AfIncomingMsg_14
//  740   }
//  741   else
//  742   {
//  743     *pTmp++ = pMsg->cmd.TransSeqNumber;
??MT_AfIncomingMsg_13:
        MOV     A,?V0 + 8
        ADD     A,#0x1e
        MOV     DPL,A
        MOV     A,?V0 + 9
        ADDC    A,#0x0
        MOV     DPH,A
        LCALL   ?Subroutine7 & 0xFFFF
//  744     *pTmp++ = dataLen;
??CrossCallReturnLabel_5:
        MOV     A,R6
        MOV     DPL,R0
        MOV     DPH,R1
//  745   }
??MT_AfIncomingMsg_14:
        LCALL   ?Subroutine19 & 0xFFFF
//  746 
//  747   /* Data */
//  748   if (pItem != NULL)
??CrossCallReturnLabel_26:
        ADD     A,#0x21
        MOV     ?V0 + 8,A
        MOV     A,?V0 + 9
        ADDC    A,#0x0
        MOV     ?V0 + 9,A
        MOV     A,?V0 + 10
        JNZ     ??MT_AfIncomingMsg_15
        MOV     A,?V0 + 11
??MT_AfIncomingMsg_15:
        JZ      ??MT_AfIncomingMsg_16
//  749   {
//  750     // Enqueue the new huge incoming item.
//  751     pItem->next = pMtAfInMsgList;
        MOV     DPTR,#pMtAfInMsgList
        MOVX    A,@DPTR
        MOV     R0,A
        INC     DPTR
        MOVX    A,@DPTR
        MOV     R1,A
        MOV     DPL,?V0 + 10
        MOV     DPH,?V0 + 11
        LCALL   ?Subroutine24 & 0xFFFF
//  752     pMtAfInMsgList = pItem;
??CrossCallReturnLabel_41:
        MOV     DPTR,#pMtAfInMsgList
        MOV     A,?V0 + 10
        MOVX    @DPTR,A
        INC     DPTR
        MOV     A,?V0 + 11
        MOVX    @DPTR,A
//  753 
//  754     // Setup to time-out the huge incoming item if host does not MT_AF_DATA_RETRIEVE it.
//  755     pItem->tick = MT_AF_EXEC_CNT;
        MOV     A,#0xf
        MOV     DPL,?V0 + 10
        MOV     DPH,?V0 + 11
        INC     DPTR
        INC     DPTR
        INC     DPTR
        INC     DPTR
        INC     DPTR
        INC     DPTR
        INC     DPTR
        INC     DPTR
        LCALL   ?Subroutine10 & 0xFFFF
//  756     if (ZSuccess != osal_start_timerEx(MT_TaskID, MT_AF_EXEC_EVT, MT_AF_EXEC_DLY))
??CrossCallReturnLabel_59:
        JZ      ??CrossCallReturnLabel_14
//  757     {
//  758       (void)osal_set_event(MT_TaskID, MT_AF_EXEC_EVT);
        ; Setup parameters for call to function osal_set_event
        LCALL   ?Subroutine13 & 0xFFFF
//  759     }
//  760 
//  761     pItem->timestamp = pMsg->timestamp;
??CrossCallReturnLabel_14:
        MOV     DPL,?V0 + 12
        MOV     DPH,?V0 + 13
        MOV     R0,#?V0 + 4
        LCALL   ?L_MOV_X
        MOV     DPL,?V0 + 10
        MOV     DPH,?V0 + 11
        INC     DPTR
        INC     DPTR
        INC     DPTR
        INC     DPTR
        MOV     A,?V0 + 4
        MOVX    @DPTR,A
        INC     DPTR
        MOV     A,?V0 + 5
        MOVX    @DPTR,A
        INC     DPTR
        MOV     A,?V0 + 6
        MOVX    @DPTR,A
        INC     DPTR
        MOV     A,?V0 + 7
        MOVX    @DPTR,A
//  762     (void)osal_memcpy(pItem->data, pMsg->cmd.Data, dataLen);
        ; Setup parameters for call to function osal_memcpy
        LCALL   ?Subroutine5 & 0xFFFF
//  763   }
??CrossCallReturnLabel_94:
        MOV     ?V0 + 6,#0x0
        MOV     R0,#?V0 + 4
        LCALL   ?PUSH_XSTACK_I_THREE
        CFI CFA_XSP16 add(XSP16, 28)
        MOV     A,R6
        MOV     R4,A
        MOV     A,R7
        MOV     R5,A
        MOV     DPL,?V0 + 10
        MOV     DPH,?V0 + 11
        INC     DPTR
        INC     DPTR
        LCALL   ??Subroutine44_0 & 0xFFFF
??CrossCallReturnLabel_87:
        MOV     R3,A
        SJMP    ??MT_AfIncomingMsg_17
        CFI CFA_XSP16 add(XSP16, 25)
//  764   else
//  765   {
//  766     (void)osal_memcpy(pTmp, pMsg->cmd.Data, dataLen);
??MT_AfIncomingMsg_16:
        ; Setup parameters for call to function osal_memcpy
        LCALL   ?Subroutine5 & 0xFFFF
//  767   }
??CrossCallReturnLabel_95:
        MOV     R0,#?V0 + 4
        LCALL   ?PUSH_XSTACK_I_THREE
        CFI CFA_XSP16 add(XSP16, 28)
        MOV     A,R6
        MOV     R4,A
        MOV     A,R7
        MOV     R5,A
        MOV     R2,?V0 + 2
        MOV     R3,?V0 + 3
??MT_AfIncomingMsg_17:
        LCALL   ??Subroutine42_0 & 0xFFFF
??CrossCallReturnLabel_81:
        LCALL   ?DEALLOC_XSTACK8
        CFI CFA_XSP16 add(XSP16, 25)
//  768 
//  769   /* Build and send back the response */
//  770   MT_BuildAndSendZToolResponse(((uint8)MT_RPC_CMD_AREQ|(uint8)MT_RPC_SYS_AF), cmd, respLen, pRsp);
        ; Setup parameters for call to function MT_BuildAndSendZToolResponse
        MOV     R4,?V0 + 14
        MOV     R5,?V0 + 15
        MOV     R3,?V0 + 0
        MOV     DPL,?XSP + 0
        MOV     DPH,?XSP + 1
        MOVX    A,@DPTR
        MOV     R2,A
        MOV     R1,#0x44
        LCALL   ??MT_BuildAndSendZToolResponse?relay
//  771 
//  772   (void)osal_mem_free(pRsp);
        ; Setup parameters for call to function osal_mem_free
        MOV     R2,?V0 + 14
        MOV     R3,?V0 + 15
??MT_AfIncomingMsg_8:
        LCALL   ??osal_mem_free?relay
//  773 }
??MT_AfIncomingMsg_4:
        MOV     A,#0x1
        LCALL   ?DEALLOC_XSTACK8
        CFI CFA_XSP16 add(XSP16, 24)
        MOV     R7,#0x10
        LJMP    ?BANKED_LEAVE_XDATA
        CFI EndBlock cfiBlock61

        RSEG BANKED_CODE:CODE:NOROOT(0)
?Subroutine34:
        CFI Block cfiCond62 Using cfiCommon0
        CFI NoFunction
        CFI Conditional ??CrossCallReturnLabel_107
        CFI R6 load(1, XDATA, add(CFA_XSP16, literal(-24)))
        CFI VB load(1, XDATA, add(CFA_XSP16, literal(-23)))
        CFI V0 load(1, XDATA, add(CFA_XSP16, literal(-22)))
        CFI V1 load(1, XDATA, add(CFA_XSP16, literal(-21)))
        CFI V2 load(1, XDATA, add(CFA_XSP16, literal(-20)))
        CFI V3 load(1, XDATA, add(CFA_XSP16, literal(-19)))
        CFI V4 load(1, XDATA, add(CFA_XSP16, literal(-18)))
        CFI V5 load(1, XDATA, add(CFA_XSP16, literal(-17)))
        CFI V6 load(1, XDATA, add(CFA_XSP16, literal(-16)))
        CFI V7 load(1, XDATA, add(CFA_XSP16, literal(-15)))
        CFI V8 load(1, XDATA, add(CFA_XSP16, literal(-14)))
        CFI V9 load(1, XDATA, add(CFA_XSP16, literal(-13)))
        CFI V10 load(1, XDATA, add(CFA_XSP16, literal(-12)))
        CFI V11 load(1, XDATA, add(CFA_XSP16, literal(-11)))
        CFI V12 load(1, XDATA, add(CFA_XSP16, literal(-10)))
        CFI V13 load(1, XDATA, add(CFA_XSP16, literal(-9)))
        CFI V14 load(1, XDATA, add(CFA_XSP16, literal(-8)))
        CFI V15 load(1, XDATA, add(CFA_XSP16, literal(-7)))
        CFI R7 load(1, XDATA, add(CFA_XSP16, literal(-6)))
        CFI ?RET_LOW load(1, XDATA, add(CFA_XSP16, literal(-5)))
        CFI ?RET_HIGH load(1, XDATA, add(CFA_XSP16, literal(-4)))
        CFI ?BRET_EXT load(1, XDATA, add(CFA_XSP16, literal(-3)))
        CFI DPL0 load(1, XDATA, add(CFA_XSP16, literal(-2)))
        CFI DPH0 load(1, XDATA, add(CFA_XSP16, literal(-1)))
        CFI CFA_SP SP+0
        CFI CFA_XSP16 add(XSP16, 25)
        CFI Block cfiCond63 Using cfiCommon0
        CFI (cfiCond63) NoFunction
        CFI (cfiCond63) Conditional ??CrossCallReturnLabel_108
        CFI (cfiCond63) R6 load(1, XDATA, add(CFA_XSP16, literal(-24)))
        CFI (cfiCond63) VB load(1, XDATA, add(CFA_XSP16, literal(-23)))
        CFI (cfiCond63) V0 load(1, XDATA, add(CFA_XSP16, literal(-22)))
        CFI (cfiCond63) V1 load(1, XDATA, add(CFA_XSP16, literal(-21)))
        CFI (cfiCond63) V2 load(1, XDATA, add(CFA_XSP16, literal(-20)))
        CFI (cfiCond63) V3 load(1, XDATA, add(CFA_XSP16, literal(-19)))
        CFI (cfiCond63) V4 load(1, XDATA, add(CFA_XSP16, literal(-18)))
        CFI (cfiCond63) V5 load(1, XDATA, add(CFA_XSP16, literal(-17)))
        CFI (cfiCond63) V6 load(1, XDATA, add(CFA_XSP16, literal(-16)))
        CFI (cfiCond63) V7 load(1, XDATA, add(CFA_XSP16, literal(-15)))
        CFI (cfiCond63) V8 load(1, XDATA, add(CFA_XSP16, literal(-14)))
        CFI (cfiCond63) V9 load(1, XDATA, add(CFA_XSP16, literal(-13)))
        CFI (cfiCond63) V10 load(1, XDATA, add(CFA_XSP16, literal(-12)))
        CFI (cfiCond63) V11 load(1, XDATA, add(CFA_XSP16, literal(-11)))
        CFI (cfiCond63) V12 load(1, XDATA, add(CFA_XSP16, literal(-10)))
        CFI (cfiCond63) V13 load(1, XDATA, add(CFA_XSP16, literal(-9)))
        CFI (cfiCond63) V14 load(1, XDATA, add(CFA_XSP16, literal(-8)))
        CFI (cfiCond63) V15 load(1, XDATA, add(CFA_XSP16, literal(-7)))
        CFI (cfiCond63) R7 load(1, XDATA, add(CFA_XSP16, literal(-6)))
        CFI (cfiCond63) ?RET_LOW load(1, XDATA, add(CFA_XSP16, literal(-5)))
        CFI (cfiCond63) ?RET_HIGH load(1, XDATA, add(CFA_XSP16, literal(-4)))
        CFI (cfiCond63) ?BRET_EXT load(1, XDATA, add(CFA_XSP16, literal(-3)))
        CFI (cfiCond63) DPL0 load(1, XDATA, add(CFA_XSP16, literal(-2)))
        CFI (cfiCond63) DPH0 load(1, XDATA, add(CFA_XSP16, literal(-1)))
        CFI (cfiCond63) CFA_SP SP+0
        CFI (cfiCond63) CFA_XSP16 add(XSP16, 25)
        CFI Block cfiPicker64 Using cfiCommon1
        CFI (cfiPicker64) NoFunction
        CFI (cfiPicker64) Picker
        MOV     A,?V0 + 9
        CFI EndBlock cfiCond62
        CFI EndBlock cfiCond63
        CFI EndBlock cfiPicker64
        REQUIRE ??Subroutine39_0
        ; // Fall through to label ??Subroutine39_0

        RSEG BANKED_CODE:CODE:NOROOT(0)
??Subroutine39_0:
        CFI Block cfiCond65 Using cfiCommon0
        CFI NoFunction
        CFI Conditional ??CrossCallReturnLabel_109, ??CrossCallReturnLabel_105, ??CrossCallReturnLabel_51
        CFI R6 load(1, XDATA, add(CFA_XSP16, literal(-9)))
        CFI VB load(1, XDATA, add(CFA_XSP16, literal(-8)))
        CFI V0 load(1, XDATA, add(CFA_XSP16, literal(-7)))
        CFI R7 load(1, XDATA, add(CFA_XSP16, literal(-6)))
        CFI ?RET_LOW load(1, XDATA, add(CFA_XSP16, literal(-5)))
        CFI ?RET_HIGH load(1, XDATA, add(CFA_XSP16, literal(-4)))
        CFI ?BRET_EXT load(1, XDATA, add(CFA_XSP16, literal(-3)))
        CFI DPL0 load(1, XDATA, add(CFA_XSP16, literal(-2)))
        CFI DPH0 load(1, XDATA, add(CFA_XSP16, literal(-1)))
        CFI CFA_SP SP+0
        CFI CFA_XSP16 add(XSP16, 9)
        CFI Block cfiCond66 Using cfiCommon0
        CFI (cfiCond66) NoFunction
        CFI (cfiCond66) Conditional ??CrossCallReturnLabel_109, ??CrossCallReturnLabel_105, ??CrossCallReturnLabel_52
        CFI (cfiCond66) R6 load(1, XDATA, add(CFA_XSP16, literal(-9)))
        CFI (cfiCond66) VB load(1, XDATA, add(CFA_XSP16, literal(-8)))
        CFI (cfiCond66) V0 load(1, XDATA, add(CFA_XSP16, literal(-7)))
        CFI (cfiCond66) R7 load(1, XDATA, add(CFA_XSP16, literal(-6)))
        CFI (cfiCond66) ?RET_LOW load(1, XDATA, add(CFA_XSP16, literal(-5)))
        CFI (cfiCond66) ?RET_HIGH load(1, XDATA, add(CFA_XSP16, literal(-4)))
        CFI (cfiCond66) ?BRET_EXT load(1, XDATA, add(CFA_XSP16, literal(-3)))
        CFI (cfiCond66) DPL0 load(1, XDATA, add(CFA_XSP16, literal(-2)))
        CFI (cfiCond66) DPH0 load(1, XDATA, add(CFA_XSP16, literal(-1)))
        CFI (cfiCond66) CFA_SP SP+0
        CFI (cfiCond66) CFA_XSP16 add(XSP16, 9)
        CFI Block cfiCond67 Using cfiCommon0
        CFI (cfiCond67) NoFunction
        CFI (cfiCond67) Conditional ??CrossCallReturnLabel_109, ??CrossCallReturnLabel_105, ??CrossCallReturnLabel_49
        CFI (cfiCond67) R6 load(1, XDATA, add(CFA_XSP16, literal(-14)))
        CFI (cfiCond67) VB load(1, XDATA, add(CFA_XSP16, literal(-13)))
        CFI (cfiCond67) V0 load(1, XDATA, add(CFA_XSP16, literal(-12)))
        CFI (cfiCond67) V1 load(1, XDATA, add(CFA_XSP16, literal(-11)))
        CFI (cfiCond67) V2 load(1, XDATA, add(CFA_XSP16, literal(-10)))
        CFI (cfiCond67) V3 load(1, XDATA, add(CFA_XSP16, literal(-9)))
        CFI (cfiCond67) V4 load(1, XDATA, add(CFA_XSP16, literal(-8)))
        CFI (cfiCond67) V5 load(1, XDATA, add(CFA_XSP16, literal(-7)))
        CFI (cfiCond67) R7 load(1, XDATA, add(CFA_XSP16, literal(-6)))
        CFI (cfiCond67) ?RET_LOW load(1, XDATA, add(CFA_XSP16, literal(-5)))
        CFI (cfiCond67) ?RET_HIGH load(1, XDATA, add(CFA_XSP16, literal(-4)))
        CFI (cfiCond67) ?BRET_EXT load(1, XDATA, add(CFA_XSP16, literal(-3)))
        CFI (cfiCond67) DPL0 load(1, XDATA, add(CFA_XSP16, literal(-2)))
        CFI (cfiCond67) DPH0 load(1, XDATA, add(CFA_XSP16, literal(-1)))
        CFI (cfiCond67) CFA_SP SP+0
        CFI (cfiCond67) CFA_XSP16 add(XSP16, 15)
        CFI Block cfiCond68 Using cfiCommon0
        CFI (cfiCond68) NoFunction
        CFI (cfiCond68) Conditional ??CrossCallReturnLabel_109, ??CrossCallReturnLabel_105, ??CrossCallReturnLabel_50
        CFI (cfiCond68) R6 load(1, XDATA, add(CFA_XSP16, literal(-14)))
        CFI (cfiCond68) VB load(1, XDATA, add(CFA_XSP16, literal(-13)))
        CFI (cfiCond68) V0 load(1, XDATA, add(CFA_XSP16, literal(-12)))
        CFI (cfiCond68) V1 load(1, XDATA, add(CFA_XSP16, literal(-11)))
        CFI (cfiCond68) V2 load(1, XDATA, add(CFA_XSP16, literal(-10)))
        CFI (cfiCond68) V3 load(1, XDATA, add(CFA_XSP16, literal(-9)))
        CFI (cfiCond68) V4 load(1, XDATA, add(CFA_XSP16, literal(-8)))
        CFI (cfiCond68) V5 load(1, XDATA, add(CFA_XSP16, literal(-7)))
        CFI (cfiCond68) R7 load(1, XDATA, add(CFA_XSP16, literal(-6)))
        CFI (cfiCond68) ?RET_LOW load(1, XDATA, add(CFA_XSP16, literal(-5)))
        CFI (cfiCond68) ?RET_HIGH load(1, XDATA, add(CFA_XSP16, literal(-4)))
        CFI (cfiCond68) ?BRET_EXT load(1, XDATA, add(CFA_XSP16, literal(-3)))
        CFI (cfiCond68) DPL0 load(1, XDATA, add(CFA_XSP16, literal(-2)))
        CFI (cfiCond68) DPH0 load(1, XDATA, add(CFA_XSP16, literal(-1)))
        CFI (cfiCond68) CFA_SP SP+0
        CFI (cfiCond68) CFA_XSP16 add(XSP16, 24)
        CFI Block cfiCond69 Using cfiCommon0
        CFI (cfiCond69) NoFunction
        CFI (cfiCond69) Conditional ??CrossCallReturnLabel_109, ??CrossCallReturnLabel_106, ??CrossCallReturnLabel_103
        CFI (cfiCond69) R6 load(1, XDATA, add(CFA_XSP16, literal(-21)))
        CFI (cfiCond69) VB load(1, XDATA, add(CFA_XSP16, literal(-20)))
        CFI (cfiCond69) V0 load(1, XDATA, add(CFA_XSP16, literal(-19)))
        CFI (cfiCond69) V1 load(1, XDATA, add(CFA_XSP16, literal(-18)))
        CFI (cfiCond69) V2 load(1, XDATA, add(CFA_XSP16, literal(-17)))
        CFI (cfiCond69) V3 load(1, XDATA, add(CFA_XSP16, literal(-16)))
        CFI (cfiCond69) V4 load(1, XDATA, add(CFA_XSP16, literal(-15)))
        CFI (cfiCond69) V5 load(1, XDATA, add(CFA_XSP16, literal(-14)))
        CFI (cfiCond69) V6 load(1, XDATA, add(CFA_XSP16, literal(-13)))
        CFI (cfiCond69) V7 load(1, XDATA, add(CFA_XSP16, literal(-12)))
        CFI (cfiCond69) V8 load(1, XDATA, add(CFA_XSP16, literal(-11)))
        CFI (cfiCond69) V9 load(1, XDATA, add(CFA_XSP16, literal(-10)))
        CFI (cfiCond69) V10 load(1, XDATA, add(CFA_XSP16, literal(-9)))
        CFI (cfiCond69) V11 load(1, XDATA, add(CFA_XSP16, literal(-8)))
        CFI (cfiCond69) V12 load(1, XDATA, add(CFA_XSP16, literal(-7)))
        CFI (cfiCond69) R7 load(1, XDATA, add(CFA_XSP16, literal(-6)))
        CFI (cfiCond69) ?RET_LOW load(1, XDATA, add(CFA_XSP16, literal(-5)))
        CFI (cfiCond69) ?RET_HIGH load(1, XDATA, add(CFA_XSP16, literal(-4)))
        CFI (cfiCond69) ?BRET_EXT load(1, XDATA, add(CFA_XSP16, literal(-3)))
        CFI (cfiCond69) DPL0 load(1, XDATA, add(CFA_XSP16, literal(-2)))
        CFI (cfiCond69) DPH0 load(1, XDATA, add(CFA_XSP16, literal(-1)))
        CFI (cfiCond69) CFA_SP SP+0
        CFI (cfiCond69) CFA_XSP16 add(XSP16, 35)
        CFI Block cfiCond70 Using cfiCommon0
        CFI (cfiCond70) NoFunction
        CFI (cfiCond70) Conditional ??CrossCallReturnLabel_109, ??CrossCallReturnLabel_106, ??CrossCallReturnLabel_104
        CFI (cfiCond70) R6 load(1, XDATA, add(CFA_XSP16, literal(-14)))
        CFI (cfiCond70) VB load(1, XDATA, add(CFA_XSP16, literal(-13)))
        CFI (cfiCond70) V0 load(1, XDATA, add(CFA_XSP16, literal(-12)))
        CFI (cfiCond70) V1 load(1, XDATA, add(CFA_XSP16, literal(-11)))
        CFI (cfiCond70) V2 load(1, XDATA, add(CFA_XSP16, literal(-10)))
        CFI (cfiCond70) V3 load(1, XDATA, add(CFA_XSP16, literal(-9)))
        CFI (cfiCond70) V4 load(1, XDATA, add(CFA_XSP16, literal(-8)))
        CFI (cfiCond70) V5 load(1, XDATA, add(CFA_XSP16, literal(-7)))
        CFI (cfiCond70) R7 load(1, XDATA, add(CFA_XSP16, literal(-6)))
        CFI (cfiCond70) ?RET_LOW load(1, XDATA, add(CFA_XSP16, literal(-5)))
        CFI (cfiCond70) ?RET_HIGH load(1, XDATA, add(CFA_XSP16, literal(-4)))
        CFI (cfiCond70) ?BRET_EXT load(1, XDATA, add(CFA_XSP16, literal(-3)))
        CFI (cfiCond70) DPL0 load(1, XDATA, add(CFA_XSP16, literal(-2)))
        CFI (cfiCond70) DPH0 load(1, XDATA, add(CFA_XSP16, literal(-1)))
        CFI (cfiCond70) CFA_SP SP+0
        CFI (cfiCond70) CFA_XSP16 add(XSP16, 22)
        CFI Block cfiCond71 Using cfiCommon0
        CFI (cfiCond71) NoFunction
        CFI (cfiCond71) Conditional ??CrossCallReturnLabel_109, ??CrossCallReturnLabel_106, ??CrossCallReturnLabel_96
        CFI (cfiCond71) R6 load(1, XDATA, add(CFA_XSP16, literal(-21)))
        CFI (cfiCond71) VB load(1, XDATA, add(CFA_XSP16, literal(-20)))
        CFI (cfiCond71) V0 load(1, XDATA, add(CFA_XSP16, literal(-19)))
        CFI (cfiCond71) V1 load(1, XDATA, add(CFA_XSP16, literal(-18)))
        CFI (cfiCond71) V2 load(1, XDATA, add(CFA_XSP16, literal(-17)))
        CFI (cfiCond71) V3 load(1, XDATA, add(CFA_XSP16, literal(-16)))
        CFI (cfiCond71) V4 load(1, XDATA, add(CFA_XSP16, literal(-15)))
        CFI (cfiCond71) V5 load(1, XDATA, add(CFA_XSP16, literal(-14)))
        CFI (cfiCond71) V6 load(1, XDATA, add(CFA_XSP16, literal(-13)))
        CFI (cfiCond71) V7 load(1, XDATA, add(CFA_XSP16, literal(-12)))
        CFI (cfiCond71) V8 load(1, XDATA, add(CFA_XSP16, literal(-11)))
        CFI (cfiCond71) V9 load(1, XDATA, add(CFA_XSP16, literal(-10)))
        CFI (cfiCond71) V10 load(1, XDATA, add(CFA_XSP16, literal(-9)))
        CFI (cfiCond71) V11 load(1, XDATA, add(CFA_XSP16, literal(-8)))
        CFI (cfiCond71) V12 load(1, XDATA, add(CFA_XSP16, literal(-7)))
        CFI (cfiCond71) R7 load(1, XDATA, add(CFA_XSP16, literal(-6)))
        CFI (cfiCond71) ?RET_LOW load(1, XDATA, add(CFA_XSP16, literal(-5)))
        CFI (cfiCond71) ?RET_HIGH load(1, XDATA, add(CFA_XSP16, literal(-4)))
        CFI (cfiCond71) ?BRET_EXT load(1, XDATA, add(CFA_XSP16, literal(-3)))
        CFI (cfiCond71) DPL0 load(1, XDATA, add(CFA_XSP16, literal(-2)))
        CFI (cfiCond71) DPH0 load(1, XDATA, add(CFA_XSP16, literal(-1)))
        CFI (cfiCond71) CFA_SP SP+0
        CFI (cfiCond71) CFA_XSP16 add(XSP16, 35)
        CFI Block cfiCond72 Using cfiCommon0
        CFI (cfiCond72) NoFunction
        CFI (cfiCond72) Conditional ??CrossCallReturnLabel_109, ??CrossCallReturnLabel_106, ??CrossCallReturnLabel_97
        CFI (cfiCond72) R6 load(1, XDATA, add(CFA_XSP16, literal(-21)))
        CFI (cfiCond72) VB load(1, XDATA, add(CFA_XSP16, literal(-20)))
        CFI (cfiCond72) V0 load(1, XDATA, add(CFA_XSP16, literal(-19)))
        CFI (cfiCond72) V1 load(1, XDATA, add(CFA_XSP16, literal(-18)))
        CFI (cfiCond72) V2 load(1, XDATA, add(CFA_XSP16, literal(-17)))
        CFI (cfiCond72) V3 load(1, XDATA, add(CFA_XSP16, literal(-16)))
        CFI (cfiCond72) V4 load(1, XDATA, add(CFA_XSP16, literal(-15)))
        CFI (cfiCond72) V5 load(1, XDATA, add(CFA_XSP16, literal(-14)))
        CFI (cfiCond72) V6 load(1, XDATA, add(CFA_XSP16, literal(-13)))
        CFI (cfiCond72) V7 load(1, XDATA, add(CFA_XSP16, literal(-12)))
        CFI (cfiCond72) V8 load(1, XDATA, add(CFA_XSP16, literal(-11)))
        CFI (cfiCond72) V9 load(1, XDATA, add(CFA_XSP16, literal(-10)))
        CFI (cfiCond72) V10 load(1, XDATA, add(CFA_XSP16, literal(-9)))
        CFI (cfiCond72) V11 load(1, XDATA, add(CFA_XSP16, literal(-8)))
        CFI (cfiCond72) V12 load(1, XDATA, add(CFA_XSP16, literal(-7)))
        CFI (cfiCond72) R7 load(1, XDATA, add(CFA_XSP16, literal(-6)))
        CFI (cfiCond72) ?RET_LOW load(1, XDATA, add(CFA_XSP16, literal(-5)))
        CFI (cfiCond72) ?RET_HIGH load(1, XDATA, add(CFA_XSP16, literal(-4)))
        CFI (cfiCond72) ?BRET_EXT load(1, XDATA, add(CFA_XSP16, literal(-3)))
        CFI (cfiCond72) DPL0 load(1, XDATA, add(CFA_XSP16, literal(-2)))
        CFI (cfiCond72) DPH0 load(1, XDATA, add(CFA_XSP16, literal(-1)))
        CFI (cfiCond72) CFA_SP SP+0
        CFI (cfiCond72) CFA_XSP16 add(XSP16, 35)
        CFI Block cfiCond73 Using cfiCommon0
        CFI (cfiCond73) NoFunction
        CFI (cfiCond73) Conditional ??CrossCallReturnLabel_109, ??CrossCallReturnLabel_106, ??CrossCallReturnLabel_98
        CFI (cfiCond73) R6 load(1, XDATA, add(CFA_XSP16, literal(-21)))
        CFI (cfiCond73) VB load(1, XDATA, add(CFA_XSP16, literal(-20)))
        CFI (cfiCond73) V0 load(1, XDATA, add(CFA_XSP16, literal(-19)))
        CFI (cfiCond73) V1 load(1, XDATA, add(CFA_XSP16, literal(-18)))
        CFI (cfiCond73) V2 load(1, XDATA, add(CFA_XSP16, literal(-17)))
        CFI (cfiCond73) V3 load(1, XDATA, add(CFA_XSP16, literal(-16)))
        CFI (cfiCond73) V4 load(1, XDATA, add(CFA_XSP16, literal(-15)))
        CFI (cfiCond73) V5 load(1, XDATA, add(CFA_XSP16, literal(-14)))
        CFI (cfiCond73) V6 load(1, XDATA, add(CFA_XSP16, literal(-13)))
        CFI (cfiCond73) V7 load(1, XDATA, add(CFA_XSP16, literal(-12)))
        CFI (cfiCond73) V8 load(1, XDATA, add(CFA_XSP16, literal(-11)))
        CFI (cfiCond73) V9 load(1, XDATA, add(CFA_XSP16, literal(-10)))
        CFI (cfiCond73) V10 load(1, XDATA, add(CFA_XSP16, literal(-9)))
        CFI (cfiCond73) V11 load(1, XDATA, add(CFA_XSP16, literal(-8)))
        CFI (cfiCond73) V12 load(1, XDATA, add(CFA_XSP16, literal(-7)))
        CFI (cfiCond73) R7 load(1, XDATA, add(CFA_XSP16, literal(-6)))
        CFI (cfiCond73) ?RET_LOW load(1, XDATA, add(CFA_XSP16, literal(-5)))
        CFI (cfiCond73) ?RET_HIGH load(1, XDATA, add(CFA_XSP16, literal(-4)))
        CFI (cfiCond73) ?BRET_EXT load(1, XDATA, add(CFA_XSP16, literal(-3)))
        CFI (cfiCond73) DPL0 load(1, XDATA, add(CFA_XSP16, literal(-2)))
        CFI (cfiCond73) DPH0 load(1, XDATA, add(CFA_XSP16, literal(-1)))
        CFI (cfiCond73) CFA_SP SP+-1
        CFI (cfiCond73) CFA_XSP16 add(XSP16, 35)
        CFI Block cfiCond74 Using cfiCommon0
        CFI (cfiCond74) NoFunction
        CFI (cfiCond74) Conditional ??CrossCallReturnLabel_109, ??CrossCallReturnLabel_106, ??CrossCallReturnLabel_99
        CFI (cfiCond74) R6 load(1, XDATA, add(CFA_XSP16, literal(-21)))
        CFI (cfiCond74) VB load(1, XDATA, add(CFA_XSP16, literal(-20)))
        CFI (cfiCond74) V0 load(1, XDATA, add(CFA_XSP16, literal(-19)))
        CFI (cfiCond74) V1 load(1, XDATA, add(CFA_XSP16, literal(-18)))
        CFI (cfiCond74) V2 load(1, XDATA, add(CFA_XSP16, literal(-17)))
        CFI (cfiCond74) V3 load(1, XDATA, add(CFA_XSP16, literal(-16)))
        CFI (cfiCond74) V4 load(1, XDATA, add(CFA_XSP16, literal(-15)))
        CFI (cfiCond74) V5 load(1, XDATA, add(CFA_XSP16, literal(-14)))
        CFI (cfiCond74) V6 load(1, XDATA, add(CFA_XSP16, literal(-13)))
        CFI (cfiCond74) V7 load(1, XDATA, add(CFA_XSP16, literal(-12)))
        CFI (cfiCond74) V8 load(1, XDATA, add(CFA_XSP16, literal(-11)))
        CFI (cfiCond74) V9 load(1, XDATA, add(CFA_XSP16, literal(-10)))
        CFI (cfiCond74) V10 load(1, XDATA, add(CFA_XSP16, literal(-9)))
        CFI (cfiCond74) V11 load(1, XDATA, add(CFA_XSP16, literal(-8)))
        CFI (cfiCond74) V12 load(1, XDATA, add(CFA_XSP16, literal(-7)))
        CFI (cfiCond74) R7 load(1, XDATA, add(CFA_XSP16, literal(-6)))
        CFI (cfiCond74) ?RET_LOW load(1, XDATA, add(CFA_XSP16, literal(-5)))
        CFI (cfiCond74) ?RET_HIGH load(1, XDATA, add(CFA_XSP16, literal(-4)))
        CFI (cfiCond74) ?BRET_EXT load(1, XDATA, add(CFA_XSP16, literal(-3)))
        CFI (cfiCond74) DPL0 load(1, XDATA, add(CFA_XSP16, literal(-2)))
        CFI (cfiCond74) DPH0 load(1, XDATA, add(CFA_XSP16, literal(-1)))
        CFI (cfiCond74) CFA_SP SP+0
        CFI (cfiCond74) CFA_XSP16 add(XSP16, 35)
        CFI Block cfiCond75 Using cfiCommon0
        CFI (cfiCond75) NoFunction
        CFI (cfiCond75) Conditional ??CrossCallReturnLabel_109, ??CrossCallReturnLabel_106, ??CrossCallReturnLabel_100
        CFI (cfiCond75) R6 load(1, XDATA, add(CFA_XSP16, literal(-21)))
        CFI (cfiCond75) VB load(1, XDATA, add(CFA_XSP16, literal(-20)))
        CFI (cfiCond75) V0 load(1, XDATA, add(CFA_XSP16, literal(-19)))
        CFI (cfiCond75) V1 load(1, XDATA, add(CFA_XSP16, literal(-18)))
        CFI (cfiCond75) V2 load(1, XDATA, add(CFA_XSP16, literal(-17)))
        CFI (cfiCond75) V3 load(1, XDATA, add(CFA_XSP16, literal(-16)))
        CFI (cfiCond75) V4 load(1, XDATA, add(CFA_XSP16, literal(-15)))
        CFI (cfiCond75) V5 load(1, XDATA, add(CFA_XSP16, literal(-14)))
        CFI (cfiCond75) V6 load(1, XDATA, add(CFA_XSP16, literal(-13)))
        CFI (cfiCond75) V7 load(1, XDATA, add(CFA_XSP16, literal(-12)))
        CFI (cfiCond75) V8 load(1, XDATA, add(CFA_XSP16, literal(-11)))
        CFI (cfiCond75) V9 load(1, XDATA, add(CFA_XSP16, literal(-10)))
        CFI (cfiCond75) V10 load(1, XDATA, add(CFA_XSP16, literal(-9)))
        CFI (cfiCond75) V11 load(1, XDATA, add(CFA_XSP16, literal(-8)))
        CFI (cfiCond75) V12 load(1, XDATA, add(CFA_XSP16, literal(-7)))
        CFI (cfiCond75) R7 load(1, XDATA, add(CFA_XSP16, literal(-6)))
        CFI (cfiCond75) ?RET_LOW load(1, XDATA, add(CFA_XSP16, literal(-5)))
        CFI (cfiCond75) ?RET_HIGH load(1, XDATA, add(CFA_XSP16, literal(-4)))
        CFI (cfiCond75) ?BRET_EXT load(1, XDATA, add(CFA_XSP16, literal(-3)))
        CFI (cfiCond75) DPL0 load(1, XDATA, add(CFA_XSP16, literal(-2)))
        CFI (cfiCond75) DPH0 load(1, XDATA, add(CFA_XSP16, literal(-1)))
        CFI (cfiCond75) CFA_SP SP+0
        CFI (cfiCond75) CFA_XSP16 add(XSP16, 35)
        CFI Block cfiCond76 Using cfiCommon0
        CFI (cfiCond76) NoFunction
        CFI (cfiCond76) Conditional ??CrossCallReturnLabel_109, ??CrossCallReturnLabel_106, ??CrossCallReturnLabel_101
        CFI (cfiCond76) R6 load(1, XDATA, add(CFA_XSP16, literal(-21)))
        CFI (cfiCond76) VB load(1, XDATA, add(CFA_XSP16, literal(-20)))
        CFI (cfiCond76) V0 load(1, XDATA, add(CFA_XSP16, literal(-19)))
        CFI (cfiCond76) V1 load(1, XDATA, add(CFA_XSP16, literal(-18)))
        CFI (cfiCond76) V2 load(1, XDATA, add(CFA_XSP16, literal(-17)))
        CFI (cfiCond76) V3 load(1, XDATA, add(CFA_XSP16, literal(-16)))
        CFI (cfiCond76) V4 load(1, XDATA, add(CFA_XSP16, literal(-15)))
        CFI (cfiCond76) V5 load(1, XDATA, add(CFA_XSP16, literal(-14)))
        CFI (cfiCond76) V6 load(1, XDATA, add(CFA_XSP16, literal(-13)))
        CFI (cfiCond76) V7 load(1, XDATA, add(CFA_XSP16, literal(-12)))
        CFI (cfiCond76) V8 load(1, XDATA, add(CFA_XSP16, literal(-11)))
        CFI (cfiCond76) V9 load(1, XDATA, add(CFA_XSP16, literal(-10)))
        CFI (cfiCond76) V10 load(1, XDATA, add(CFA_XSP16, literal(-9)))
        CFI (cfiCond76) V11 load(1, XDATA, add(CFA_XSP16, literal(-8)))
        CFI (cfiCond76) V12 load(1, XDATA, add(CFA_XSP16, literal(-7)))
        CFI (cfiCond76) R7 load(1, XDATA, add(CFA_XSP16, literal(-6)))
        CFI (cfiCond76) ?RET_LOW load(1, XDATA, add(CFA_XSP16, literal(-5)))
        CFI (cfiCond76) ?RET_HIGH load(1, XDATA, add(CFA_XSP16, literal(-4)))
        CFI (cfiCond76) ?BRET_EXT load(1, XDATA, add(CFA_XSP16, literal(-3)))
        CFI (cfiCond76) DPL0 load(1, XDATA, add(CFA_XSP16, literal(-2)))
        CFI (cfiCond76) DPH0 load(1, XDATA, add(CFA_XSP16, literal(-1)))
        CFI (cfiCond76) CFA_SP SP+0
        CFI (cfiCond76) CFA_XSP16 add(XSP16, 35)
        CFI Block cfiCond77 Using cfiCommon0
        CFI (cfiCond77) NoFunction
        CFI (cfiCond77) Conditional ??CrossCallReturnLabel_109, ??CrossCallReturnLabel_106, ??CrossCallReturnLabel_102
        CFI (cfiCond77) R6 load(1, XDATA, add(CFA_XSP16, literal(-14)))
        CFI (cfiCond77) VB load(1, XDATA, add(CFA_XSP16, literal(-13)))
        CFI (cfiCond77) V0 load(1, XDATA, add(CFA_XSP16, literal(-12)))
        CFI (cfiCond77) V1 load(1, XDATA, add(CFA_XSP16, literal(-11)))
        CFI (cfiCond77) V2 load(1, XDATA, add(CFA_XSP16, literal(-10)))
        CFI (cfiCond77) V3 load(1, XDATA, add(CFA_XSP16, literal(-9)))
        CFI (cfiCond77) V4 load(1, XDATA, add(CFA_XSP16, literal(-8)))
        CFI (cfiCond77) V5 load(1, XDATA, add(CFA_XSP16, literal(-7)))
        CFI (cfiCond77) R7 load(1, XDATA, add(CFA_XSP16, literal(-6)))
        CFI (cfiCond77) ?RET_LOW load(1, XDATA, add(CFA_XSP16, literal(-5)))
        CFI (cfiCond77) ?RET_HIGH load(1, XDATA, add(CFA_XSP16, literal(-4)))
        CFI (cfiCond77) ?BRET_EXT load(1, XDATA, add(CFA_XSP16, literal(-3)))
        CFI (cfiCond77) DPL0 load(1, XDATA, add(CFA_XSP16, literal(-2)))
        CFI (cfiCond77) DPH0 load(1, XDATA, add(CFA_XSP16, literal(-1)))
        CFI (cfiCond77) CFA_SP SP+0
        CFI (cfiCond77) CFA_XSP16 add(XSP16, 20)
        CFI Block cfiCond78 Using cfiCommon0
        CFI (cfiCond78) NoFunction
        CFI (cfiCond78) Conditional ??CrossCallReturnLabel_107
        CFI (cfiCond78) R6 load(1, XDATA, add(CFA_XSP16, literal(-24)))
        CFI (cfiCond78) VB load(1, XDATA, add(CFA_XSP16, literal(-23)))
        CFI (cfiCond78) V0 load(1, XDATA, add(CFA_XSP16, literal(-22)))
        CFI (cfiCond78) V1 load(1, XDATA, add(CFA_XSP16, literal(-21)))
        CFI (cfiCond78) V2 load(1, XDATA, add(CFA_XSP16, literal(-20)))
        CFI (cfiCond78) V3 load(1, XDATA, add(CFA_XSP16, literal(-19)))
        CFI (cfiCond78) V4 load(1, XDATA, add(CFA_XSP16, literal(-18)))
        CFI (cfiCond78) V5 load(1, XDATA, add(CFA_XSP16, literal(-17)))
        CFI (cfiCond78) V6 load(1, XDATA, add(CFA_XSP16, literal(-16)))
        CFI (cfiCond78) V7 load(1, XDATA, add(CFA_XSP16, literal(-15)))
        CFI (cfiCond78) V8 load(1, XDATA, add(CFA_XSP16, literal(-14)))
        CFI (cfiCond78) V9 load(1, XDATA, add(CFA_XSP16, literal(-13)))
        CFI (cfiCond78) V10 load(1, XDATA, add(CFA_XSP16, literal(-12)))
        CFI (cfiCond78) V11 load(1, XDATA, add(CFA_XSP16, literal(-11)))
        CFI (cfiCond78) V12 load(1, XDATA, add(CFA_XSP16, literal(-10)))
        CFI (cfiCond78) V13 load(1, XDATA, add(CFA_XSP16, literal(-9)))
        CFI (cfiCond78) V14 load(1, XDATA, add(CFA_XSP16, literal(-8)))
        CFI (cfiCond78) V15 load(1, XDATA, add(CFA_XSP16, literal(-7)))
        CFI (cfiCond78) R7 load(1, XDATA, add(CFA_XSP16, literal(-6)))
        CFI (cfiCond78) ?RET_LOW load(1, XDATA, add(CFA_XSP16, literal(-5)))
        CFI (cfiCond78) ?RET_HIGH load(1, XDATA, add(CFA_XSP16, literal(-4)))
        CFI (cfiCond78) ?BRET_EXT load(1, XDATA, add(CFA_XSP16, literal(-3)))
        CFI (cfiCond78) DPL0 load(1, XDATA, add(CFA_XSP16, literal(-2)))
        CFI (cfiCond78) DPH0 load(1, XDATA, add(CFA_XSP16, literal(-1)))
        CFI (cfiCond78) CFA_SP SP+0
        CFI (cfiCond78) CFA_XSP16 add(XSP16, 25)
        CFI Block cfiCond79 Using cfiCommon0
        CFI (cfiCond79) NoFunction
        CFI (cfiCond79) Conditional ??CrossCallReturnLabel_108
        CFI (cfiCond79) R6 load(1, XDATA, add(CFA_XSP16, literal(-24)))
        CFI (cfiCond79) VB load(1, XDATA, add(CFA_XSP16, literal(-23)))
        CFI (cfiCond79) V0 load(1, XDATA, add(CFA_XSP16, literal(-22)))
        CFI (cfiCond79) V1 load(1, XDATA, add(CFA_XSP16, literal(-21)))
        CFI (cfiCond79) V2 load(1, XDATA, add(CFA_XSP16, literal(-20)))
        CFI (cfiCond79) V3 load(1, XDATA, add(CFA_XSP16, literal(-19)))
        CFI (cfiCond79) V4 load(1, XDATA, add(CFA_XSP16, literal(-18)))
        CFI (cfiCond79) V5 load(1, XDATA, add(CFA_XSP16, literal(-17)))
        CFI (cfiCond79) V6 load(1, XDATA, add(CFA_XSP16, literal(-16)))
        CFI (cfiCond79) V7 load(1, XDATA, add(CFA_XSP16, literal(-15)))
        CFI (cfiCond79) V8 load(1, XDATA, add(CFA_XSP16, literal(-14)))
        CFI (cfiCond79) V9 load(1, XDATA, add(CFA_XSP16, literal(-13)))
        CFI (cfiCond79) V10 load(1, XDATA, add(CFA_XSP16, literal(-12)))
        CFI (cfiCond79) V11 load(1, XDATA, add(CFA_XSP16, literal(-11)))
        CFI (cfiCond79) V12 load(1, XDATA, add(CFA_XSP16, literal(-10)))
        CFI (cfiCond79) V13 load(1, XDATA, add(CFA_XSP16, literal(-9)))
        CFI (cfiCond79) V14 load(1, XDATA, add(CFA_XSP16, literal(-8)))
        CFI (cfiCond79) V15 load(1, XDATA, add(CFA_XSP16, literal(-7)))
        CFI (cfiCond79) R7 load(1, XDATA, add(CFA_XSP16, literal(-6)))
        CFI (cfiCond79) ?RET_LOW load(1, XDATA, add(CFA_XSP16, literal(-5)))
        CFI (cfiCond79) ?RET_HIGH load(1, XDATA, add(CFA_XSP16, literal(-4)))
        CFI (cfiCond79) ?BRET_EXT load(1, XDATA, add(CFA_XSP16, literal(-3)))
        CFI (cfiCond79) DPL0 load(1, XDATA, add(CFA_XSP16, literal(-2)))
        CFI (cfiCond79) DPH0 load(1, XDATA, add(CFA_XSP16, literal(-1)))
        CFI (cfiCond79) CFA_SP SP+0
        CFI (cfiCond79) CFA_XSP16 add(XSP16, 25)
        CFI Block cfiPicker80 Using cfiCommon1
        CFI (cfiPicker80) NoFunction
        CFI (cfiPicker80) Picker
        ADDC    A,#0x0
        MOV     R1,A
        MOV     DPL,R0
        MOV     DPH,R1
        RET
        CFI EndBlock cfiCond65
        CFI EndBlock cfiCond66
        CFI EndBlock cfiCond67
        CFI EndBlock cfiCond68
        CFI EndBlock cfiCond69
        CFI EndBlock cfiCond70
        CFI EndBlock cfiCond71
        CFI EndBlock cfiCond72
        CFI EndBlock cfiCond73
        CFI EndBlock cfiCond74
        CFI EndBlock cfiCond75
        CFI EndBlock cfiCond76
        CFI EndBlock cfiCond77
        CFI EndBlock cfiCond78
        CFI EndBlock cfiCond79
        CFI EndBlock cfiPicker80

        RSEG BANKED_CODE:CODE:NOROOT(0)
?Subroutine28:
        CFI Block cfiCond81 Using cfiCommon0
        CFI NoFunction
        CFI Conditional ??CrossCallReturnLabel_47
        CFI R6 load(1, XDATA, add(CFA_XSP16, literal(-21)))
        CFI VB load(1, XDATA, add(CFA_XSP16, literal(-20)))
        CFI V0 load(1, XDATA, add(CFA_XSP16, literal(-19)))
        CFI V1 load(1, XDATA, add(CFA_XSP16, literal(-18)))
        CFI V2 load(1, XDATA, add(CFA_XSP16, literal(-17)))
        CFI V3 load(1, XDATA, add(CFA_XSP16, literal(-16)))
        CFI V4 load(1, XDATA, add(CFA_XSP16, literal(-15)))
        CFI V5 load(1, XDATA, add(CFA_XSP16, literal(-14)))
        CFI V6 load(1, XDATA, add(CFA_XSP16, literal(-13)))
        CFI V7 load(1, XDATA, add(CFA_XSP16, literal(-12)))
        CFI V8 load(1, XDATA, add(CFA_XSP16, literal(-11)))
        CFI V9 load(1, XDATA, add(CFA_XSP16, literal(-10)))
        CFI V10 load(1, XDATA, add(CFA_XSP16, literal(-9)))
        CFI V11 load(1, XDATA, add(CFA_XSP16, literal(-8)))
        CFI V12 load(1, XDATA, add(CFA_XSP16, literal(-7)))
        CFI R7 load(1, XDATA, add(CFA_XSP16, literal(-6)))
        CFI ?RET_LOW load(1, XDATA, add(CFA_XSP16, literal(-5)))
        CFI ?RET_HIGH load(1, XDATA, add(CFA_XSP16, literal(-4)))
        CFI ?BRET_EXT load(1, XDATA, add(CFA_XSP16, literal(-3)))
        CFI DPL0 load(1, XDATA, add(CFA_XSP16, literal(-2)))
        CFI DPH0 load(1, XDATA, add(CFA_XSP16, literal(-1)))
        CFI CFA_SP SP+0
        CFI CFA_XSP16 add(XSP16, 35)
        CFI Block cfiCond82 Using cfiCommon0
        CFI (cfiCond82) NoFunction
        CFI (cfiCond82) Conditional ??CrossCallReturnLabel_48
        CFI (cfiCond82) R6 load(1, XDATA, add(CFA_XSP16, literal(-24)))
        CFI (cfiCond82) VB load(1, XDATA, add(CFA_XSP16, literal(-23)))
        CFI (cfiCond82) V0 load(1, XDATA, add(CFA_XSP16, literal(-22)))
        CFI (cfiCond82) V1 load(1, XDATA, add(CFA_XSP16, literal(-21)))
        CFI (cfiCond82) V2 load(1, XDATA, add(CFA_XSP16, literal(-20)))
        CFI (cfiCond82) V3 load(1, XDATA, add(CFA_XSP16, literal(-19)))
        CFI (cfiCond82) V4 load(1, XDATA, add(CFA_XSP16, literal(-18)))
        CFI (cfiCond82) V5 load(1, XDATA, add(CFA_XSP16, literal(-17)))
        CFI (cfiCond82) V6 load(1, XDATA, add(CFA_XSP16, literal(-16)))
        CFI (cfiCond82) V7 load(1, XDATA, add(CFA_XSP16, literal(-15)))
        CFI (cfiCond82) V8 load(1, XDATA, add(CFA_XSP16, literal(-14)))
        CFI (cfiCond82) V9 load(1, XDATA, add(CFA_XSP16, literal(-13)))
        CFI (cfiCond82) V10 load(1, XDATA, add(CFA_XSP16, literal(-12)))
        CFI (cfiCond82) V11 load(1, XDATA, add(CFA_XSP16, literal(-11)))
        CFI (cfiCond82) V12 load(1, XDATA, add(CFA_XSP16, literal(-10)))
        CFI (cfiCond82) V13 load(1, XDATA, add(CFA_XSP16, literal(-9)))
        CFI (cfiCond82) V14 load(1, XDATA, add(CFA_XSP16, literal(-8)))
        CFI (cfiCond82) V15 load(1, XDATA, add(CFA_XSP16, literal(-7)))
        CFI (cfiCond82) R7 load(1, XDATA, add(CFA_XSP16, literal(-6)))
        CFI (cfiCond82) ?RET_LOW load(1, XDATA, add(CFA_XSP16, literal(-5)))
        CFI (cfiCond82) ?RET_HIGH load(1, XDATA, add(CFA_XSP16, literal(-4)))
        CFI (cfiCond82) ?BRET_EXT load(1, XDATA, add(CFA_XSP16, literal(-3)))
        CFI (cfiCond82) DPL0 load(1, XDATA, add(CFA_XSP16, literal(-2)))
        CFI (cfiCond82) DPH0 load(1, XDATA, add(CFA_XSP16, literal(-1)))
        CFI (cfiCond82) CFA_SP SP+0
        CFI (cfiCond82) CFA_XSP16 add(XSP16, 25)
        CFI Block cfiPicker83 Using cfiCommon1
        CFI (cfiPicker83) NoFunction
        CFI (cfiPicker83) Picker
        ADD     A,R6
        MOV     R2,A
        CLR     A
        ADDC    A,R7
        MOV     R3,A
        LCALL   ??osal_mem_alloc?relay
        RET
        CFI EndBlock cfiCond81
        CFI EndBlock cfiCond82
        CFI EndBlock cfiPicker83

        RSEG BANKED_CODE:CODE:NOROOT(0)
?Subroutine24:
        CFI Block cfiCond84 Using cfiCommon0
        CFI NoFunction
        CFI Conditional ??CrossCallReturnLabel_37
        CFI R6 load(1, XDATA, add(CFA_XSP16, literal(-21)))
        CFI VB load(1, XDATA, add(CFA_XSP16, literal(-20)))
        CFI V0 load(1, XDATA, add(CFA_XSP16, literal(-19)))
        CFI V1 load(1, XDATA, add(CFA_XSP16, literal(-18)))
        CFI V2 load(1, XDATA, add(CFA_XSP16, literal(-17)))
        CFI V3 load(1, XDATA, add(CFA_XSP16, literal(-16)))
        CFI V4 load(1, XDATA, add(CFA_XSP16, literal(-15)))
        CFI V5 load(1, XDATA, add(CFA_XSP16, literal(-14)))
        CFI V6 load(1, XDATA, add(CFA_XSP16, literal(-13)))
        CFI V7 load(1, XDATA, add(CFA_XSP16, literal(-12)))
        CFI V8 load(1, XDATA, add(CFA_XSP16, literal(-11)))
        CFI V9 load(1, XDATA, add(CFA_XSP16, literal(-10)))
        CFI V10 load(1, XDATA, add(CFA_XSP16, literal(-9)))
        CFI V11 load(1, XDATA, add(CFA_XSP16, literal(-8)))
        CFI V12 load(1, XDATA, add(CFA_XSP16, literal(-7)))
        CFI R7 load(1, XDATA, add(CFA_XSP16, literal(-6)))
        CFI ?RET_LOW load(1, XDATA, add(CFA_XSP16, literal(-5)))
        CFI ?RET_HIGH load(1, XDATA, add(CFA_XSP16, literal(-4)))
        CFI ?BRET_EXT load(1, XDATA, add(CFA_XSP16, literal(-3)))
        CFI DPL0 load(1, XDATA, add(CFA_XSP16, literal(-2)))
        CFI DPH0 load(1, XDATA, add(CFA_XSP16, literal(-1)))
        CFI CFA_SP SP+0
        CFI CFA_XSP16 add(XSP16, 35)
        CFI Block cfiCond85 Using cfiCommon0
        CFI (cfiCond85) NoFunction
        CFI (cfiCond85) Conditional ??CrossCallReturnLabel_38
        CFI (cfiCond85) R6 load(1, XDATA, add(CFA_XSP16, literal(-21)))
        CFI (cfiCond85) VB load(1, XDATA, add(CFA_XSP16, literal(-20)))
        CFI (cfiCond85) V0 load(1, XDATA, add(CFA_XSP16, literal(-19)))
        CFI (cfiCond85) V1 load(1, XDATA, add(CFA_XSP16, literal(-18)))
        CFI (cfiCond85) V2 load(1, XDATA, add(CFA_XSP16, literal(-17)))
        CFI (cfiCond85) V3 load(1, XDATA, add(CFA_XSP16, literal(-16)))
        CFI (cfiCond85) V4 load(1, XDATA, add(CFA_XSP16, literal(-15)))
        CFI (cfiCond85) V5 load(1, XDATA, add(CFA_XSP16, literal(-14)))
        CFI (cfiCond85) V6 load(1, XDATA, add(CFA_XSP16, literal(-13)))
        CFI (cfiCond85) V7 load(1, XDATA, add(CFA_XSP16, literal(-12)))
        CFI (cfiCond85) V8 load(1, XDATA, add(CFA_XSP16, literal(-11)))
        CFI (cfiCond85) V9 load(1, XDATA, add(CFA_XSP16, literal(-10)))
        CFI (cfiCond85) V10 load(1, XDATA, add(CFA_XSP16, literal(-9)))
        CFI (cfiCond85) V11 load(1, XDATA, add(CFA_XSP16, literal(-8)))
        CFI (cfiCond85) V12 load(1, XDATA, add(CFA_XSP16, literal(-7)))
        CFI (cfiCond85) R7 load(1, XDATA, add(CFA_XSP16, literal(-6)))
        CFI (cfiCond85) ?RET_LOW load(1, XDATA, add(CFA_XSP16, literal(-5)))
        CFI (cfiCond85) ?RET_HIGH load(1, XDATA, add(CFA_XSP16, literal(-4)))
        CFI (cfiCond85) ?BRET_EXT load(1, XDATA, add(CFA_XSP16, literal(-3)))
        CFI (cfiCond85) DPL0 load(1, XDATA, add(CFA_XSP16, literal(-2)))
        CFI (cfiCond85) DPH0 load(1, XDATA, add(CFA_XSP16, literal(-1)))
        CFI (cfiCond85) CFA_SP SP+0
        CFI (cfiCond85) CFA_XSP16 add(XSP16, 35)
        CFI Block cfiCond86 Using cfiCommon0
        CFI (cfiCond86) NoFunction
        CFI (cfiCond86) Conditional ??CrossCallReturnLabel_39
        CFI (cfiCond86) R6 load(1, XDATA, add(CFA_XSP16, literal(-21)))
        CFI (cfiCond86) VB load(1, XDATA, add(CFA_XSP16, literal(-20)))
        CFI (cfiCond86) V0 load(1, XDATA, add(CFA_XSP16, literal(-19)))
        CFI (cfiCond86) V1 load(1, XDATA, add(CFA_XSP16, literal(-18)))
        CFI (cfiCond86) V2 load(1, XDATA, add(CFA_XSP16, literal(-17)))
        CFI (cfiCond86) V3 load(1, XDATA, add(CFA_XSP16, literal(-16)))
        CFI (cfiCond86) V4 load(1, XDATA, add(CFA_XSP16, literal(-15)))
        CFI (cfiCond86) V5 load(1, XDATA, add(CFA_XSP16, literal(-14)))
        CFI (cfiCond86) V6 load(1, XDATA, add(CFA_XSP16, literal(-13)))
        CFI (cfiCond86) V7 load(1, XDATA, add(CFA_XSP16, literal(-12)))
        CFI (cfiCond86) V8 load(1, XDATA, add(CFA_XSP16, literal(-11)))
        CFI (cfiCond86) V9 load(1, XDATA, add(CFA_XSP16, literal(-10)))
        CFI (cfiCond86) V10 load(1, XDATA, add(CFA_XSP16, literal(-9)))
        CFI (cfiCond86) V11 load(1, XDATA, add(CFA_XSP16, literal(-8)))
        CFI (cfiCond86) V12 load(1, XDATA, add(CFA_XSP16, literal(-7)))
        CFI (cfiCond86) R7 load(1, XDATA, add(CFA_XSP16, literal(-6)))
        CFI (cfiCond86) ?RET_LOW load(1, XDATA, add(CFA_XSP16, literal(-5)))
        CFI (cfiCond86) ?RET_HIGH load(1, XDATA, add(CFA_XSP16, literal(-4)))
        CFI (cfiCond86) ?BRET_EXT load(1, XDATA, add(CFA_XSP16, literal(-3)))
        CFI (cfiCond86) DPL0 load(1, XDATA, add(CFA_XSP16, literal(-2)))
        CFI (cfiCond86) DPH0 load(1, XDATA, add(CFA_XSP16, literal(-1)))
        CFI (cfiCond86) CFA_SP SP+0
        CFI (cfiCond86) CFA_XSP16 add(XSP16, 35)
        CFI Block cfiCond87 Using cfiCommon0
        CFI (cfiCond87) NoFunction
        CFI (cfiCond87) Conditional ??CrossCallReturnLabel_40
        CFI (cfiCond87) R6 load(1, XDATA, add(CFA_XSP16, literal(-24)))
        CFI (cfiCond87) VB load(1, XDATA, add(CFA_XSP16, literal(-23)))
        CFI (cfiCond87) V0 load(1, XDATA, add(CFA_XSP16, literal(-22)))
        CFI (cfiCond87) V1 load(1, XDATA, add(CFA_XSP16, literal(-21)))
        CFI (cfiCond87) V2 load(1, XDATA, add(CFA_XSP16, literal(-20)))
        CFI (cfiCond87) V3 load(1, XDATA, add(CFA_XSP16, literal(-19)))
        CFI (cfiCond87) V4 load(1, XDATA, add(CFA_XSP16, literal(-18)))
        CFI (cfiCond87) V5 load(1, XDATA, add(CFA_XSP16, literal(-17)))
        CFI (cfiCond87) V6 load(1, XDATA, add(CFA_XSP16, literal(-16)))
        CFI (cfiCond87) V7 load(1, XDATA, add(CFA_XSP16, literal(-15)))
        CFI (cfiCond87) V8 load(1, XDATA, add(CFA_XSP16, literal(-14)))
        CFI (cfiCond87) V9 load(1, XDATA, add(CFA_XSP16, literal(-13)))
        CFI (cfiCond87) V10 load(1, XDATA, add(CFA_XSP16, literal(-12)))
        CFI (cfiCond87) V11 load(1, XDATA, add(CFA_XSP16, literal(-11)))
        CFI (cfiCond87) V12 load(1, XDATA, add(CFA_XSP16, literal(-10)))
        CFI (cfiCond87) V13 load(1, XDATA, add(CFA_XSP16, literal(-9)))
        CFI (cfiCond87) V14 load(1, XDATA, add(CFA_XSP16, literal(-8)))
        CFI (cfiCond87) V15 load(1, XDATA, add(CFA_XSP16, literal(-7)))
        CFI (cfiCond87) R7 load(1, XDATA, add(CFA_XSP16, literal(-6)))
        CFI (cfiCond87) ?RET_LOW load(1, XDATA, add(CFA_XSP16, literal(-5)))
        CFI (cfiCond87) ?RET_HIGH load(1, XDATA, add(CFA_XSP16, literal(-4)))
        CFI (cfiCond87) ?BRET_EXT load(1, XDATA, add(CFA_XSP16, literal(-3)))
        CFI (cfiCond87) DPL0 load(1, XDATA, add(CFA_XSP16, literal(-2)))
        CFI (cfiCond87) DPH0 load(1, XDATA, add(CFA_XSP16, literal(-1)))
        CFI (cfiCond87) CFA_SP SP+0
        CFI (cfiCond87) CFA_XSP16 add(XSP16, 25)
        CFI Block cfiCond88 Using cfiCommon0
        CFI (cfiCond88) NoFunction
        CFI (cfiCond88) Conditional ??CrossCallReturnLabel_41
        CFI (cfiCond88) R6 load(1, XDATA, add(CFA_XSP16, literal(-24)))
        CFI (cfiCond88) VB load(1, XDATA, add(CFA_XSP16, literal(-23)))
        CFI (cfiCond88) V0 load(1, XDATA, add(CFA_XSP16, literal(-22)))
        CFI (cfiCond88) V1 load(1, XDATA, add(CFA_XSP16, literal(-21)))
        CFI (cfiCond88) V2 load(1, XDATA, add(CFA_XSP16, literal(-20)))
        CFI (cfiCond88) V3 load(1, XDATA, add(CFA_XSP16, literal(-19)))
        CFI (cfiCond88) V4 load(1, XDATA, add(CFA_XSP16, literal(-18)))
        CFI (cfiCond88) V5 load(1, XDATA, add(CFA_XSP16, literal(-17)))
        CFI (cfiCond88) V6 load(1, XDATA, add(CFA_XSP16, literal(-16)))
        CFI (cfiCond88) V7 load(1, XDATA, add(CFA_XSP16, literal(-15)))
        CFI (cfiCond88) V8 load(1, XDATA, add(CFA_XSP16, literal(-14)))
        CFI (cfiCond88) V9 load(1, XDATA, add(CFA_XSP16, literal(-13)))
        CFI (cfiCond88) V10 load(1, XDATA, add(CFA_XSP16, literal(-12)))
        CFI (cfiCond88) V11 load(1, XDATA, add(CFA_XSP16, literal(-11)))
        CFI (cfiCond88) V12 load(1, XDATA, add(CFA_XSP16, literal(-10)))
        CFI (cfiCond88) V13 load(1, XDATA, add(CFA_XSP16, literal(-9)))
        CFI (cfiCond88) V14 load(1, XDATA, add(CFA_XSP16, literal(-8)))
        CFI (cfiCond88) V15 load(1, XDATA, add(CFA_XSP16, literal(-7)))
        CFI (cfiCond88) R7 load(1, XDATA, add(CFA_XSP16, literal(-6)))
        CFI (cfiCond88) ?RET_LOW load(1, XDATA, add(CFA_XSP16, literal(-5)))
        CFI (cfiCond88) ?RET_HIGH load(1, XDATA, add(CFA_XSP16, literal(-4)))
        CFI (cfiCond88) ?BRET_EXT load(1, XDATA, add(CFA_XSP16, literal(-3)))
        CFI (cfiCond88) DPL0 load(1, XDATA, add(CFA_XSP16, literal(-2)))
        CFI (cfiCond88) DPH0 load(1, XDATA, add(CFA_XSP16, literal(-1)))
        CFI (cfiCond88) CFA_SP SP+0
        CFI (cfiCond88) CFA_XSP16 add(XSP16, 25)
        CFI Block cfiCond89 Using cfiCommon0
        CFI (cfiCond89) NoFunction
        CFI (cfiCond89) Conditional ??CrossCallReturnLabel_42
        CFI (cfiCond89) R6 load(1, XDATA, add(CFA_XSP16, literal(-20)))
        CFI (cfiCond89) VB load(1, XDATA, add(CFA_XSP16, literal(-19)))
        CFI (cfiCond89) V0 load(1, XDATA, add(CFA_XSP16, literal(-18)))
        CFI (cfiCond89) V1 load(1, XDATA, add(CFA_XSP16, literal(-17)))
        CFI (cfiCond89) V2 load(1, XDATA, add(CFA_XSP16, literal(-16)))
        CFI (cfiCond89) V3 load(1, XDATA, add(CFA_XSP16, literal(-15)))
        CFI (cfiCond89) V4 load(1, XDATA, add(CFA_XSP16, literal(-14)))
        CFI (cfiCond89) V5 load(1, XDATA, add(CFA_XSP16, literal(-13)))
        CFI (cfiCond89) V6 load(1, XDATA, add(CFA_XSP16, literal(-12)))
        CFI (cfiCond89) V7 load(1, XDATA, add(CFA_XSP16, literal(-11)))
        CFI (cfiCond89) V8 load(1, XDATA, add(CFA_XSP16, literal(-10)))
        CFI (cfiCond89) V9 load(1, XDATA, add(CFA_XSP16, literal(-9)))
        CFI (cfiCond89) V10 load(1, XDATA, add(CFA_XSP16, literal(-8)))
        CFI (cfiCond89) V11 load(1, XDATA, add(CFA_XSP16, literal(-7)))
        CFI (cfiCond89) R7 load(1, XDATA, add(CFA_XSP16, literal(-6)))
        CFI (cfiCond89) ?RET_LOW load(1, XDATA, add(CFA_XSP16, literal(-5)))
        CFI (cfiCond89) ?RET_HIGH load(1, XDATA, add(CFA_XSP16, literal(-4)))
        CFI (cfiCond89) ?BRET_EXT load(1, XDATA, add(CFA_XSP16, literal(-3)))
        CFI (cfiCond89) DPL0 load(1, XDATA, add(CFA_XSP16, literal(-2)))
        CFI (cfiCond89) DPH0 load(1, XDATA, add(CFA_XSP16, literal(-1)))
        CFI (cfiCond89) CFA_SP SP+0
        CFI (cfiCond89) CFA_XSP16 add(XSP16, 20)
        CFI Block cfiPicker90 Using cfiCommon1
        CFI (cfiPicker90) NoFunction
        CFI (cfiPicker90) Picker
        MOV     A,R0
        MOVX    @DPTR,A
        INC     DPTR
        MOV     A,R1
        MOVX    @DPTR,A
        RET
        CFI EndBlock cfiCond84
        CFI EndBlock cfiCond85
        CFI EndBlock cfiCond86
        CFI EndBlock cfiCond87
        CFI EndBlock cfiCond88
        CFI EndBlock cfiCond89
        CFI EndBlock cfiPicker90

        RSEG BANKED_CODE:CODE:NOROOT(0)
?Subroutine20:
        CFI Block cfiCond91 Using cfiCommon0
        CFI NoFunction
        CFI Conditional ??CrossCallReturnLabel_27
        CFI R6 load(1, XDATA, add(CFA_XSP16, literal(-24)))
        CFI VB load(1, XDATA, add(CFA_XSP16, literal(-23)))
        CFI V0 load(1, XDATA, add(CFA_XSP16, literal(-22)))
        CFI V1 load(1, XDATA, add(CFA_XSP16, literal(-21)))
        CFI V2 load(1, XDATA, add(CFA_XSP16, literal(-20)))
        CFI V3 load(1, XDATA, add(CFA_XSP16, literal(-19)))
        CFI V4 load(1, XDATA, add(CFA_XSP16, literal(-18)))
        CFI V5 load(1, XDATA, add(CFA_XSP16, literal(-17)))
        CFI V6 load(1, XDATA, add(CFA_XSP16, literal(-16)))
        CFI V7 load(1, XDATA, add(CFA_XSP16, literal(-15)))
        CFI V8 load(1, XDATA, add(CFA_XSP16, literal(-14)))
        CFI V9 load(1, XDATA, add(CFA_XSP16, literal(-13)))
        CFI V10 load(1, XDATA, add(CFA_XSP16, literal(-12)))
        CFI V11 load(1, XDATA, add(CFA_XSP16, literal(-11)))
        CFI V12 load(1, XDATA, add(CFA_XSP16, literal(-10)))
        CFI V13 load(1, XDATA, add(CFA_XSP16, literal(-9)))
        CFI V14 load(1, XDATA, add(CFA_XSP16, literal(-8)))
        CFI V15 load(1, XDATA, add(CFA_XSP16, literal(-7)))
        CFI R7 load(1, XDATA, add(CFA_XSP16, literal(-6)))
        CFI ?RET_LOW load(1, XDATA, add(CFA_XSP16, literal(-5)))
        CFI ?RET_HIGH load(1, XDATA, add(CFA_XSP16, literal(-4)))
        CFI ?BRET_EXT load(1, XDATA, add(CFA_XSP16, literal(-3)))
        CFI DPL0 load(1, XDATA, add(CFA_XSP16, literal(-2)))
        CFI DPH0 load(1, XDATA, add(CFA_XSP16, literal(-1)))
        CFI CFA_SP SP+0
        CFI CFA_XSP16 add(XSP16, 25)
        CFI Block cfiCond92 Using cfiCommon0
        CFI (cfiCond92) NoFunction
        CFI (cfiCond92) Conditional ??CrossCallReturnLabel_28
        CFI (cfiCond92) R6 load(1, XDATA, add(CFA_XSP16, literal(-24)))
        CFI (cfiCond92) VB load(1, XDATA, add(CFA_XSP16, literal(-23)))
        CFI (cfiCond92) V0 load(1, XDATA, add(CFA_XSP16, literal(-22)))
        CFI (cfiCond92) V1 load(1, XDATA, add(CFA_XSP16, literal(-21)))
        CFI (cfiCond92) V2 load(1, XDATA, add(CFA_XSP16, literal(-20)))
        CFI (cfiCond92) V3 load(1, XDATA, add(CFA_XSP16, literal(-19)))
        CFI (cfiCond92) V4 load(1, XDATA, add(CFA_XSP16, literal(-18)))
        CFI (cfiCond92) V5 load(1, XDATA, add(CFA_XSP16, literal(-17)))
        CFI (cfiCond92) V6 load(1, XDATA, add(CFA_XSP16, literal(-16)))
        CFI (cfiCond92) V7 load(1, XDATA, add(CFA_XSP16, literal(-15)))
        CFI (cfiCond92) V8 load(1, XDATA, add(CFA_XSP16, literal(-14)))
        CFI (cfiCond92) V9 load(1, XDATA, add(CFA_XSP16, literal(-13)))
        CFI (cfiCond92) V10 load(1, XDATA, add(CFA_XSP16, literal(-12)))
        CFI (cfiCond92) V11 load(1, XDATA, add(CFA_XSP16, literal(-11)))
        CFI (cfiCond92) V12 load(1, XDATA, add(CFA_XSP16, literal(-10)))
        CFI (cfiCond92) V13 load(1, XDATA, add(CFA_XSP16, literal(-9)))
        CFI (cfiCond92) V14 load(1, XDATA, add(CFA_XSP16, literal(-8)))
        CFI (cfiCond92) V15 load(1, XDATA, add(CFA_XSP16, literal(-7)))
        CFI (cfiCond92) R7 load(1, XDATA, add(CFA_XSP16, literal(-6)))
        CFI (cfiCond92) ?RET_LOW load(1, XDATA, add(CFA_XSP16, literal(-5)))
        CFI (cfiCond92) ?RET_HIGH load(1, XDATA, add(CFA_XSP16, literal(-4)))
        CFI (cfiCond92) ?BRET_EXT load(1, XDATA, add(CFA_XSP16, literal(-3)))
        CFI (cfiCond92) DPL0 load(1, XDATA, add(CFA_XSP16, literal(-2)))
        CFI (cfiCond92) DPH0 load(1, XDATA, add(CFA_XSP16, literal(-1)))
        CFI (cfiCond92) CFA_SP SP+0
        CFI (cfiCond92) CFA_XSP16 add(XSP16, 25)
        CFI Block cfiCond93 Using cfiCommon0
        CFI (cfiCond93) NoFunction
        CFI (cfiCond93) Conditional ??CrossCallReturnLabel_29
        CFI (cfiCond93) R6 load(1, XDATA, add(CFA_XSP16, literal(-24)))
        CFI (cfiCond93) VB load(1, XDATA, add(CFA_XSP16, literal(-23)))
        CFI (cfiCond93) V0 load(1, XDATA, add(CFA_XSP16, literal(-22)))
        CFI (cfiCond93) V1 load(1, XDATA, add(CFA_XSP16, literal(-21)))
        CFI (cfiCond93) V2 load(1, XDATA, add(CFA_XSP16, literal(-20)))
        CFI (cfiCond93) V3 load(1, XDATA, add(CFA_XSP16, literal(-19)))
        CFI (cfiCond93) V4 load(1, XDATA, add(CFA_XSP16, literal(-18)))
        CFI (cfiCond93) V5 load(1, XDATA, add(CFA_XSP16, literal(-17)))
        CFI (cfiCond93) V6 load(1, XDATA, add(CFA_XSP16, literal(-16)))
        CFI (cfiCond93) V7 load(1, XDATA, add(CFA_XSP16, literal(-15)))
        CFI (cfiCond93) V8 load(1, XDATA, add(CFA_XSP16, literal(-14)))
        CFI (cfiCond93) V9 load(1, XDATA, add(CFA_XSP16, literal(-13)))
        CFI (cfiCond93) V10 load(1, XDATA, add(CFA_XSP16, literal(-12)))
        CFI (cfiCond93) V11 load(1, XDATA, add(CFA_XSP16, literal(-11)))
        CFI (cfiCond93) V12 load(1, XDATA, add(CFA_XSP16, literal(-10)))
        CFI (cfiCond93) V13 load(1, XDATA, add(CFA_XSP16, literal(-9)))
        CFI (cfiCond93) V14 load(1, XDATA, add(CFA_XSP16, literal(-8)))
        CFI (cfiCond93) V15 load(1, XDATA, add(CFA_XSP16, literal(-7)))
        CFI (cfiCond93) R7 load(1, XDATA, add(CFA_XSP16, literal(-6)))
        CFI (cfiCond93) ?RET_LOW load(1, XDATA, add(CFA_XSP16, literal(-5)))
        CFI (cfiCond93) ?RET_HIGH load(1, XDATA, add(CFA_XSP16, literal(-4)))
        CFI (cfiCond93) ?BRET_EXT load(1, XDATA, add(CFA_XSP16, literal(-3)))
        CFI (cfiCond93) DPL0 load(1, XDATA, add(CFA_XSP16, literal(-2)))
        CFI (cfiCond93) DPH0 load(1, XDATA, add(CFA_XSP16, literal(-1)))
        CFI (cfiCond93) CFA_SP SP+0
        CFI (cfiCond93) CFA_XSP16 add(XSP16, 25)
        CFI Block cfiPicker94 Using cfiCommon1
        CFI (cfiPicker94) NoFunction
        CFI (cfiPicker94) Picker
        LCALL   ?Subroutine32 & 0xFFFF
??CrossCallReturnLabel_65:
        RET
        CFI EndBlock cfiCond91
        CFI EndBlock cfiCond92
        CFI EndBlock cfiCond93
        CFI EndBlock cfiPicker94

        RSEG BANKED_CODE:CODE:NOROOT(0)
?Subroutine32:
        CFI Block cfiCond95 Using cfiCommon0
        CFI NoFunction
        CFI Conditional ??CrossCallReturnLabel_65, ??CrossCallReturnLabel_27
        CFI R6 load(1, XDATA, add(CFA_XSP16, literal(-24)))
        CFI VB load(1, XDATA, add(CFA_XSP16, literal(-23)))
        CFI V0 load(1, XDATA, add(CFA_XSP16, literal(-22)))
        CFI V1 load(1, XDATA, add(CFA_XSP16, literal(-21)))
        CFI V2 load(1, XDATA, add(CFA_XSP16, literal(-20)))
        CFI V3 load(1, XDATA, add(CFA_XSP16, literal(-19)))
        CFI V4 load(1, XDATA, add(CFA_XSP16, literal(-18)))
        CFI V5 load(1, XDATA, add(CFA_XSP16, literal(-17)))
        CFI V6 load(1, XDATA, add(CFA_XSP16, literal(-16)))
        CFI V7 load(1, XDATA, add(CFA_XSP16, literal(-15)))
        CFI V8 load(1, XDATA, add(CFA_XSP16, literal(-14)))
        CFI V9 load(1, XDATA, add(CFA_XSP16, literal(-13)))
        CFI V10 load(1, XDATA, add(CFA_XSP16, literal(-12)))
        CFI V11 load(1, XDATA, add(CFA_XSP16, literal(-11)))
        CFI V12 load(1, XDATA, add(CFA_XSP16, literal(-10)))
        CFI V13 load(1, XDATA, add(CFA_XSP16, literal(-9)))
        CFI V14 load(1, XDATA, add(CFA_XSP16, literal(-8)))
        CFI V15 load(1, XDATA, add(CFA_XSP16, literal(-7)))
        CFI R7 load(1, XDATA, add(CFA_XSP16, literal(-6)))
        CFI ?RET_LOW load(1, XDATA, add(CFA_XSP16, literal(-5)))
        CFI ?RET_HIGH load(1, XDATA, add(CFA_XSP16, literal(-4)))
        CFI ?BRET_EXT load(1, XDATA, add(CFA_XSP16, literal(-3)))
        CFI DPL0 load(1, XDATA, add(CFA_XSP16, literal(-2)))
        CFI DPH0 load(1, XDATA, add(CFA_XSP16, literal(-1)))
        CFI CFA_SP SP+0
        CFI CFA_XSP16 add(XSP16, 25)
        CFI Block cfiCond96 Using cfiCommon0
        CFI (cfiCond96) NoFunction
        CFI (cfiCond96) Conditional ??CrossCallReturnLabel_65, ??CrossCallReturnLabel_28
        CFI (cfiCond96) R6 load(1, XDATA, add(CFA_XSP16, literal(-24)))
        CFI (cfiCond96) VB load(1, XDATA, add(CFA_XSP16, literal(-23)))
        CFI (cfiCond96) V0 load(1, XDATA, add(CFA_XSP16, literal(-22)))
        CFI (cfiCond96) V1 load(1, XDATA, add(CFA_XSP16, literal(-21)))
        CFI (cfiCond96) V2 load(1, XDATA, add(CFA_XSP16, literal(-20)))
        CFI (cfiCond96) V3 load(1, XDATA, add(CFA_XSP16, literal(-19)))
        CFI (cfiCond96) V4 load(1, XDATA, add(CFA_XSP16, literal(-18)))
        CFI (cfiCond96) V5 load(1, XDATA, add(CFA_XSP16, literal(-17)))
        CFI (cfiCond96) V6 load(1, XDATA, add(CFA_XSP16, literal(-16)))
        CFI (cfiCond96) V7 load(1, XDATA, add(CFA_XSP16, literal(-15)))
        CFI (cfiCond96) V8 load(1, XDATA, add(CFA_XSP16, literal(-14)))
        CFI (cfiCond96) V9 load(1, XDATA, add(CFA_XSP16, literal(-13)))
        CFI (cfiCond96) V10 load(1, XDATA, add(CFA_XSP16, literal(-12)))
        CFI (cfiCond96) V11 load(1, XDATA, add(CFA_XSP16, literal(-11)))
        CFI (cfiCond96) V12 load(1, XDATA, add(CFA_XSP16, literal(-10)))
        CFI (cfiCond96) V13 load(1, XDATA, add(CFA_XSP16, literal(-9)))
        CFI (cfiCond96) V14 load(1, XDATA, add(CFA_XSP16, literal(-8)))
        CFI (cfiCond96) V15 load(1, XDATA, add(CFA_XSP16, literal(-7)))
        CFI (cfiCond96) R7 load(1, XDATA, add(CFA_XSP16, literal(-6)))
        CFI (cfiCond96) ?RET_LOW load(1, XDATA, add(CFA_XSP16, literal(-5)))
        CFI (cfiCond96) ?RET_HIGH load(1, XDATA, add(CFA_XSP16, literal(-4)))
        CFI (cfiCond96) ?BRET_EXT load(1, XDATA, add(CFA_XSP16, literal(-3)))
        CFI (cfiCond96) DPL0 load(1, XDATA, add(CFA_XSP16, literal(-2)))
        CFI (cfiCond96) DPH0 load(1, XDATA, add(CFA_XSP16, literal(-1)))
        CFI (cfiCond96) CFA_SP SP+0
        CFI (cfiCond96) CFA_XSP16 add(XSP16, 25)
        CFI Block cfiCond97 Using cfiCommon0
        CFI (cfiCond97) NoFunction
        CFI (cfiCond97) Conditional ??CrossCallReturnLabel_65, ??CrossCallReturnLabel_29
        CFI (cfiCond97) R6 load(1, XDATA, add(CFA_XSP16, literal(-24)))
        CFI (cfiCond97) VB load(1, XDATA, add(CFA_XSP16, literal(-23)))
        CFI (cfiCond97) V0 load(1, XDATA, add(CFA_XSP16, literal(-22)))
        CFI (cfiCond97) V1 load(1, XDATA, add(CFA_XSP16, literal(-21)))
        CFI (cfiCond97) V2 load(1, XDATA, add(CFA_XSP16, literal(-20)))
        CFI (cfiCond97) V3 load(1, XDATA, add(CFA_XSP16, literal(-19)))
        CFI (cfiCond97) V4 load(1, XDATA, add(CFA_XSP16, literal(-18)))
        CFI (cfiCond97) V5 load(1, XDATA, add(CFA_XSP16, literal(-17)))
        CFI (cfiCond97) V6 load(1, XDATA, add(CFA_XSP16, literal(-16)))
        CFI (cfiCond97) V7 load(1, XDATA, add(CFA_XSP16, literal(-15)))
        CFI (cfiCond97) V8 load(1, XDATA, add(CFA_XSP16, literal(-14)))
        CFI (cfiCond97) V9 load(1, XDATA, add(CFA_XSP16, literal(-13)))
        CFI (cfiCond97) V10 load(1, XDATA, add(CFA_XSP16, literal(-12)))
        CFI (cfiCond97) V11 load(1, XDATA, add(CFA_XSP16, literal(-11)))
        CFI (cfiCond97) V12 load(1, XDATA, add(CFA_XSP16, literal(-10)))
        CFI (cfiCond97) V13 load(1, XDATA, add(CFA_XSP16, literal(-9)))
        CFI (cfiCond97) V14 load(1, XDATA, add(CFA_XSP16, literal(-8)))
        CFI (cfiCond97) V15 load(1, XDATA, add(CFA_XSP16, literal(-7)))
        CFI (cfiCond97) R7 load(1, XDATA, add(CFA_XSP16, literal(-6)))
        CFI (cfiCond97) ?RET_LOW load(1, XDATA, add(CFA_XSP16, literal(-5)))
        CFI (cfiCond97) ?RET_HIGH load(1, XDATA, add(CFA_XSP16, literal(-4)))
        CFI (cfiCond97) ?BRET_EXT load(1, XDATA, add(CFA_XSP16, literal(-3)))
        CFI (cfiCond97) DPL0 load(1, XDATA, add(CFA_XSP16, literal(-2)))
        CFI (cfiCond97) DPH0 load(1, XDATA, add(CFA_XSP16, literal(-1)))
        CFI (cfiCond97) CFA_SP SP+0
        CFI (cfiCond97) CFA_XSP16 add(XSP16, 25)
        CFI Block cfiCond98 Using cfiCommon0
        CFI (cfiCond98) NoFunction
        CFI (cfiCond98) Conditional ??CrossCallReturnLabel_64, ??CrossCallReturnLabel_25
        CFI (cfiCond98) R6 load(1, XDATA, add(CFA_XSP16, literal(-24)))
        CFI (cfiCond98) VB load(1, XDATA, add(CFA_XSP16, literal(-23)))
        CFI (cfiCond98) V0 load(1, XDATA, add(CFA_XSP16, literal(-22)))
        CFI (cfiCond98) V1 load(1, XDATA, add(CFA_XSP16, literal(-21)))
        CFI (cfiCond98) V2 load(1, XDATA, add(CFA_XSP16, literal(-20)))
        CFI (cfiCond98) V3 load(1, XDATA, add(CFA_XSP16, literal(-19)))
        CFI (cfiCond98) V4 load(1, XDATA, add(CFA_XSP16, literal(-18)))
        CFI (cfiCond98) V5 load(1, XDATA, add(CFA_XSP16, literal(-17)))
        CFI (cfiCond98) V6 load(1, XDATA, add(CFA_XSP16, literal(-16)))
        CFI (cfiCond98) V7 load(1, XDATA, add(CFA_XSP16, literal(-15)))
        CFI (cfiCond98) V8 load(1, XDATA, add(CFA_XSP16, literal(-14)))
        CFI (cfiCond98) V9 load(1, XDATA, add(CFA_XSP16, literal(-13)))
        CFI (cfiCond98) V10 load(1, XDATA, add(CFA_XSP16, literal(-12)))
        CFI (cfiCond98) V11 load(1, XDATA, add(CFA_XSP16, literal(-11)))
        CFI (cfiCond98) V12 load(1, XDATA, add(CFA_XSP16, literal(-10)))
        CFI (cfiCond98) V13 load(1, XDATA, add(CFA_XSP16, literal(-9)))
        CFI (cfiCond98) V14 load(1, XDATA, add(CFA_XSP16, literal(-8)))
        CFI (cfiCond98) V15 load(1, XDATA, add(CFA_XSP16, literal(-7)))
        CFI (cfiCond98) R7 load(1, XDATA, add(CFA_XSP16, literal(-6)))
        CFI (cfiCond98) ?RET_LOW load(1, XDATA, add(CFA_XSP16, literal(-5)))
        CFI (cfiCond98) ?RET_HIGH load(1, XDATA, add(CFA_XSP16, literal(-4)))
        CFI (cfiCond98) ?BRET_EXT load(1, XDATA, add(CFA_XSP16, literal(-3)))
        CFI (cfiCond98) DPL0 load(1, XDATA, add(CFA_XSP16, literal(-2)))
        CFI (cfiCond98) DPH0 load(1, XDATA, add(CFA_XSP16, literal(-1)))
        CFI (cfiCond98) CFA_SP SP+0
        CFI (cfiCond98) CFA_XSP16 add(XSP16, 25)
        CFI Block cfiCond99 Using cfiCommon0
        CFI (cfiCond99) NoFunction
        CFI (cfiCond99) Conditional ??CrossCallReturnLabel_64, ??CrossCallReturnLabel_26
        CFI (cfiCond99) R6 load(1, XDATA, add(CFA_XSP16, literal(-24)))
        CFI (cfiCond99) VB load(1, XDATA, add(CFA_XSP16, literal(-23)))
        CFI (cfiCond99) V0 load(1, XDATA, add(CFA_XSP16, literal(-22)))
        CFI (cfiCond99) V1 load(1, XDATA, add(CFA_XSP16, literal(-21)))
        CFI (cfiCond99) V2 load(1, XDATA, add(CFA_XSP16, literal(-20)))
        CFI (cfiCond99) V3 load(1, XDATA, add(CFA_XSP16, literal(-19)))
        CFI (cfiCond99) V4 load(1, XDATA, add(CFA_XSP16, literal(-18)))
        CFI (cfiCond99) V5 load(1, XDATA, add(CFA_XSP16, literal(-17)))
        CFI (cfiCond99) V6 load(1, XDATA, add(CFA_XSP16, literal(-16)))
        CFI (cfiCond99) V7 load(1, XDATA, add(CFA_XSP16, literal(-15)))
        CFI (cfiCond99) V8 load(1, XDATA, add(CFA_XSP16, literal(-14)))
        CFI (cfiCond99) V9 load(1, XDATA, add(CFA_XSP16, literal(-13)))
        CFI (cfiCond99) V10 load(1, XDATA, add(CFA_XSP16, literal(-12)))
        CFI (cfiCond99) V11 load(1, XDATA, add(CFA_XSP16, literal(-11)))
        CFI (cfiCond99) V12 load(1, XDATA, add(CFA_XSP16, literal(-10)))
        CFI (cfiCond99) V13 load(1, XDATA, add(CFA_XSP16, literal(-9)))
        CFI (cfiCond99) V14 load(1, XDATA, add(CFA_XSP16, literal(-8)))
        CFI (cfiCond99) V15 load(1, XDATA, add(CFA_XSP16, literal(-7)))
        CFI (cfiCond99) R7 load(1, XDATA, add(CFA_XSP16, literal(-6)))
        CFI (cfiCond99) ?RET_LOW load(1, XDATA, add(CFA_XSP16, literal(-5)))
        CFI (cfiCond99) ?RET_HIGH load(1, XDATA, add(CFA_XSP16, literal(-4)))
        CFI (cfiCond99) ?BRET_EXT load(1, XDATA, add(CFA_XSP16, literal(-3)))
        CFI (cfiCond99) DPL0 load(1, XDATA, add(CFA_XSP16, literal(-2)))
        CFI (cfiCond99) DPH0 load(1, XDATA, add(CFA_XSP16, literal(-1)))
        CFI (cfiCond99) CFA_SP SP+0
        CFI (cfiCond99) CFA_XSP16 add(XSP16, 25)
        CFI Block cfiCond100 Using cfiCommon0
        CFI (cfiCond100) NoFunction
        CFI (cfiCond100) Conditional ??CrossCallReturnLabel_66, ??CrossCallReturnLabel_61
        CFI (cfiCond100) R6 load(1, XDATA, add(CFA_XSP16, literal(-24)))
        CFI (cfiCond100) VB load(1, XDATA, add(CFA_XSP16, literal(-23)))
        CFI (cfiCond100) V0 load(1, XDATA, add(CFA_XSP16, literal(-22)))
        CFI (cfiCond100) V1 load(1, XDATA, add(CFA_XSP16, literal(-21)))
        CFI (cfiCond100) V2 load(1, XDATA, add(CFA_XSP16, literal(-20)))
        CFI (cfiCond100) V3 load(1, XDATA, add(CFA_XSP16, literal(-19)))
        CFI (cfiCond100) V4 load(1, XDATA, add(CFA_XSP16, literal(-18)))
        CFI (cfiCond100) V5 load(1, XDATA, add(CFA_XSP16, literal(-17)))
        CFI (cfiCond100) V6 load(1, XDATA, add(CFA_XSP16, literal(-16)))
        CFI (cfiCond100) V7 load(1, XDATA, add(CFA_XSP16, literal(-15)))
        CFI (cfiCond100) V8 load(1, XDATA, add(CFA_XSP16, literal(-14)))
        CFI (cfiCond100) V9 load(1, XDATA, add(CFA_XSP16, literal(-13)))
        CFI (cfiCond100) V10 load(1, XDATA, add(CFA_XSP16, literal(-12)))
        CFI (cfiCond100) V11 load(1, XDATA, add(CFA_XSP16, literal(-11)))
        CFI (cfiCond100) V12 load(1, XDATA, add(CFA_XSP16, literal(-10)))
        CFI (cfiCond100) V13 load(1, XDATA, add(CFA_XSP16, literal(-9)))
        CFI (cfiCond100) V14 load(1, XDATA, add(CFA_XSP16, literal(-8)))
        CFI (cfiCond100) V15 load(1, XDATA, add(CFA_XSP16, literal(-7)))
        CFI (cfiCond100) R7 load(1, XDATA, add(CFA_XSP16, literal(-6)))
        CFI (cfiCond100) ?RET_LOW load(1, XDATA, add(CFA_XSP16, literal(-5)))
        CFI (cfiCond100) ?RET_HIGH load(1, XDATA, add(CFA_XSP16, literal(-4)))
        CFI (cfiCond100) ?BRET_EXT load(1, XDATA, add(CFA_XSP16, literal(-3)))
        CFI (cfiCond100) DPL0 load(1, XDATA, add(CFA_XSP16, literal(-2)))
        CFI (cfiCond100) DPH0 load(1, XDATA, add(CFA_XSP16, literal(-1)))
        CFI (cfiCond100) CFA_SP SP+0
        CFI (cfiCond100) CFA_XSP16 add(XSP16, 25)
        CFI Block cfiCond101 Using cfiCommon0
        CFI (cfiCond101) NoFunction
        CFI (cfiCond101) Conditional ??CrossCallReturnLabel_66, ??CrossCallReturnLabel_62
        CFI (cfiCond101) R6 load(1, XDATA, add(CFA_XSP16, literal(-24)))
        CFI (cfiCond101) VB load(1, XDATA, add(CFA_XSP16, literal(-23)))
        CFI (cfiCond101) V0 load(1, XDATA, add(CFA_XSP16, literal(-22)))
        CFI (cfiCond101) V1 load(1, XDATA, add(CFA_XSP16, literal(-21)))
        CFI (cfiCond101) V2 load(1, XDATA, add(CFA_XSP16, literal(-20)))
        CFI (cfiCond101) V3 load(1, XDATA, add(CFA_XSP16, literal(-19)))
        CFI (cfiCond101) V4 load(1, XDATA, add(CFA_XSP16, literal(-18)))
        CFI (cfiCond101) V5 load(1, XDATA, add(CFA_XSP16, literal(-17)))
        CFI (cfiCond101) V6 load(1, XDATA, add(CFA_XSP16, literal(-16)))
        CFI (cfiCond101) V7 load(1, XDATA, add(CFA_XSP16, literal(-15)))
        CFI (cfiCond101) V8 load(1, XDATA, add(CFA_XSP16, literal(-14)))
        CFI (cfiCond101) V9 load(1, XDATA, add(CFA_XSP16, literal(-13)))
        CFI (cfiCond101) V10 load(1, XDATA, add(CFA_XSP16, literal(-12)))
        CFI (cfiCond101) V11 load(1, XDATA, add(CFA_XSP16, literal(-11)))
        CFI (cfiCond101) V12 load(1, XDATA, add(CFA_XSP16, literal(-10)))
        CFI (cfiCond101) V13 load(1, XDATA, add(CFA_XSP16, literal(-9)))
        CFI (cfiCond101) V14 load(1, XDATA, add(CFA_XSP16, literal(-8)))
        CFI (cfiCond101) V15 load(1, XDATA, add(CFA_XSP16, literal(-7)))
        CFI (cfiCond101) R7 load(1, XDATA, add(CFA_XSP16, literal(-6)))
        CFI (cfiCond101) ?RET_LOW load(1, XDATA, add(CFA_XSP16, literal(-5)))
        CFI (cfiCond101) ?RET_HIGH load(1, XDATA, add(CFA_XSP16, literal(-4)))
        CFI (cfiCond101) ?BRET_EXT load(1, XDATA, add(CFA_XSP16, literal(-3)))
        CFI (cfiCond101) DPL0 load(1, XDATA, add(CFA_XSP16, literal(-2)))
        CFI (cfiCond101) DPH0 load(1, XDATA, add(CFA_XSP16, literal(-1)))
        CFI (cfiCond101) CFA_SP SP+0
        CFI (cfiCond101) CFA_XSP16 add(XSP16, 25)
        CFI Block cfiCond102 Using cfiCommon0
        CFI (cfiCond102) NoFunction
        CFI (cfiCond102) Conditional ??CrossCallReturnLabel_66, ??CrossCallReturnLabel_63
        CFI (cfiCond102) R6 load(1, XDATA, add(CFA_XSP16, literal(-24)))
        CFI (cfiCond102) VB load(1, XDATA, add(CFA_XSP16, literal(-23)))
        CFI (cfiCond102) V0 load(1, XDATA, add(CFA_XSP16, literal(-22)))
        CFI (cfiCond102) V1 load(1, XDATA, add(CFA_XSP16, literal(-21)))
        CFI (cfiCond102) V2 load(1, XDATA, add(CFA_XSP16, literal(-20)))
        CFI (cfiCond102) V3 load(1, XDATA, add(CFA_XSP16, literal(-19)))
        CFI (cfiCond102) V4 load(1, XDATA, add(CFA_XSP16, literal(-18)))
        CFI (cfiCond102) V5 load(1, XDATA, add(CFA_XSP16, literal(-17)))
        CFI (cfiCond102) V6 load(1, XDATA, add(CFA_XSP16, literal(-16)))
        CFI (cfiCond102) V7 load(1, XDATA, add(CFA_XSP16, literal(-15)))
        CFI (cfiCond102) V8 load(1, XDATA, add(CFA_XSP16, literal(-14)))
        CFI (cfiCond102) V9 load(1, XDATA, add(CFA_XSP16, literal(-13)))
        CFI (cfiCond102) V10 load(1, XDATA, add(CFA_XSP16, literal(-12)))
        CFI (cfiCond102) V11 load(1, XDATA, add(CFA_XSP16, literal(-11)))
        CFI (cfiCond102) V12 load(1, XDATA, add(CFA_XSP16, literal(-10)))
        CFI (cfiCond102) V13 load(1, XDATA, add(CFA_XSP16, literal(-9)))
        CFI (cfiCond102) V14 load(1, XDATA, add(CFA_XSP16, literal(-8)))
        CFI (cfiCond102) V15 load(1, XDATA, add(CFA_XSP16, literal(-7)))
        CFI (cfiCond102) R7 load(1, XDATA, add(CFA_XSP16, literal(-6)))
        CFI (cfiCond102) ?RET_LOW load(1, XDATA, add(CFA_XSP16, literal(-5)))
        CFI (cfiCond102) ?RET_HIGH load(1, XDATA, add(CFA_XSP16, literal(-4)))
        CFI (cfiCond102) ?BRET_EXT load(1, XDATA, add(CFA_XSP16, literal(-3)))
        CFI (cfiCond102) DPL0 load(1, XDATA, add(CFA_XSP16, literal(-2)))
        CFI (cfiCond102) DPH0 load(1, XDATA, add(CFA_XSP16, literal(-1)))
        CFI (cfiCond102) CFA_SP SP+0
        CFI (cfiCond102) CFA_XSP16 add(XSP16, 25)
        CFI Block cfiPicker103 Using cfiCommon1
        CFI (cfiPicker103) NoFunction
        CFI (cfiPicker103) Picker
        MOVX    @DPTR,A
        INC     DPTR
        MOV     ?V0 + 2,DPL
        MOV     ?V0 + 3,DPH
        RET
        CFI EndBlock cfiCond95
        CFI EndBlock cfiCond96
        CFI EndBlock cfiCond97
        CFI EndBlock cfiCond98
        CFI EndBlock cfiCond99
        CFI EndBlock cfiCond100
        CFI EndBlock cfiCond101
        CFI EndBlock cfiCond102
        CFI EndBlock cfiPicker103

        RSEG BANKED_CODE:CODE:NOROOT(0)
?Subroutine19:
        CFI Block cfiCond104 Using cfiCommon0
        CFI NoFunction
        CFI Conditional ??CrossCallReturnLabel_25
        CFI R6 load(1, XDATA, add(CFA_XSP16, literal(-24)))
        CFI VB load(1, XDATA, add(CFA_XSP16, literal(-23)))
        CFI V0 load(1, XDATA, add(CFA_XSP16, literal(-22)))
        CFI V1 load(1, XDATA, add(CFA_XSP16, literal(-21)))
        CFI V2 load(1, XDATA, add(CFA_XSP16, literal(-20)))
        CFI V3 load(1, XDATA, add(CFA_XSP16, literal(-19)))
        CFI V4 load(1, XDATA, add(CFA_XSP16, literal(-18)))
        CFI V5 load(1, XDATA, add(CFA_XSP16, literal(-17)))
        CFI V6 load(1, XDATA, add(CFA_XSP16, literal(-16)))
        CFI V7 load(1, XDATA, add(CFA_XSP16, literal(-15)))
        CFI V8 load(1, XDATA, add(CFA_XSP16, literal(-14)))
        CFI V9 load(1, XDATA, add(CFA_XSP16, literal(-13)))
        CFI V10 load(1, XDATA, add(CFA_XSP16, literal(-12)))
        CFI V11 load(1, XDATA, add(CFA_XSP16, literal(-11)))
        CFI V12 load(1, XDATA, add(CFA_XSP16, literal(-10)))
        CFI V13 load(1, XDATA, add(CFA_XSP16, literal(-9)))
        CFI V14 load(1, XDATA, add(CFA_XSP16, literal(-8)))
        CFI V15 load(1, XDATA, add(CFA_XSP16, literal(-7)))
        CFI R7 load(1, XDATA, add(CFA_XSP16, literal(-6)))
        CFI ?RET_LOW load(1, XDATA, add(CFA_XSP16, literal(-5)))
        CFI ?RET_HIGH load(1, XDATA, add(CFA_XSP16, literal(-4)))
        CFI ?BRET_EXT load(1, XDATA, add(CFA_XSP16, literal(-3)))
        CFI DPL0 load(1, XDATA, add(CFA_XSP16, literal(-2)))
        CFI DPH0 load(1, XDATA, add(CFA_XSP16, literal(-1)))
        CFI CFA_SP SP+0
        CFI CFA_XSP16 add(XSP16, 25)
        CFI Block cfiCond105 Using cfiCommon0
        CFI (cfiCond105) NoFunction
        CFI (cfiCond105) Conditional ??CrossCallReturnLabel_26
        CFI (cfiCond105) R6 load(1, XDATA, add(CFA_XSP16, literal(-24)))
        CFI (cfiCond105) VB load(1, XDATA, add(CFA_XSP16, literal(-23)))
        CFI (cfiCond105) V0 load(1, XDATA, add(CFA_XSP16, literal(-22)))
        CFI (cfiCond105) V1 load(1, XDATA, add(CFA_XSP16, literal(-21)))
        CFI (cfiCond105) V2 load(1, XDATA, add(CFA_XSP16, literal(-20)))
        CFI (cfiCond105) V3 load(1, XDATA, add(CFA_XSP16, literal(-19)))
        CFI (cfiCond105) V4 load(1, XDATA, add(CFA_XSP16, literal(-18)))
        CFI (cfiCond105) V5 load(1, XDATA, add(CFA_XSP16, literal(-17)))
        CFI (cfiCond105) V6 load(1, XDATA, add(CFA_XSP16, literal(-16)))
        CFI (cfiCond105) V7 load(1, XDATA, add(CFA_XSP16, literal(-15)))
        CFI (cfiCond105) V8 load(1, XDATA, add(CFA_XSP16, literal(-14)))
        CFI (cfiCond105) V9 load(1, XDATA, add(CFA_XSP16, literal(-13)))
        CFI (cfiCond105) V10 load(1, XDATA, add(CFA_XSP16, literal(-12)))
        CFI (cfiCond105) V11 load(1, XDATA, add(CFA_XSP16, literal(-11)))
        CFI (cfiCond105) V12 load(1, XDATA, add(CFA_XSP16, literal(-10)))
        CFI (cfiCond105) V13 load(1, XDATA, add(CFA_XSP16, literal(-9)))
        CFI (cfiCond105) V14 load(1, XDATA, add(CFA_XSP16, literal(-8)))
        CFI (cfiCond105) V15 load(1, XDATA, add(CFA_XSP16, literal(-7)))
        CFI (cfiCond105) R7 load(1, XDATA, add(CFA_XSP16, literal(-6)))
        CFI (cfiCond105) ?RET_LOW load(1, XDATA, add(CFA_XSP16, literal(-5)))
        CFI (cfiCond105) ?RET_HIGH load(1, XDATA, add(CFA_XSP16, literal(-4)))
        CFI (cfiCond105) ?BRET_EXT load(1, XDATA, add(CFA_XSP16, literal(-3)))
        CFI (cfiCond105) DPL0 load(1, XDATA, add(CFA_XSP16, literal(-2)))
        CFI (cfiCond105) DPH0 load(1, XDATA, add(CFA_XSP16, literal(-1)))
        CFI (cfiCond105) CFA_SP SP+0
        CFI (cfiCond105) CFA_XSP16 add(XSP16, 25)
        CFI Block cfiPicker106 Using cfiCommon1
        CFI (cfiPicker106) NoFunction
        CFI (cfiPicker106) Picker
        LCALL   ?Subroutine32 & 0xFFFF
??CrossCallReturnLabel_64:
        MOV     A,?V0 + 8
        RET
        CFI EndBlock cfiCond104
        CFI EndBlock cfiCond105
        CFI EndBlock cfiPicker106

        RSEG BANKED_CODE:CODE:NOROOT(0)
?Subroutine16:
        CFI Block cfiCond107 Using cfiCommon0
        CFI NoFunction
        CFI Conditional ??CrossCallReturnLabel_61
        CFI R6 load(1, XDATA, add(CFA_XSP16, literal(-24)))
        CFI VB load(1, XDATA, add(CFA_XSP16, literal(-23)))
        CFI V0 load(1, XDATA, add(CFA_XSP16, literal(-22)))
        CFI V1 load(1, XDATA, add(CFA_XSP16, literal(-21)))
        CFI V2 load(1, XDATA, add(CFA_XSP16, literal(-20)))
        CFI V3 load(1, XDATA, add(CFA_XSP16, literal(-19)))
        CFI V4 load(1, XDATA, add(CFA_XSP16, literal(-18)))
        CFI V5 load(1, XDATA, add(CFA_XSP16, literal(-17)))
        CFI V6 load(1, XDATA, add(CFA_XSP16, literal(-16)))
        CFI V7 load(1, XDATA, add(CFA_XSP16, literal(-15)))
        CFI V8 load(1, XDATA, add(CFA_XSP16, literal(-14)))
        CFI V9 load(1, XDATA, add(CFA_XSP16, literal(-13)))
        CFI V10 load(1, XDATA, add(CFA_XSP16, literal(-12)))
        CFI V11 load(1, XDATA, add(CFA_XSP16, literal(-11)))
        CFI V12 load(1, XDATA, add(CFA_XSP16, literal(-10)))
        CFI V13 load(1, XDATA, add(CFA_XSP16, literal(-9)))
        CFI V14 load(1, XDATA, add(CFA_XSP16, literal(-8)))
        CFI V15 load(1, XDATA, add(CFA_XSP16, literal(-7)))
        CFI R7 load(1, XDATA, add(CFA_XSP16, literal(-6)))
        CFI ?RET_LOW load(1, XDATA, add(CFA_XSP16, literal(-5)))
        CFI ?RET_HIGH load(1, XDATA, add(CFA_XSP16, literal(-4)))
        CFI ?BRET_EXT load(1, XDATA, add(CFA_XSP16, literal(-3)))
        CFI DPL0 load(1, XDATA, add(CFA_XSP16, literal(-2)))
        CFI DPH0 load(1, XDATA, add(CFA_XSP16, literal(-1)))
        CFI CFA_SP SP+0
        CFI CFA_XSP16 add(XSP16, 25)
        CFI Block cfiCond108 Using cfiCommon0
        CFI (cfiCond108) NoFunction
        CFI (cfiCond108) Conditional ??CrossCallReturnLabel_62
        CFI (cfiCond108) R6 load(1, XDATA, add(CFA_XSP16, literal(-24)))
        CFI (cfiCond108) VB load(1, XDATA, add(CFA_XSP16, literal(-23)))
        CFI (cfiCond108) V0 load(1, XDATA, add(CFA_XSP16, literal(-22)))
        CFI (cfiCond108) V1 load(1, XDATA, add(CFA_XSP16, literal(-21)))
        CFI (cfiCond108) V2 load(1, XDATA, add(CFA_XSP16, literal(-20)))
        CFI (cfiCond108) V3 load(1, XDATA, add(CFA_XSP16, literal(-19)))
        CFI (cfiCond108) V4 load(1, XDATA, add(CFA_XSP16, literal(-18)))
        CFI (cfiCond108) V5 load(1, XDATA, add(CFA_XSP16, literal(-17)))
        CFI (cfiCond108) V6 load(1, XDATA, add(CFA_XSP16, literal(-16)))
        CFI (cfiCond108) V7 load(1, XDATA, add(CFA_XSP16, literal(-15)))
        CFI (cfiCond108) V8 load(1, XDATA, add(CFA_XSP16, literal(-14)))
        CFI (cfiCond108) V9 load(1, XDATA, add(CFA_XSP16, literal(-13)))
        CFI (cfiCond108) V10 load(1, XDATA, add(CFA_XSP16, literal(-12)))
        CFI (cfiCond108) V11 load(1, XDATA, add(CFA_XSP16, literal(-11)))
        CFI (cfiCond108) V12 load(1, XDATA, add(CFA_XSP16, literal(-10)))
        CFI (cfiCond108) V13 load(1, XDATA, add(CFA_XSP16, literal(-9)))
        CFI (cfiCond108) V14 load(1, XDATA, add(CFA_XSP16, literal(-8)))
        CFI (cfiCond108) V15 load(1, XDATA, add(CFA_XSP16, literal(-7)))
        CFI (cfiCond108) R7 load(1, XDATA, add(CFA_XSP16, literal(-6)))
        CFI (cfiCond108) ?RET_LOW load(1, XDATA, add(CFA_XSP16, literal(-5)))
        CFI (cfiCond108) ?RET_HIGH load(1, XDATA, add(CFA_XSP16, literal(-4)))
        CFI (cfiCond108) ?BRET_EXT load(1, XDATA, add(CFA_XSP16, literal(-3)))
        CFI (cfiCond108) DPL0 load(1, XDATA, add(CFA_XSP16, literal(-2)))
        CFI (cfiCond108) DPH0 load(1, XDATA, add(CFA_XSP16, literal(-1)))
        CFI (cfiCond108) CFA_SP SP+0
        CFI (cfiCond108) CFA_XSP16 add(XSP16, 25)
        CFI Block cfiPicker109 Using cfiCommon1
        CFI (cfiPicker109) NoFunction
        CFI (cfiPicker109) Picker
        MOV     DPL,?V0 + 2
        MOV     DPH,?V0 + 3
        MOV     A,?V0 + 4
        CFI EndBlock cfiCond107
        CFI EndBlock cfiCond108
        CFI EndBlock cfiPicker109
        REQUIRE ??Subroutine40_0
        ; // Fall through to label ??Subroutine40_0

        RSEG BANKED_CODE:CODE:NOROOT(0)
??Subroutine40_0:
        CFI Block cfiCond110 Using cfiCommon0
        CFI NoFunction
        CFI Conditional ??CrossCallReturnLabel_63
        CFI R6 load(1, XDATA, add(CFA_XSP16, literal(-24)))
        CFI VB load(1, XDATA, add(CFA_XSP16, literal(-23)))
        CFI V0 load(1, XDATA, add(CFA_XSP16, literal(-22)))
        CFI V1 load(1, XDATA, add(CFA_XSP16, literal(-21)))
        CFI V2 load(1, XDATA, add(CFA_XSP16, literal(-20)))
        CFI V3 load(1, XDATA, add(CFA_XSP16, literal(-19)))
        CFI V4 load(1, XDATA, add(CFA_XSP16, literal(-18)))
        CFI V5 load(1, XDATA, add(CFA_XSP16, literal(-17)))
        CFI V6 load(1, XDATA, add(CFA_XSP16, literal(-16)))
        CFI V7 load(1, XDATA, add(CFA_XSP16, literal(-15)))
        CFI V8 load(1, XDATA, add(CFA_XSP16, literal(-14)))
        CFI V9 load(1, XDATA, add(CFA_XSP16, literal(-13)))
        CFI V10 load(1, XDATA, add(CFA_XSP16, literal(-12)))
        CFI V11 load(1, XDATA, add(CFA_XSP16, literal(-11)))
        CFI V12 load(1, XDATA, add(CFA_XSP16, literal(-10)))
        CFI V13 load(1, XDATA, add(CFA_XSP16, literal(-9)))
        CFI V14 load(1, XDATA, add(CFA_XSP16, literal(-8)))
        CFI V15 load(1, XDATA, add(CFA_XSP16, literal(-7)))
        CFI R7 load(1, XDATA, add(CFA_XSP16, literal(-6)))
        CFI ?RET_LOW load(1, XDATA, add(CFA_XSP16, literal(-5)))
        CFI ?RET_HIGH load(1, XDATA, add(CFA_XSP16, literal(-4)))
        CFI ?BRET_EXT load(1, XDATA, add(CFA_XSP16, literal(-3)))
        CFI DPL0 load(1, XDATA, add(CFA_XSP16, literal(-2)))
        CFI DPH0 load(1, XDATA, add(CFA_XSP16, literal(-1)))
        CFI CFA_SP SP+0
        CFI CFA_XSP16 add(XSP16, 25)
        CFI Block cfiCond111 Using cfiCommon0
        CFI (cfiCond111) NoFunction
        CFI (cfiCond111) Conditional ??CrossCallReturnLabel_61
        CFI (cfiCond111) R6 load(1, XDATA, add(CFA_XSP16, literal(-24)))
        CFI (cfiCond111) VB load(1, XDATA, add(CFA_XSP16, literal(-23)))
        CFI (cfiCond111) V0 load(1, XDATA, add(CFA_XSP16, literal(-22)))
        CFI (cfiCond111) V1 load(1, XDATA, add(CFA_XSP16, literal(-21)))
        CFI (cfiCond111) V2 load(1, XDATA, add(CFA_XSP16, literal(-20)))
        CFI (cfiCond111) V3 load(1, XDATA, add(CFA_XSP16, literal(-19)))
        CFI (cfiCond111) V4 load(1, XDATA, add(CFA_XSP16, literal(-18)))
        CFI (cfiCond111) V5 load(1, XDATA, add(CFA_XSP16, literal(-17)))
        CFI (cfiCond111) V6 load(1, XDATA, add(CFA_XSP16, literal(-16)))
        CFI (cfiCond111) V7 load(1, XDATA, add(CFA_XSP16, literal(-15)))
        CFI (cfiCond111) V8 load(1, XDATA, add(CFA_XSP16, literal(-14)))
        CFI (cfiCond111) V9 load(1, XDATA, add(CFA_XSP16, literal(-13)))
        CFI (cfiCond111) V10 load(1, XDATA, add(CFA_XSP16, literal(-12)))
        CFI (cfiCond111) V11 load(1, XDATA, add(CFA_XSP16, literal(-11)))
        CFI (cfiCond111) V12 load(1, XDATA, add(CFA_XSP16, literal(-10)))
        CFI (cfiCond111) V13 load(1, XDATA, add(CFA_XSP16, literal(-9)))
        CFI (cfiCond111) V14 load(1, XDATA, add(CFA_XSP16, literal(-8)))
        CFI (cfiCond111) V15 load(1, XDATA, add(CFA_XSP16, literal(-7)))
        CFI (cfiCond111) R7 load(1, XDATA, add(CFA_XSP16, literal(-6)))
        CFI (cfiCond111) ?RET_LOW load(1, XDATA, add(CFA_XSP16, literal(-5)))
        CFI (cfiCond111) ?RET_HIGH load(1, XDATA, add(CFA_XSP16, literal(-4)))
        CFI (cfiCond111) ?BRET_EXT load(1, XDATA, add(CFA_XSP16, literal(-3)))
        CFI (cfiCond111) DPL0 load(1, XDATA, add(CFA_XSP16, literal(-2)))
        CFI (cfiCond111) DPH0 load(1, XDATA, add(CFA_XSP16, literal(-1)))
        CFI (cfiCond111) CFA_SP SP+0
        CFI (cfiCond111) CFA_XSP16 add(XSP16, 25)
        CFI Block cfiCond112 Using cfiCommon0
        CFI (cfiCond112) NoFunction
        CFI (cfiCond112) Conditional ??CrossCallReturnLabel_62
        CFI (cfiCond112) R6 load(1, XDATA, add(CFA_XSP16, literal(-24)))
        CFI (cfiCond112) VB load(1, XDATA, add(CFA_XSP16, literal(-23)))
        CFI (cfiCond112) V0 load(1, XDATA, add(CFA_XSP16, literal(-22)))
        CFI (cfiCond112) V1 load(1, XDATA, add(CFA_XSP16, literal(-21)))
        CFI (cfiCond112) V2 load(1, XDATA, add(CFA_XSP16, literal(-20)))
        CFI (cfiCond112) V3 load(1, XDATA, add(CFA_XSP16, literal(-19)))
        CFI (cfiCond112) V4 load(1, XDATA, add(CFA_XSP16, literal(-18)))
        CFI (cfiCond112) V5 load(1, XDATA, add(CFA_XSP16, literal(-17)))
        CFI (cfiCond112) V6 load(1, XDATA, add(CFA_XSP16, literal(-16)))
        CFI (cfiCond112) V7 load(1, XDATA, add(CFA_XSP16, literal(-15)))
        CFI (cfiCond112) V8 load(1, XDATA, add(CFA_XSP16, literal(-14)))
        CFI (cfiCond112) V9 load(1, XDATA, add(CFA_XSP16, literal(-13)))
        CFI (cfiCond112) V10 load(1, XDATA, add(CFA_XSP16, literal(-12)))
        CFI (cfiCond112) V11 load(1, XDATA, add(CFA_XSP16, literal(-11)))
        CFI (cfiCond112) V12 load(1, XDATA, add(CFA_XSP16, literal(-10)))
        CFI (cfiCond112) V13 load(1, XDATA, add(CFA_XSP16, literal(-9)))
        CFI (cfiCond112) V14 load(1, XDATA, add(CFA_XSP16, literal(-8)))
        CFI (cfiCond112) V15 load(1, XDATA, add(CFA_XSP16, literal(-7)))
        CFI (cfiCond112) R7 load(1, XDATA, add(CFA_XSP16, literal(-6)))
        CFI (cfiCond112) ?RET_LOW load(1, XDATA, add(CFA_XSP16, literal(-5)))
        CFI (cfiCond112) ?RET_HIGH load(1, XDATA, add(CFA_XSP16, literal(-4)))
        CFI (cfiCond112) ?BRET_EXT load(1, XDATA, add(CFA_XSP16, literal(-3)))
        CFI (cfiCond112) DPL0 load(1, XDATA, add(CFA_XSP16, literal(-2)))
        CFI (cfiCond112) DPH0 load(1, XDATA, add(CFA_XSP16, literal(-1)))
        CFI (cfiCond112) CFA_SP SP+0
        CFI (cfiCond112) CFA_XSP16 add(XSP16, 25)
        CFI Block cfiPicker113 Using cfiCommon1
        CFI (cfiPicker113) NoFunction
        CFI (cfiPicker113) Picker
        LCALL   ?Subroutine32 & 0xFFFF
??CrossCallReturnLabel_66:
        MOV     DPL,?V0 + 12
        MOV     DPH,?V0 + 13
        MOV     R0,#?V0 + 4
        RET
        CFI EndBlock cfiCond110
        CFI EndBlock cfiCond111
        CFI EndBlock cfiCond112
        CFI EndBlock cfiPicker113

        RSEG BANKED_CODE:CODE:NOROOT(0)
?Subroutine7:
        CFI Block cfiCond114 Using cfiCommon0
        CFI NoFunction
        CFI Conditional ??CrossCallReturnLabel_2
        CFI R6 load(1, XDATA, add(CFA_XSP16, literal(-24)))
        CFI VB load(1, XDATA, add(CFA_XSP16, literal(-23)))
        CFI V0 load(1, XDATA, add(CFA_XSP16, literal(-22)))
        CFI V1 load(1, XDATA, add(CFA_XSP16, literal(-21)))
        CFI V2 load(1, XDATA, add(CFA_XSP16, literal(-20)))
        CFI V3 load(1, XDATA, add(CFA_XSP16, literal(-19)))
        CFI V4 load(1, XDATA, add(CFA_XSP16, literal(-18)))
        CFI V5 load(1, XDATA, add(CFA_XSP16, literal(-17)))
        CFI V6 load(1, XDATA, add(CFA_XSP16, literal(-16)))
        CFI V7 load(1, XDATA, add(CFA_XSP16, literal(-15)))
        CFI V8 load(1, XDATA, add(CFA_XSP16, literal(-14)))
        CFI V9 load(1, XDATA, add(CFA_XSP16, literal(-13)))
        CFI V10 load(1, XDATA, add(CFA_XSP16, literal(-12)))
        CFI V11 load(1, XDATA, add(CFA_XSP16, literal(-11)))
        CFI V12 load(1, XDATA, add(CFA_XSP16, literal(-10)))
        CFI V13 load(1, XDATA, add(CFA_XSP16, literal(-9)))
        CFI V14 load(1, XDATA, add(CFA_XSP16, literal(-8)))
        CFI V15 load(1, XDATA, add(CFA_XSP16, literal(-7)))
        CFI R7 load(1, XDATA, add(CFA_XSP16, literal(-6)))
        CFI ?RET_LOW load(1, XDATA, add(CFA_XSP16, literal(-5)))
        CFI ?RET_HIGH load(1, XDATA, add(CFA_XSP16, literal(-4)))
        CFI ?BRET_EXT load(1, XDATA, add(CFA_XSP16, literal(-3)))
        CFI DPL0 load(1, XDATA, add(CFA_XSP16, literal(-2)))
        CFI DPH0 load(1, XDATA, add(CFA_XSP16, literal(-1)))
        CFI CFA_SP SP+0
        CFI CFA_XSP16 add(XSP16, 25)
        CFI Block cfiCond115 Using cfiCommon0
        CFI (cfiCond115) NoFunction
        CFI (cfiCond115) Conditional ??CrossCallReturnLabel_3
        CFI (cfiCond115) R6 load(1, XDATA, add(CFA_XSP16, literal(-24)))
        CFI (cfiCond115) VB load(1, XDATA, add(CFA_XSP16, literal(-23)))
        CFI (cfiCond115) V0 load(1, XDATA, add(CFA_XSP16, literal(-22)))
        CFI (cfiCond115) V1 load(1, XDATA, add(CFA_XSP16, literal(-21)))
        CFI (cfiCond115) V2 load(1, XDATA, add(CFA_XSP16, literal(-20)))
        CFI (cfiCond115) V3 load(1, XDATA, add(CFA_XSP16, literal(-19)))
        CFI (cfiCond115) V4 load(1, XDATA, add(CFA_XSP16, literal(-18)))
        CFI (cfiCond115) V5 load(1, XDATA, add(CFA_XSP16, literal(-17)))
        CFI (cfiCond115) V6 load(1, XDATA, add(CFA_XSP16, literal(-16)))
        CFI (cfiCond115) V7 load(1, XDATA, add(CFA_XSP16, literal(-15)))
        CFI (cfiCond115) V8 load(1, XDATA, add(CFA_XSP16, literal(-14)))
        CFI (cfiCond115) V9 load(1, XDATA, add(CFA_XSP16, literal(-13)))
        CFI (cfiCond115) V10 load(1, XDATA, add(CFA_XSP16, literal(-12)))
        CFI (cfiCond115) V11 load(1, XDATA, add(CFA_XSP16, literal(-11)))
        CFI (cfiCond115) V12 load(1, XDATA, add(CFA_XSP16, literal(-10)))
        CFI (cfiCond115) V13 load(1, XDATA, add(CFA_XSP16, literal(-9)))
        CFI (cfiCond115) V14 load(1, XDATA, add(CFA_XSP16, literal(-8)))
        CFI (cfiCond115) V15 load(1, XDATA, add(CFA_XSP16, literal(-7)))
        CFI (cfiCond115) R7 load(1, XDATA, add(CFA_XSP16, literal(-6)))
        CFI (cfiCond115) ?RET_LOW load(1, XDATA, add(CFA_XSP16, literal(-5)))
        CFI (cfiCond115) ?RET_HIGH load(1, XDATA, add(CFA_XSP16, literal(-4)))
        CFI (cfiCond115) ?BRET_EXT load(1, XDATA, add(CFA_XSP16, literal(-3)))
        CFI (cfiCond115) DPL0 load(1, XDATA, add(CFA_XSP16, literal(-2)))
        CFI (cfiCond115) DPH0 load(1, XDATA, add(CFA_XSP16, literal(-1)))
        CFI (cfiCond115) CFA_SP SP+0
        CFI (cfiCond115) CFA_XSP16 add(XSP16, 25)
        CFI Block cfiCond116 Using cfiCommon0
        CFI (cfiCond116) NoFunction
        CFI (cfiCond116) Conditional ??CrossCallReturnLabel_4
        CFI (cfiCond116) R6 load(1, XDATA, add(CFA_XSP16, literal(-24)))
        CFI (cfiCond116) VB load(1, XDATA, add(CFA_XSP16, literal(-23)))
        CFI (cfiCond116) V0 load(1, XDATA, add(CFA_XSP16, literal(-22)))
        CFI (cfiCond116) V1 load(1, XDATA, add(CFA_XSP16, literal(-21)))
        CFI (cfiCond116) V2 load(1, XDATA, add(CFA_XSP16, literal(-20)))
        CFI (cfiCond116) V3 load(1, XDATA, add(CFA_XSP16, literal(-19)))
        CFI (cfiCond116) V4 load(1, XDATA, add(CFA_XSP16, literal(-18)))
        CFI (cfiCond116) V5 load(1, XDATA, add(CFA_XSP16, literal(-17)))
        CFI (cfiCond116) V6 load(1, XDATA, add(CFA_XSP16, literal(-16)))
        CFI (cfiCond116) V7 load(1, XDATA, add(CFA_XSP16, literal(-15)))
        CFI (cfiCond116) V8 load(1, XDATA, add(CFA_XSP16, literal(-14)))
        CFI (cfiCond116) V9 load(1, XDATA, add(CFA_XSP16, literal(-13)))
        CFI (cfiCond116) V10 load(1, XDATA, add(CFA_XSP16, literal(-12)))
        CFI (cfiCond116) V11 load(1, XDATA, add(CFA_XSP16, literal(-11)))
        CFI (cfiCond116) V12 load(1, XDATA, add(CFA_XSP16, literal(-10)))
        CFI (cfiCond116) V13 load(1, XDATA, add(CFA_XSP16, literal(-9)))
        CFI (cfiCond116) V14 load(1, XDATA, add(CFA_XSP16, literal(-8)))
        CFI (cfiCond116) V15 load(1, XDATA, add(CFA_XSP16, literal(-7)))
        CFI (cfiCond116) R7 load(1, XDATA, add(CFA_XSP16, literal(-6)))
        CFI (cfiCond116) ?RET_LOW load(1, XDATA, add(CFA_XSP16, literal(-5)))
        CFI (cfiCond116) ?RET_HIGH load(1, XDATA, add(CFA_XSP16, literal(-4)))
        CFI (cfiCond116) ?BRET_EXT load(1, XDATA, add(CFA_XSP16, literal(-3)))
        CFI (cfiCond116) DPL0 load(1, XDATA, add(CFA_XSP16, literal(-2)))
        CFI (cfiCond116) DPH0 load(1, XDATA, add(CFA_XSP16, literal(-1)))
        CFI (cfiCond116) CFA_SP SP+0
        CFI (cfiCond116) CFA_XSP16 add(XSP16, 25)
        CFI Block cfiCond117 Using cfiCommon0
        CFI (cfiCond117) NoFunction
        CFI (cfiCond117) Conditional ??CrossCallReturnLabel_5
        CFI (cfiCond117) R6 load(1, XDATA, add(CFA_XSP16, literal(-24)))
        CFI (cfiCond117) VB load(1, XDATA, add(CFA_XSP16, literal(-23)))
        CFI (cfiCond117) V0 load(1, XDATA, add(CFA_XSP16, literal(-22)))
        CFI (cfiCond117) V1 load(1, XDATA, add(CFA_XSP16, literal(-21)))
        CFI (cfiCond117) V2 load(1, XDATA, add(CFA_XSP16, literal(-20)))
        CFI (cfiCond117) V3 load(1, XDATA, add(CFA_XSP16, literal(-19)))
        CFI (cfiCond117) V4 load(1, XDATA, add(CFA_XSP16, literal(-18)))
        CFI (cfiCond117) V5 load(1, XDATA, add(CFA_XSP16, literal(-17)))
        CFI (cfiCond117) V6 load(1, XDATA, add(CFA_XSP16, literal(-16)))
        CFI (cfiCond117) V7 load(1, XDATA, add(CFA_XSP16, literal(-15)))
        CFI (cfiCond117) V8 load(1, XDATA, add(CFA_XSP16, literal(-14)))
        CFI (cfiCond117) V9 load(1, XDATA, add(CFA_XSP16, literal(-13)))
        CFI (cfiCond117) V10 load(1, XDATA, add(CFA_XSP16, literal(-12)))
        CFI (cfiCond117) V11 load(1, XDATA, add(CFA_XSP16, literal(-11)))
        CFI (cfiCond117) V12 load(1, XDATA, add(CFA_XSP16, literal(-10)))
        CFI (cfiCond117) V13 load(1, XDATA, add(CFA_XSP16, literal(-9)))
        CFI (cfiCond117) V14 load(1, XDATA, add(CFA_XSP16, literal(-8)))
        CFI (cfiCond117) V15 load(1, XDATA, add(CFA_XSP16, literal(-7)))
        CFI (cfiCond117) R7 load(1, XDATA, add(CFA_XSP16, literal(-6)))
        CFI (cfiCond117) ?RET_LOW load(1, XDATA, add(CFA_XSP16, literal(-5)))
        CFI (cfiCond117) ?RET_HIGH load(1, XDATA, add(CFA_XSP16, literal(-4)))
        CFI (cfiCond117) ?BRET_EXT load(1, XDATA, add(CFA_XSP16, literal(-3)))
        CFI (cfiCond117) DPL0 load(1, XDATA, add(CFA_XSP16, literal(-2)))
        CFI (cfiCond117) DPH0 load(1, XDATA, add(CFA_XSP16, literal(-1)))
        CFI (cfiCond117) CFA_SP SP+0
        CFI (cfiCond117) CFA_XSP16 add(XSP16, 25)
        CFI Block cfiPicker118 Using cfiCommon1
        CFI (cfiPicker118) NoFunction
        CFI (cfiPicker118) Picker
        LCALL   ?Subroutine35 & 0xFFFF
??CrossCallReturnLabel_74:
        RET
        CFI EndBlock cfiCond114
        CFI EndBlock cfiCond115
        CFI EndBlock cfiCond116
        CFI EndBlock cfiCond117
        CFI EndBlock cfiPicker118

        RSEG BANKED_CODE:CODE:NOROOT(0)
?Subroutine35:
        CFI Block cfiCond119 Using cfiCommon0
        CFI NoFunction
        CFI Conditional ??CrossCallReturnLabel_74, ??CrossCallReturnLabel_2
        CFI R6 load(1, XDATA, add(CFA_XSP16, literal(-24)))
        CFI VB load(1, XDATA, add(CFA_XSP16, literal(-23)))
        CFI V0 load(1, XDATA, add(CFA_XSP16, literal(-22)))
        CFI V1 load(1, XDATA, add(CFA_XSP16, literal(-21)))
        CFI V2 load(1, XDATA, add(CFA_XSP16, literal(-20)))
        CFI V3 load(1, XDATA, add(CFA_XSP16, literal(-19)))
        CFI V4 load(1, XDATA, add(CFA_XSP16, literal(-18)))
        CFI V5 load(1, XDATA, add(CFA_XSP16, literal(-17)))
        CFI V6 load(1, XDATA, add(CFA_XSP16, literal(-16)))
        CFI V7 load(1, XDATA, add(CFA_XSP16, literal(-15)))
        CFI V8 load(1, XDATA, add(CFA_XSP16, literal(-14)))
        CFI V9 load(1, XDATA, add(CFA_XSP16, literal(-13)))
        CFI V10 load(1, XDATA, add(CFA_XSP16, literal(-12)))
        CFI V11 load(1, XDATA, add(CFA_XSP16, literal(-11)))
        CFI V12 load(1, XDATA, add(CFA_XSP16, literal(-10)))
        CFI V13 load(1, XDATA, add(CFA_XSP16, literal(-9)))
        CFI V14 load(1, XDATA, add(CFA_XSP16, literal(-8)))
        CFI V15 load(1, XDATA, add(CFA_XSP16, literal(-7)))
        CFI R7 load(1, XDATA, add(CFA_XSP16, literal(-6)))
        CFI ?RET_LOW load(1, XDATA, add(CFA_XSP16, literal(-5)))
        CFI ?RET_HIGH load(1, XDATA, add(CFA_XSP16, literal(-4)))
        CFI ?BRET_EXT load(1, XDATA, add(CFA_XSP16, literal(-3)))
        CFI DPL0 load(1, XDATA, add(CFA_XSP16, literal(-2)))
        CFI DPH0 load(1, XDATA, add(CFA_XSP16, literal(-1)))
        CFI CFA_SP SP+0
        CFI CFA_XSP16 add(XSP16, 25)
        CFI Block cfiCond120 Using cfiCommon0
        CFI (cfiCond120) NoFunction
        CFI (cfiCond120) Conditional ??CrossCallReturnLabel_74, ??CrossCallReturnLabel_3
        CFI (cfiCond120) R6 load(1, XDATA, add(CFA_XSP16, literal(-24)))
        CFI (cfiCond120) VB load(1, XDATA, add(CFA_XSP16, literal(-23)))
        CFI (cfiCond120) V0 load(1, XDATA, add(CFA_XSP16, literal(-22)))
        CFI (cfiCond120) V1 load(1, XDATA, add(CFA_XSP16, literal(-21)))
        CFI (cfiCond120) V2 load(1, XDATA, add(CFA_XSP16, literal(-20)))
        CFI (cfiCond120) V3 load(1, XDATA, add(CFA_XSP16, literal(-19)))
        CFI (cfiCond120) V4 load(1, XDATA, add(CFA_XSP16, literal(-18)))
        CFI (cfiCond120) V5 load(1, XDATA, add(CFA_XSP16, literal(-17)))
        CFI (cfiCond120) V6 load(1, XDATA, add(CFA_XSP16, literal(-16)))
        CFI (cfiCond120) V7 load(1, XDATA, add(CFA_XSP16, literal(-15)))
        CFI (cfiCond120) V8 load(1, XDATA, add(CFA_XSP16, literal(-14)))
        CFI (cfiCond120) V9 load(1, XDATA, add(CFA_XSP16, literal(-13)))
        CFI (cfiCond120) V10 load(1, XDATA, add(CFA_XSP16, literal(-12)))
        CFI (cfiCond120) V11 load(1, XDATA, add(CFA_XSP16, literal(-11)))
        CFI (cfiCond120) V12 load(1, XDATA, add(CFA_XSP16, literal(-10)))
        CFI (cfiCond120) V13 load(1, XDATA, add(CFA_XSP16, literal(-9)))
        CFI (cfiCond120) V14 load(1, XDATA, add(CFA_XSP16, literal(-8)))
        CFI (cfiCond120) V15 load(1, XDATA, add(CFA_XSP16, literal(-7)))
        CFI (cfiCond120) R7 load(1, XDATA, add(CFA_XSP16, literal(-6)))
        CFI (cfiCond120) ?RET_LOW load(1, XDATA, add(CFA_XSP16, literal(-5)))
        CFI (cfiCond120) ?RET_HIGH load(1, XDATA, add(CFA_XSP16, literal(-4)))
        CFI (cfiCond120) ?BRET_EXT load(1, XDATA, add(CFA_XSP16, literal(-3)))
        CFI (cfiCond120) DPL0 load(1, XDATA, add(CFA_XSP16, literal(-2)))
        CFI (cfiCond120) DPH0 load(1, XDATA, add(CFA_XSP16, literal(-1)))
        CFI (cfiCond120) CFA_SP SP+0
        CFI (cfiCond120) CFA_XSP16 add(XSP16, 25)
        CFI Block cfiCond121 Using cfiCommon0
        CFI (cfiCond121) NoFunction
        CFI (cfiCond121) Conditional ??CrossCallReturnLabel_74, ??CrossCallReturnLabel_4
        CFI (cfiCond121) R6 load(1, XDATA, add(CFA_XSP16, literal(-24)))
        CFI (cfiCond121) VB load(1, XDATA, add(CFA_XSP16, literal(-23)))
        CFI (cfiCond121) V0 load(1, XDATA, add(CFA_XSP16, literal(-22)))
        CFI (cfiCond121) V1 load(1, XDATA, add(CFA_XSP16, literal(-21)))
        CFI (cfiCond121) V2 load(1, XDATA, add(CFA_XSP16, literal(-20)))
        CFI (cfiCond121) V3 load(1, XDATA, add(CFA_XSP16, literal(-19)))
        CFI (cfiCond121) V4 load(1, XDATA, add(CFA_XSP16, literal(-18)))
        CFI (cfiCond121) V5 load(1, XDATA, add(CFA_XSP16, literal(-17)))
        CFI (cfiCond121) V6 load(1, XDATA, add(CFA_XSP16, literal(-16)))
        CFI (cfiCond121) V7 load(1, XDATA, add(CFA_XSP16, literal(-15)))
        CFI (cfiCond121) V8 load(1, XDATA, add(CFA_XSP16, literal(-14)))
        CFI (cfiCond121) V9 load(1, XDATA, add(CFA_XSP16, literal(-13)))
        CFI (cfiCond121) V10 load(1, XDATA, add(CFA_XSP16, literal(-12)))
        CFI (cfiCond121) V11 load(1, XDATA, add(CFA_XSP16, literal(-11)))
        CFI (cfiCond121) V12 load(1, XDATA, add(CFA_XSP16, literal(-10)))
        CFI (cfiCond121) V13 load(1, XDATA, add(CFA_XSP16, literal(-9)))
        CFI (cfiCond121) V14 load(1, XDATA, add(CFA_XSP16, literal(-8)))
        CFI (cfiCond121) V15 load(1, XDATA, add(CFA_XSP16, literal(-7)))
        CFI (cfiCond121) R7 load(1, XDATA, add(CFA_XSP16, literal(-6)))
        CFI (cfiCond121) ?RET_LOW load(1, XDATA, add(CFA_XSP16, literal(-5)))
        CFI (cfiCond121) ?RET_HIGH load(1, XDATA, add(CFA_XSP16, literal(-4)))
        CFI (cfiCond121) ?BRET_EXT load(1, XDATA, add(CFA_XSP16, literal(-3)))
        CFI (cfiCond121) DPL0 load(1, XDATA, add(CFA_XSP16, literal(-2)))
        CFI (cfiCond121) DPH0 load(1, XDATA, add(CFA_XSP16, literal(-1)))
        CFI (cfiCond121) CFA_SP SP+0
        CFI (cfiCond121) CFA_XSP16 add(XSP16, 25)
        CFI Block cfiCond122 Using cfiCommon0
        CFI (cfiCond122) NoFunction
        CFI (cfiCond122) Conditional ??CrossCallReturnLabel_74, ??CrossCallReturnLabel_5
        CFI (cfiCond122) R6 load(1, XDATA, add(CFA_XSP16, literal(-24)))
        CFI (cfiCond122) VB load(1, XDATA, add(CFA_XSP16, literal(-23)))
        CFI (cfiCond122) V0 load(1, XDATA, add(CFA_XSP16, literal(-22)))
        CFI (cfiCond122) V1 load(1, XDATA, add(CFA_XSP16, literal(-21)))
        CFI (cfiCond122) V2 load(1, XDATA, add(CFA_XSP16, literal(-20)))
        CFI (cfiCond122) V3 load(1, XDATA, add(CFA_XSP16, literal(-19)))
        CFI (cfiCond122) V4 load(1, XDATA, add(CFA_XSP16, literal(-18)))
        CFI (cfiCond122) V5 load(1, XDATA, add(CFA_XSP16, literal(-17)))
        CFI (cfiCond122) V6 load(1, XDATA, add(CFA_XSP16, literal(-16)))
        CFI (cfiCond122) V7 load(1, XDATA, add(CFA_XSP16, literal(-15)))
        CFI (cfiCond122) V8 load(1, XDATA, add(CFA_XSP16, literal(-14)))
        CFI (cfiCond122) V9 load(1, XDATA, add(CFA_XSP16, literal(-13)))
        CFI (cfiCond122) V10 load(1, XDATA, add(CFA_XSP16, literal(-12)))
        CFI (cfiCond122) V11 load(1, XDATA, add(CFA_XSP16, literal(-11)))
        CFI (cfiCond122) V12 load(1, XDATA, add(CFA_XSP16, literal(-10)))
        CFI (cfiCond122) V13 load(1, XDATA, add(CFA_XSP16, literal(-9)))
        CFI (cfiCond122) V14 load(1, XDATA, add(CFA_XSP16, literal(-8)))
        CFI (cfiCond122) V15 load(1, XDATA, add(CFA_XSP16, literal(-7)))
        CFI (cfiCond122) R7 load(1, XDATA, add(CFA_XSP16, literal(-6)))
        CFI (cfiCond122) ?RET_LOW load(1, XDATA, add(CFA_XSP16, literal(-5)))
        CFI (cfiCond122) ?RET_HIGH load(1, XDATA, add(CFA_XSP16, literal(-4)))
        CFI (cfiCond122) ?BRET_EXT load(1, XDATA, add(CFA_XSP16, literal(-3)))
        CFI (cfiCond122) DPL0 load(1, XDATA, add(CFA_XSP16, literal(-2)))
        CFI (cfiCond122) DPH0 load(1, XDATA, add(CFA_XSP16, literal(-1)))
        CFI (cfiCond122) CFA_SP SP+0
        CFI (cfiCond122) CFA_XSP16 add(XSP16, 25)
        CFI Block cfiCond123 Using cfiCommon0
        CFI (cfiCond123) NoFunction
        CFI (cfiCond123) Conditional ??CrossCallReturnLabel_75, ??CrossCallReturnLabel_72, ??CrossCallReturnLabel_0
        CFI (cfiCond123) R6 load(1, XDATA, add(CFA_XSP16, literal(-24)))
        CFI (cfiCond123) VB load(1, XDATA, add(CFA_XSP16, literal(-23)))
        CFI (cfiCond123) V0 load(1, XDATA, add(CFA_XSP16, literal(-22)))
        CFI (cfiCond123) V1 load(1, XDATA, add(CFA_XSP16, literal(-21)))
        CFI (cfiCond123) V2 load(1, XDATA, add(CFA_XSP16, literal(-20)))
        CFI (cfiCond123) V3 load(1, XDATA, add(CFA_XSP16, literal(-19)))
        CFI (cfiCond123) V4 load(1, XDATA, add(CFA_XSP16, literal(-18)))
        CFI (cfiCond123) V5 load(1, XDATA, add(CFA_XSP16, literal(-17)))
        CFI (cfiCond123) V6 load(1, XDATA, add(CFA_XSP16, literal(-16)))
        CFI (cfiCond123) V7 load(1, XDATA, add(CFA_XSP16, literal(-15)))
        CFI (cfiCond123) V8 load(1, XDATA, add(CFA_XSP16, literal(-14)))
        CFI (cfiCond123) V9 load(1, XDATA, add(CFA_XSP16, literal(-13)))
        CFI (cfiCond123) V10 load(1, XDATA, add(CFA_XSP16, literal(-12)))
        CFI (cfiCond123) V11 load(1, XDATA, add(CFA_XSP16, literal(-11)))
        CFI (cfiCond123) V12 load(1, XDATA, add(CFA_XSP16, literal(-10)))
        CFI (cfiCond123) V13 load(1, XDATA, add(CFA_XSP16, literal(-9)))
        CFI (cfiCond123) V14 load(1, XDATA, add(CFA_XSP16, literal(-8)))
        CFI (cfiCond123) V15 load(1, XDATA, add(CFA_XSP16, literal(-7)))
        CFI (cfiCond123) R7 load(1, XDATA, add(CFA_XSP16, literal(-6)))
        CFI (cfiCond123) ?RET_LOW load(1, XDATA, add(CFA_XSP16, literal(-5)))
        CFI (cfiCond123) ?RET_HIGH load(1, XDATA, add(CFA_XSP16, literal(-4)))
        CFI (cfiCond123) ?BRET_EXT load(1, XDATA, add(CFA_XSP16, literal(-3)))
        CFI (cfiCond123) DPL0 load(1, XDATA, add(CFA_XSP16, literal(-2)))
        CFI (cfiCond123) DPH0 load(1, XDATA, add(CFA_XSP16, literal(-1)))
        CFI (cfiCond123) CFA_SP SP+0
        CFI (cfiCond123) CFA_XSP16 add(XSP16, 25)
        CFI Block cfiCond124 Using cfiCommon0
        CFI (cfiCond124) NoFunction
        CFI (cfiCond124) Conditional ??CrossCallReturnLabel_75, ??CrossCallReturnLabel_72, ??CrossCallReturnLabel_1
        CFI (cfiCond124) R6 load(1, XDATA, add(CFA_XSP16, literal(-24)))
        CFI (cfiCond124) VB load(1, XDATA, add(CFA_XSP16, literal(-23)))
        CFI (cfiCond124) V0 load(1, XDATA, add(CFA_XSP16, literal(-22)))
        CFI (cfiCond124) V1 load(1, XDATA, add(CFA_XSP16, literal(-21)))
        CFI (cfiCond124) V2 load(1, XDATA, add(CFA_XSP16, literal(-20)))
        CFI (cfiCond124) V3 load(1, XDATA, add(CFA_XSP16, literal(-19)))
        CFI (cfiCond124) V4 load(1, XDATA, add(CFA_XSP16, literal(-18)))
        CFI (cfiCond124) V5 load(1, XDATA, add(CFA_XSP16, literal(-17)))
        CFI (cfiCond124) V6 load(1, XDATA, add(CFA_XSP16, literal(-16)))
        CFI (cfiCond124) V7 load(1, XDATA, add(CFA_XSP16, literal(-15)))
        CFI (cfiCond124) V8 load(1, XDATA, add(CFA_XSP16, literal(-14)))
        CFI (cfiCond124) V9 load(1, XDATA, add(CFA_XSP16, literal(-13)))
        CFI (cfiCond124) V10 load(1, XDATA, add(CFA_XSP16, literal(-12)))
        CFI (cfiCond124) V11 load(1, XDATA, add(CFA_XSP16, literal(-11)))
        CFI (cfiCond124) V12 load(1, XDATA, add(CFA_XSP16, literal(-10)))
        CFI (cfiCond124) V13 load(1, XDATA, add(CFA_XSP16, literal(-9)))
        CFI (cfiCond124) V14 load(1, XDATA, add(CFA_XSP16, literal(-8)))
        CFI (cfiCond124) V15 load(1, XDATA, add(CFA_XSP16, literal(-7)))
        CFI (cfiCond124) R7 load(1, XDATA, add(CFA_XSP16, literal(-6)))
        CFI (cfiCond124) ?RET_LOW load(1, XDATA, add(CFA_XSP16, literal(-5)))
        CFI (cfiCond124) ?RET_HIGH load(1, XDATA, add(CFA_XSP16, literal(-4)))
        CFI (cfiCond124) ?BRET_EXT load(1, XDATA, add(CFA_XSP16, literal(-3)))
        CFI (cfiCond124) DPL0 load(1, XDATA, add(CFA_XSP16, literal(-2)))
        CFI (cfiCond124) DPH0 load(1, XDATA, add(CFA_XSP16, literal(-1)))
        CFI (cfiCond124) CFA_SP SP+0
        CFI (cfiCond124) CFA_XSP16 add(XSP16, 25)
        CFI Block cfiCond125 Using cfiCommon0
        CFI (cfiCond125) NoFunction
        CFI (cfiCond125) Conditional ??CrossCallReturnLabel_75, ??CrossCallReturnLabel_73, ??CrossCallReturnLabel_67
        CFI (cfiCond125) R6 load(1, XDATA, add(CFA_XSP16, literal(-24)))
        CFI (cfiCond125) VB load(1, XDATA, add(CFA_XSP16, literal(-23)))
        CFI (cfiCond125) V0 load(1, XDATA, add(CFA_XSP16, literal(-22)))
        CFI (cfiCond125) V1 load(1, XDATA, add(CFA_XSP16, literal(-21)))
        CFI (cfiCond125) V2 load(1, XDATA, add(CFA_XSP16, literal(-20)))
        CFI (cfiCond125) V3 load(1, XDATA, add(CFA_XSP16, literal(-19)))
        CFI (cfiCond125) V4 load(1, XDATA, add(CFA_XSP16, literal(-18)))
        CFI (cfiCond125) V5 load(1, XDATA, add(CFA_XSP16, literal(-17)))
        CFI (cfiCond125) V6 load(1, XDATA, add(CFA_XSP16, literal(-16)))
        CFI (cfiCond125) V7 load(1, XDATA, add(CFA_XSP16, literal(-15)))
        CFI (cfiCond125) V8 load(1, XDATA, add(CFA_XSP16, literal(-14)))
        CFI (cfiCond125) V9 load(1, XDATA, add(CFA_XSP16, literal(-13)))
        CFI (cfiCond125) V10 load(1, XDATA, add(CFA_XSP16, literal(-12)))
        CFI (cfiCond125) V11 load(1, XDATA, add(CFA_XSP16, literal(-11)))
        CFI (cfiCond125) V12 load(1, XDATA, add(CFA_XSP16, literal(-10)))
        CFI (cfiCond125) V13 load(1, XDATA, add(CFA_XSP16, literal(-9)))
        CFI (cfiCond125) V14 load(1, XDATA, add(CFA_XSP16, literal(-8)))
        CFI (cfiCond125) V15 load(1, XDATA, add(CFA_XSP16, literal(-7)))
        CFI (cfiCond125) R7 load(1, XDATA, add(CFA_XSP16, literal(-6)))
        CFI (cfiCond125) ?RET_LOW load(1, XDATA, add(CFA_XSP16, literal(-5)))
        CFI (cfiCond125) ?RET_HIGH load(1, XDATA, add(CFA_XSP16, literal(-4)))
        CFI (cfiCond125) ?BRET_EXT load(1, XDATA, add(CFA_XSP16, literal(-3)))
        CFI (cfiCond125) DPL0 load(1, XDATA, add(CFA_XSP16, literal(-2)))
        CFI (cfiCond125) DPH0 load(1, XDATA, add(CFA_XSP16, literal(-1)))
        CFI (cfiCond125) CFA_SP SP+0
        CFI (cfiCond125) CFA_XSP16 add(XSP16, 25)
        CFI Block cfiCond126 Using cfiCommon0
        CFI (cfiCond126) NoFunction
        CFI (cfiCond126) Conditional ??CrossCallReturnLabel_75, ??CrossCallReturnLabel_73, ??CrossCallReturnLabel_68
        CFI (cfiCond126) R6 load(1, XDATA, add(CFA_XSP16, literal(-24)))
        CFI (cfiCond126) VB load(1, XDATA, add(CFA_XSP16, literal(-23)))
        CFI (cfiCond126) V0 load(1, XDATA, add(CFA_XSP16, literal(-22)))
        CFI (cfiCond126) V1 load(1, XDATA, add(CFA_XSP16, literal(-21)))
        CFI (cfiCond126) V2 load(1, XDATA, add(CFA_XSP16, literal(-20)))
        CFI (cfiCond126) V3 load(1, XDATA, add(CFA_XSP16, literal(-19)))
        CFI (cfiCond126) V4 load(1, XDATA, add(CFA_XSP16, literal(-18)))
        CFI (cfiCond126) V5 load(1, XDATA, add(CFA_XSP16, literal(-17)))
        CFI (cfiCond126) V6 load(1, XDATA, add(CFA_XSP16, literal(-16)))
        CFI (cfiCond126) V7 load(1, XDATA, add(CFA_XSP16, literal(-15)))
        CFI (cfiCond126) V8 load(1, XDATA, add(CFA_XSP16, literal(-14)))
        CFI (cfiCond126) V9 load(1, XDATA, add(CFA_XSP16, literal(-13)))
        CFI (cfiCond126) V10 load(1, XDATA, add(CFA_XSP16, literal(-12)))
        CFI (cfiCond126) V11 load(1, XDATA, add(CFA_XSP16, literal(-11)))
        CFI (cfiCond126) V12 load(1, XDATA, add(CFA_XSP16, literal(-10)))
        CFI (cfiCond126) V13 load(1, XDATA, add(CFA_XSP16, literal(-9)))
        CFI (cfiCond126) V14 load(1, XDATA, add(CFA_XSP16, literal(-8)))
        CFI (cfiCond126) V15 load(1, XDATA, add(CFA_XSP16, literal(-7)))
        CFI (cfiCond126) R7 load(1, XDATA, add(CFA_XSP16, literal(-6)))
        CFI (cfiCond126) ?RET_LOW load(1, XDATA, add(CFA_XSP16, literal(-5)))
        CFI (cfiCond126) ?RET_HIGH load(1, XDATA, add(CFA_XSP16, literal(-4)))
        CFI (cfiCond126) ?BRET_EXT load(1, XDATA, add(CFA_XSP16, literal(-3)))
        CFI (cfiCond126) DPL0 load(1, XDATA, add(CFA_XSP16, literal(-2)))
        CFI (cfiCond126) DPH0 load(1, XDATA, add(CFA_XSP16, literal(-1)))
        CFI (cfiCond126) CFA_SP SP+0
        CFI (cfiCond126) CFA_XSP16 add(XSP16, 25)
        CFI Block cfiCond127 Using cfiCommon0
        CFI (cfiCond127) NoFunction
        CFI (cfiCond127) Conditional ??CrossCallReturnLabel_75, ??CrossCallReturnLabel_73, ??CrossCallReturnLabel_69
        CFI (cfiCond127) R6 load(1, XDATA, add(CFA_XSP16, literal(-24)))
        CFI (cfiCond127) VB load(1, XDATA, add(CFA_XSP16, literal(-23)))
        CFI (cfiCond127) V0 load(1, XDATA, add(CFA_XSP16, literal(-22)))
        CFI (cfiCond127) V1 load(1, XDATA, add(CFA_XSP16, literal(-21)))
        CFI (cfiCond127) V2 load(1, XDATA, add(CFA_XSP16, literal(-20)))
        CFI (cfiCond127) V3 load(1, XDATA, add(CFA_XSP16, literal(-19)))
        CFI (cfiCond127) V4 load(1, XDATA, add(CFA_XSP16, literal(-18)))
        CFI (cfiCond127) V5 load(1, XDATA, add(CFA_XSP16, literal(-17)))
        CFI (cfiCond127) V6 load(1, XDATA, add(CFA_XSP16, literal(-16)))
        CFI (cfiCond127) V7 load(1, XDATA, add(CFA_XSP16, literal(-15)))
        CFI (cfiCond127) V8 load(1, XDATA, add(CFA_XSP16, literal(-14)))
        CFI (cfiCond127) V9 load(1, XDATA, add(CFA_XSP16, literal(-13)))
        CFI (cfiCond127) V10 load(1, XDATA, add(CFA_XSP16, literal(-12)))
        CFI (cfiCond127) V11 load(1, XDATA, add(CFA_XSP16, literal(-11)))
        CFI (cfiCond127) V12 load(1, XDATA, add(CFA_XSP16, literal(-10)))
        CFI (cfiCond127) V13 load(1, XDATA, add(CFA_XSP16, literal(-9)))
        CFI (cfiCond127) V14 load(1, XDATA, add(CFA_XSP16, literal(-8)))
        CFI (cfiCond127) V15 load(1, XDATA, add(CFA_XSP16, literal(-7)))
        CFI (cfiCond127) R7 load(1, XDATA, add(CFA_XSP16, literal(-6)))
        CFI (cfiCond127) ?RET_LOW load(1, XDATA, add(CFA_XSP16, literal(-5)))
        CFI (cfiCond127) ?RET_HIGH load(1, XDATA, add(CFA_XSP16, literal(-4)))
        CFI (cfiCond127) ?BRET_EXT load(1, XDATA, add(CFA_XSP16, literal(-3)))
        CFI (cfiCond127) DPL0 load(1, XDATA, add(CFA_XSP16, literal(-2)))
        CFI (cfiCond127) DPH0 load(1, XDATA, add(CFA_XSP16, literal(-1)))
        CFI (cfiCond127) CFA_SP SP+0
        CFI (cfiCond127) CFA_XSP16 add(XSP16, 25)
        CFI Block cfiCond128 Using cfiCommon0
        CFI (cfiCond128) NoFunction
        CFI (cfiCond128) Conditional ??CrossCallReturnLabel_75, ??CrossCallReturnLabel_73, ??CrossCallReturnLabel_70
        CFI (cfiCond128) R6 load(1, XDATA, add(CFA_XSP16, literal(-24)))
        CFI (cfiCond128) VB load(1, XDATA, add(CFA_XSP16, literal(-23)))
        CFI (cfiCond128) V0 load(1, XDATA, add(CFA_XSP16, literal(-22)))
        CFI (cfiCond128) V1 load(1, XDATA, add(CFA_XSP16, literal(-21)))
        CFI (cfiCond128) V2 load(1, XDATA, add(CFA_XSP16, literal(-20)))
        CFI (cfiCond128) V3 load(1, XDATA, add(CFA_XSP16, literal(-19)))
        CFI (cfiCond128) V4 load(1, XDATA, add(CFA_XSP16, literal(-18)))
        CFI (cfiCond128) V5 load(1, XDATA, add(CFA_XSP16, literal(-17)))
        CFI (cfiCond128) V6 load(1, XDATA, add(CFA_XSP16, literal(-16)))
        CFI (cfiCond128) V7 load(1, XDATA, add(CFA_XSP16, literal(-15)))
        CFI (cfiCond128) V8 load(1, XDATA, add(CFA_XSP16, literal(-14)))
        CFI (cfiCond128) V9 load(1, XDATA, add(CFA_XSP16, literal(-13)))
        CFI (cfiCond128) V10 load(1, XDATA, add(CFA_XSP16, literal(-12)))
        CFI (cfiCond128) V11 load(1, XDATA, add(CFA_XSP16, literal(-11)))
        CFI (cfiCond128) V12 load(1, XDATA, add(CFA_XSP16, literal(-10)))
        CFI (cfiCond128) V13 load(1, XDATA, add(CFA_XSP16, literal(-9)))
        CFI (cfiCond128) V14 load(1, XDATA, add(CFA_XSP16, literal(-8)))
        CFI (cfiCond128) V15 load(1, XDATA, add(CFA_XSP16, literal(-7)))
        CFI (cfiCond128) R7 load(1, XDATA, add(CFA_XSP16, literal(-6)))
        CFI (cfiCond128) ?RET_LOW load(1, XDATA, add(CFA_XSP16, literal(-5)))
        CFI (cfiCond128) ?RET_HIGH load(1, XDATA, add(CFA_XSP16, literal(-4)))
        CFI (cfiCond128) ?BRET_EXT load(1, XDATA, add(CFA_XSP16, literal(-3)))
        CFI (cfiCond128) DPL0 load(1, XDATA, add(CFA_XSP16, literal(-2)))
        CFI (cfiCond128) DPH0 load(1, XDATA, add(CFA_XSP16, literal(-1)))
        CFI (cfiCond128) CFA_SP SP+0
        CFI (cfiCond128) CFA_XSP16 add(XSP16, 25)
        CFI Block cfiCond129 Using cfiCommon0
        CFI (cfiCond129) NoFunction
        CFI (cfiCond129) Conditional ??CrossCallReturnLabel_75, ??CrossCallReturnLabel_73, ??CrossCallReturnLabel_71
        CFI (cfiCond129) R6 load(1, XDATA, add(CFA_XSP16, literal(-24)))
        CFI (cfiCond129) VB load(1, XDATA, add(CFA_XSP16, literal(-23)))
        CFI (cfiCond129) V0 load(1, XDATA, add(CFA_XSP16, literal(-22)))
        CFI (cfiCond129) V1 load(1, XDATA, add(CFA_XSP16, literal(-21)))
        CFI (cfiCond129) V2 load(1, XDATA, add(CFA_XSP16, literal(-20)))
        CFI (cfiCond129) V3 load(1, XDATA, add(CFA_XSP16, literal(-19)))
        CFI (cfiCond129) V4 load(1, XDATA, add(CFA_XSP16, literal(-18)))
        CFI (cfiCond129) V5 load(1, XDATA, add(CFA_XSP16, literal(-17)))
        CFI (cfiCond129) V6 load(1, XDATA, add(CFA_XSP16, literal(-16)))
        CFI (cfiCond129) V7 load(1, XDATA, add(CFA_XSP16, literal(-15)))
        CFI (cfiCond129) V8 load(1, XDATA, add(CFA_XSP16, literal(-14)))
        CFI (cfiCond129) V9 load(1, XDATA, add(CFA_XSP16, literal(-13)))
        CFI (cfiCond129) V10 load(1, XDATA, add(CFA_XSP16, literal(-12)))
        CFI (cfiCond129) V11 load(1, XDATA, add(CFA_XSP16, literal(-11)))
        CFI (cfiCond129) V12 load(1, XDATA, add(CFA_XSP16, literal(-10)))
        CFI (cfiCond129) V13 load(1, XDATA, add(CFA_XSP16, literal(-9)))
        CFI (cfiCond129) V14 load(1, XDATA, add(CFA_XSP16, literal(-8)))
        CFI (cfiCond129) V15 load(1, XDATA, add(CFA_XSP16, literal(-7)))
        CFI (cfiCond129) R7 load(1, XDATA, add(CFA_XSP16, literal(-6)))
        CFI (cfiCond129) ?RET_LOW load(1, XDATA, add(CFA_XSP16, literal(-5)))
        CFI (cfiCond129) ?RET_HIGH load(1, XDATA, add(CFA_XSP16, literal(-4)))
        CFI (cfiCond129) ?BRET_EXT load(1, XDATA, add(CFA_XSP16, literal(-3)))
        CFI (cfiCond129) DPL0 load(1, XDATA, add(CFA_XSP16, literal(-2)))
        CFI (cfiCond129) DPH0 load(1, XDATA, add(CFA_XSP16, literal(-1)))
        CFI (cfiCond129) CFA_SP SP+0
        CFI (cfiCond129) CFA_XSP16 add(XSP16, 25)
        CFI Block cfiPicker130 Using cfiCommon1
        CFI (cfiPicker130) NoFunction
        CFI (cfiPicker130) Picker
        MOVX    A,@DPTR
        MOV     DPL,?V0 + 2
        MOV     DPH,?V0 + 3
        MOVX    @DPTR,A
        RET
        CFI EndBlock cfiCond119
        CFI EndBlock cfiCond120
        CFI EndBlock cfiCond121
        CFI EndBlock cfiCond122
        CFI EndBlock cfiCond123
        CFI EndBlock cfiCond124
        CFI EndBlock cfiCond125
        CFI EndBlock cfiCond126
        CFI EndBlock cfiCond127
        CFI EndBlock cfiCond128
        CFI EndBlock cfiCond129
        CFI EndBlock cfiPicker130

        RSEG BANKED_CODE:CODE:NOROOT(0)
?Subroutine6:
        CFI Block cfiCond131 Using cfiCommon0
        CFI NoFunction
        CFI Conditional ??CrossCallReturnLabel_0
        CFI R6 load(1, XDATA, add(CFA_XSP16, literal(-24)))
        CFI VB load(1, XDATA, add(CFA_XSP16, literal(-23)))
        CFI V0 load(1, XDATA, add(CFA_XSP16, literal(-22)))
        CFI V1 load(1, XDATA, add(CFA_XSP16, literal(-21)))
        CFI V2 load(1, XDATA, add(CFA_XSP16, literal(-20)))
        CFI V3 load(1, XDATA, add(CFA_XSP16, literal(-19)))
        CFI V4 load(1, XDATA, add(CFA_XSP16, literal(-18)))
        CFI V5 load(1, XDATA, add(CFA_XSP16, literal(-17)))
        CFI V6 load(1, XDATA, add(CFA_XSP16, literal(-16)))
        CFI V7 load(1, XDATA, add(CFA_XSP16, literal(-15)))
        CFI V8 load(1, XDATA, add(CFA_XSP16, literal(-14)))
        CFI V9 load(1, XDATA, add(CFA_XSP16, literal(-13)))
        CFI V10 load(1, XDATA, add(CFA_XSP16, literal(-12)))
        CFI V11 load(1, XDATA, add(CFA_XSP16, literal(-11)))
        CFI V12 load(1, XDATA, add(CFA_XSP16, literal(-10)))
        CFI V13 load(1, XDATA, add(CFA_XSP16, literal(-9)))
        CFI V14 load(1, XDATA, add(CFA_XSP16, literal(-8)))
        CFI V15 load(1, XDATA, add(CFA_XSP16, literal(-7)))
        CFI R7 load(1, XDATA, add(CFA_XSP16, literal(-6)))
        CFI ?RET_LOW load(1, XDATA, add(CFA_XSP16, literal(-5)))
        CFI ?RET_HIGH load(1, XDATA, add(CFA_XSP16, literal(-4)))
        CFI ?BRET_EXT load(1, XDATA, add(CFA_XSP16, literal(-3)))
        CFI DPL0 load(1, XDATA, add(CFA_XSP16, literal(-2)))
        CFI DPH0 load(1, XDATA, add(CFA_XSP16, literal(-1)))
        CFI CFA_SP SP+0
        CFI CFA_XSP16 add(XSP16, 25)
        CFI Block cfiCond132 Using cfiCommon0
        CFI (cfiCond132) NoFunction
        CFI (cfiCond132) Conditional ??CrossCallReturnLabel_1
        CFI (cfiCond132) R6 load(1, XDATA, add(CFA_XSP16, literal(-24)))
        CFI (cfiCond132) VB load(1, XDATA, add(CFA_XSP16, literal(-23)))
        CFI (cfiCond132) V0 load(1, XDATA, add(CFA_XSP16, literal(-22)))
        CFI (cfiCond132) V1 load(1, XDATA, add(CFA_XSP16, literal(-21)))
        CFI (cfiCond132) V2 load(1, XDATA, add(CFA_XSP16, literal(-20)))
        CFI (cfiCond132) V3 load(1, XDATA, add(CFA_XSP16, literal(-19)))
        CFI (cfiCond132) V4 load(1, XDATA, add(CFA_XSP16, literal(-18)))
        CFI (cfiCond132) V5 load(1, XDATA, add(CFA_XSP16, literal(-17)))
        CFI (cfiCond132) V6 load(1, XDATA, add(CFA_XSP16, literal(-16)))
        CFI (cfiCond132) V7 load(1, XDATA, add(CFA_XSP16, literal(-15)))
        CFI (cfiCond132) V8 load(1, XDATA, add(CFA_XSP16, literal(-14)))
        CFI (cfiCond132) V9 load(1, XDATA, add(CFA_XSP16, literal(-13)))
        CFI (cfiCond132) V10 load(1, XDATA, add(CFA_XSP16, literal(-12)))
        CFI (cfiCond132) V11 load(1, XDATA, add(CFA_XSP16, literal(-11)))
        CFI (cfiCond132) V12 load(1, XDATA, add(CFA_XSP16, literal(-10)))
        CFI (cfiCond132) V13 load(1, XDATA, add(CFA_XSP16, literal(-9)))
        CFI (cfiCond132) V14 load(1, XDATA, add(CFA_XSP16, literal(-8)))
        CFI (cfiCond132) V15 load(1, XDATA, add(CFA_XSP16, literal(-7)))
        CFI (cfiCond132) R7 load(1, XDATA, add(CFA_XSP16, literal(-6)))
        CFI (cfiCond132) ?RET_LOW load(1, XDATA, add(CFA_XSP16, literal(-5)))
        CFI (cfiCond132) ?RET_HIGH load(1, XDATA, add(CFA_XSP16, literal(-4)))
        CFI (cfiCond132) ?BRET_EXT load(1, XDATA, add(CFA_XSP16, literal(-3)))
        CFI (cfiCond132) DPL0 load(1, XDATA, add(CFA_XSP16, literal(-2)))
        CFI (cfiCond132) DPH0 load(1, XDATA, add(CFA_XSP16, literal(-1)))
        CFI (cfiCond132) CFA_SP SP+0
        CFI (cfiCond132) CFA_XSP16 add(XSP16, 25)
        CFI Block cfiPicker133 Using cfiCommon1
        CFI (cfiPicker133) NoFunction
        CFI (cfiPicker133) Picker
        LCALL   ?Subroutine29 & 0xFFFF
??CrossCallReturnLabel_72:
        RET
        CFI EndBlock cfiCond131
        CFI EndBlock cfiCond132
        CFI EndBlock cfiPicker133

        RSEG BANKED_CODE:CODE:NOROOT(0)
?Subroutine29:
        CFI Block cfiCond134 Using cfiCommon0
        CFI NoFunction
        CFI Conditional ??CrossCallReturnLabel_72, ??CrossCallReturnLabel_0
        CFI R6 load(1, XDATA, add(CFA_XSP16, literal(-24)))
        CFI VB load(1, XDATA, add(CFA_XSP16, literal(-23)))
        CFI V0 load(1, XDATA, add(CFA_XSP16, literal(-22)))
        CFI V1 load(1, XDATA, add(CFA_XSP16, literal(-21)))
        CFI V2 load(1, XDATA, add(CFA_XSP16, literal(-20)))
        CFI V3 load(1, XDATA, add(CFA_XSP16, literal(-19)))
        CFI V4 load(1, XDATA, add(CFA_XSP16, literal(-18)))
        CFI V5 load(1, XDATA, add(CFA_XSP16, literal(-17)))
        CFI V6 load(1, XDATA, add(CFA_XSP16, literal(-16)))
        CFI V7 load(1, XDATA, add(CFA_XSP16, literal(-15)))
        CFI V8 load(1, XDATA, add(CFA_XSP16, literal(-14)))
        CFI V9 load(1, XDATA, add(CFA_XSP16, literal(-13)))
        CFI V10 load(1, XDATA, add(CFA_XSP16, literal(-12)))
        CFI V11 load(1, XDATA, add(CFA_XSP16, literal(-11)))
        CFI V12 load(1, XDATA, add(CFA_XSP16, literal(-10)))
        CFI V13 load(1, XDATA, add(CFA_XSP16, literal(-9)))
        CFI V14 load(1, XDATA, add(CFA_XSP16, literal(-8)))
        CFI V15 load(1, XDATA, add(CFA_XSP16, literal(-7)))
        CFI R7 load(1, XDATA, add(CFA_XSP16, literal(-6)))
        CFI ?RET_LOW load(1, XDATA, add(CFA_XSP16, literal(-5)))
        CFI ?RET_HIGH load(1, XDATA, add(CFA_XSP16, literal(-4)))
        CFI ?BRET_EXT load(1, XDATA, add(CFA_XSP16, literal(-3)))
        CFI DPL0 load(1, XDATA, add(CFA_XSP16, literal(-2)))
        CFI DPH0 load(1, XDATA, add(CFA_XSP16, literal(-1)))
        CFI CFA_SP SP+0
        CFI CFA_XSP16 add(XSP16, 25)
        CFI Block cfiCond135 Using cfiCommon0
        CFI (cfiCond135) NoFunction
        CFI (cfiCond135) Conditional ??CrossCallReturnLabel_72, ??CrossCallReturnLabel_1
        CFI (cfiCond135) R6 load(1, XDATA, add(CFA_XSP16, literal(-24)))
        CFI (cfiCond135) VB load(1, XDATA, add(CFA_XSP16, literal(-23)))
        CFI (cfiCond135) V0 load(1, XDATA, add(CFA_XSP16, literal(-22)))
        CFI (cfiCond135) V1 load(1, XDATA, add(CFA_XSP16, literal(-21)))
        CFI (cfiCond135) V2 load(1, XDATA, add(CFA_XSP16, literal(-20)))
        CFI (cfiCond135) V3 load(1, XDATA, add(CFA_XSP16, literal(-19)))
        CFI (cfiCond135) V4 load(1, XDATA, add(CFA_XSP16, literal(-18)))
        CFI (cfiCond135) V5 load(1, XDATA, add(CFA_XSP16, literal(-17)))
        CFI (cfiCond135) V6 load(1, XDATA, add(CFA_XSP16, literal(-16)))
        CFI (cfiCond135) V7 load(1, XDATA, add(CFA_XSP16, literal(-15)))
        CFI (cfiCond135) V8 load(1, XDATA, add(CFA_XSP16, literal(-14)))
        CFI (cfiCond135) V9 load(1, XDATA, add(CFA_XSP16, literal(-13)))
        CFI (cfiCond135) V10 load(1, XDATA, add(CFA_XSP16, literal(-12)))
        CFI (cfiCond135) V11 load(1, XDATA, add(CFA_XSP16, literal(-11)))
        CFI (cfiCond135) V12 load(1, XDATA, add(CFA_XSP16, literal(-10)))
        CFI (cfiCond135) V13 load(1, XDATA, add(CFA_XSP16, literal(-9)))
        CFI (cfiCond135) V14 load(1, XDATA, add(CFA_XSP16, literal(-8)))
        CFI (cfiCond135) V15 load(1, XDATA, add(CFA_XSP16, literal(-7)))
        CFI (cfiCond135) R7 load(1, XDATA, add(CFA_XSP16, literal(-6)))
        CFI (cfiCond135) ?RET_LOW load(1, XDATA, add(CFA_XSP16, literal(-5)))
        CFI (cfiCond135) ?RET_HIGH load(1, XDATA, add(CFA_XSP16, literal(-4)))
        CFI (cfiCond135) ?BRET_EXT load(1, XDATA, add(CFA_XSP16, literal(-3)))
        CFI (cfiCond135) DPL0 load(1, XDATA, add(CFA_XSP16, literal(-2)))
        CFI (cfiCond135) DPH0 load(1, XDATA, add(CFA_XSP16, literal(-1)))
        CFI (cfiCond135) CFA_SP SP+0
        CFI (cfiCond135) CFA_XSP16 add(XSP16, 25)
        CFI Block cfiCond136 Using cfiCommon0
        CFI (cfiCond136) NoFunction
        CFI (cfiCond136) Conditional ??CrossCallReturnLabel_73, ??CrossCallReturnLabel_67
        CFI (cfiCond136) R6 load(1, XDATA, add(CFA_XSP16, literal(-24)))
        CFI (cfiCond136) VB load(1, XDATA, add(CFA_XSP16, literal(-23)))
        CFI (cfiCond136) V0 load(1, XDATA, add(CFA_XSP16, literal(-22)))
        CFI (cfiCond136) V1 load(1, XDATA, add(CFA_XSP16, literal(-21)))
        CFI (cfiCond136) V2 load(1, XDATA, add(CFA_XSP16, literal(-20)))
        CFI (cfiCond136) V3 load(1, XDATA, add(CFA_XSP16, literal(-19)))
        CFI (cfiCond136) V4 load(1, XDATA, add(CFA_XSP16, literal(-18)))
        CFI (cfiCond136) V5 load(1, XDATA, add(CFA_XSP16, literal(-17)))
        CFI (cfiCond136) V6 load(1, XDATA, add(CFA_XSP16, literal(-16)))
        CFI (cfiCond136) V7 load(1, XDATA, add(CFA_XSP16, literal(-15)))
        CFI (cfiCond136) V8 load(1, XDATA, add(CFA_XSP16, literal(-14)))
        CFI (cfiCond136) V9 load(1, XDATA, add(CFA_XSP16, literal(-13)))
        CFI (cfiCond136) V10 load(1, XDATA, add(CFA_XSP16, literal(-12)))
        CFI (cfiCond136) V11 load(1, XDATA, add(CFA_XSP16, literal(-11)))
        CFI (cfiCond136) V12 load(1, XDATA, add(CFA_XSP16, literal(-10)))
        CFI (cfiCond136) V13 load(1, XDATA, add(CFA_XSP16, literal(-9)))
        CFI (cfiCond136) V14 load(1, XDATA, add(CFA_XSP16, literal(-8)))
        CFI (cfiCond136) V15 load(1, XDATA, add(CFA_XSP16, literal(-7)))
        CFI (cfiCond136) R7 load(1, XDATA, add(CFA_XSP16, literal(-6)))
        CFI (cfiCond136) ?RET_LOW load(1, XDATA, add(CFA_XSP16, literal(-5)))
        CFI (cfiCond136) ?RET_HIGH load(1, XDATA, add(CFA_XSP16, literal(-4)))
        CFI (cfiCond136) ?BRET_EXT load(1, XDATA, add(CFA_XSP16, literal(-3)))
        CFI (cfiCond136) DPL0 load(1, XDATA, add(CFA_XSP16, literal(-2)))
        CFI (cfiCond136) DPH0 load(1, XDATA, add(CFA_XSP16, literal(-1)))
        CFI (cfiCond136) CFA_SP SP+0
        CFI (cfiCond136) CFA_XSP16 add(XSP16, 25)
        CFI Block cfiCond137 Using cfiCommon0
        CFI (cfiCond137) NoFunction
        CFI (cfiCond137) Conditional ??CrossCallReturnLabel_73, ??CrossCallReturnLabel_68
        CFI (cfiCond137) R6 load(1, XDATA, add(CFA_XSP16, literal(-24)))
        CFI (cfiCond137) VB load(1, XDATA, add(CFA_XSP16, literal(-23)))
        CFI (cfiCond137) V0 load(1, XDATA, add(CFA_XSP16, literal(-22)))
        CFI (cfiCond137) V1 load(1, XDATA, add(CFA_XSP16, literal(-21)))
        CFI (cfiCond137) V2 load(1, XDATA, add(CFA_XSP16, literal(-20)))
        CFI (cfiCond137) V3 load(1, XDATA, add(CFA_XSP16, literal(-19)))
        CFI (cfiCond137) V4 load(1, XDATA, add(CFA_XSP16, literal(-18)))
        CFI (cfiCond137) V5 load(1, XDATA, add(CFA_XSP16, literal(-17)))
        CFI (cfiCond137) V6 load(1, XDATA, add(CFA_XSP16, literal(-16)))
        CFI (cfiCond137) V7 load(1, XDATA, add(CFA_XSP16, literal(-15)))
        CFI (cfiCond137) V8 load(1, XDATA, add(CFA_XSP16, literal(-14)))
        CFI (cfiCond137) V9 load(1, XDATA, add(CFA_XSP16, literal(-13)))
        CFI (cfiCond137) V10 load(1, XDATA, add(CFA_XSP16, literal(-12)))
        CFI (cfiCond137) V11 load(1, XDATA, add(CFA_XSP16, literal(-11)))
        CFI (cfiCond137) V12 load(1, XDATA, add(CFA_XSP16, literal(-10)))
        CFI (cfiCond137) V13 load(1, XDATA, add(CFA_XSP16, literal(-9)))
        CFI (cfiCond137) V14 load(1, XDATA, add(CFA_XSP16, literal(-8)))
        CFI (cfiCond137) V15 load(1, XDATA, add(CFA_XSP16, literal(-7)))
        CFI (cfiCond137) R7 load(1, XDATA, add(CFA_XSP16, literal(-6)))
        CFI (cfiCond137) ?RET_LOW load(1, XDATA, add(CFA_XSP16, literal(-5)))
        CFI (cfiCond137) ?RET_HIGH load(1, XDATA, add(CFA_XSP16, literal(-4)))
        CFI (cfiCond137) ?BRET_EXT load(1, XDATA, add(CFA_XSP16, literal(-3)))
        CFI (cfiCond137) DPL0 load(1, XDATA, add(CFA_XSP16, literal(-2)))
        CFI (cfiCond137) DPH0 load(1, XDATA, add(CFA_XSP16, literal(-1)))
        CFI (cfiCond137) CFA_SP SP+0
        CFI (cfiCond137) CFA_XSP16 add(XSP16, 25)
        CFI Block cfiCond138 Using cfiCommon0
        CFI (cfiCond138) NoFunction
        CFI (cfiCond138) Conditional ??CrossCallReturnLabel_73, ??CrossCallReturnLabel_69
        CFI (cfiCond138) R6 load(1, XDATA, add(CFA_XSP16, literal(-24)))
        CFI (cfiCond138) VB load(1, XDATA, add(CFA_XSP16, literal(-23)))
        CFI (cfiCond138) V0 load(1, XDATA, add(CFA_XSP16, literal(-22)))
        CFI (cfiCond138) V1 load(1, XDATA, add(CFA_XSP16, literal(-21)))
        CFI (cfiCond138) V2 load(1, XDATA, add(CFA_XSP16, literal(-20)))
        CFI (cfiCond138) V3 load(1, XDATA, add(CFA_XSP16, literal(-19)))
        CFI (cfiCond138) V4 load(1, XDATA, add(CFA_XSP16, literal(-18)))
        CFI (cfiCond138) V5 load(1, XDATA, add(CFA_XSP16, literal(-17)))
        CFI (cfiCond138) V6 load(1, XDATA, add(CFA_XSP16, literal(-16)))
        CFI (cfiCond138) V7 load(1, XDATA, add(CFA_XSP16, literal(-15)))
        CFI (cfiCond138) V8 load(1, XDATA, add(CFA_XSP16, literal(-14)))
        CFI (cfiCond138) V9 load(1, XDATA, add(CFA_XSP16, literal(-13)))
        CFI (cfiCond138) V10 load(1, XDATA, add(CFA_XSP16, literal(-12)))
        CFI (cfiCond138) V11 load(1, XDATA, add(CFA_XSP16, literal(-11)))
        CFI (cfiCond138) V12 load(1, XDATA, add(CFA_XSP16, literal(-10)))
        CFI (cfiCond138) V13 load(1, XDATA, add(CFA_XSP16, literal(-9)))
        CFI (cfiCond138) V14 load(1, XDATA, add(CFA_XSP16, literal(-8)))
        CFI (cfiCond138) V15 load(1, XDATA, add(CFA_XSP16, literal(-7)))
        CFI (cfiCond138) R7 load(1, XDATA, add(CFA_XSP16, literal(-6)))
        CFI (cfiCond138) ?RET_LOW load(1, XDATA, add(CFA_XSP16, literal(-5)))
        CFI (cfiCond138) ?RET_HIGH load(1, XDATA, add(CFA_XSP16, literal(-4)))
        CFI (cfiCond138) ?BRET_EXT load(1, XDATA, add(CFA_XSP16, literal(-3)))
        CFI (cfiCond138) DPL0 load(1, XDATA, add(CFA_XSP16, literal(-2)))
        CFI (cfiCond138) DPH0 load(1, XDATA, add(CFA_XSP16, literal(-1)))
        CFI (cfiCond138) CFA_SP SP+0
        CFI (cfiCond138) CFA_XSP16 add(XSP16, 25)
        CFI Block cfiCond139 Using cfiCommon0
        CFI (cfiCond139) NoFunction
        CFI (cfiCond139) Conditional ??CrossCallReturnLabel_73, ??CrossCallReturnLabel_70
        CFI (cfiCond139) R6 load(1, XDATA, add(CFA_XSP16, literal(-24)))
        CFI (cfiCond139) VB load(1, XDATA, add(CFA_XSP16, literal(-23)))
        CFI (cfiCond139) V0 load(1, XDATA, add(CFA_XSP16, literal(-22)))
        CFI (cfiCond139) V1 load(1, XDATA, add(CFA_XSP16, literal(-21)))
        CFI (cfiCond139) V2 load(1, XDATA, add(CFA_XSP16, literal(-20)))
        CFI (cfiCond139) V3 load(1, XDATA, add(CFA_XSP16, literal(-19)))
        CFI (cfiCond139) V4 load(1, XDATA, add(CFA_XSP16, literal(-18)))
        CFI (cfiCond139) V5 load(1, XDATA, add(CFA_XSP16, literal(-17)))
        CFI (cfiCond139) V6 load(1, XDATA, add(CFA_XSP16, literal(-16)))
        CFI (cfiCond139) V7 load(1, XDATA, add(CFA_XSP16, literal(-15)))
        CFI (cfiCond139) V8 load(1, XDATA, add(CFA_XSP16, literal(-14)))
        CFI (cfiCond139) V9 load(1, XDATA, add(CFA_XSP16, literal(-13)))
        CFI (cfiCond139) V10 load(1, XDATA, add(CFA_XSP16, literal(-12)))
        CFI (cfiCond139) V11 load(1, XDATA, add(CFA_XSP16, literal(-11)))
        CFI (cfiCond139) V12 load(1, XDATA, add(CFA_XSP16, literal(-10)))
        CFI (cfiCond139) V13 load(1, XDATA, add(CFA_XSP16, literal(-9)))
        CFI (cfiCond139) V14 load(1, XDATA, add(CFA_XSP16, literal(-8)))
        CFI (cfiCond139) V15 load(1, XDATA, add(CFA_XSP16, literal(-7)))
        CFI (cfiCond139) R7 load(1, XDATA, add(CFA_XSP16, literal(-6)))
        CFI (cfiCond139) ?RET_LOW load(1, XDATA, add(CFA_XSP16, literal(-5)))
        CFI (cfiCond139) ?RET_HIGH load(1, XDATA, add(CFA_XSP16, literal(-4)))
        CFI (cfiCond139) ?BRET_EXT load(1, XDATA, add(CFA_XSP16, literal(-3)))
        CFI (cfiCond139) DPL0 load(1, XDATA, add(CFA_XSP16, literal(-2)))
        CFI (cfiCond139) DPH0 load(1, XDATA, add(CFA_XSP16, literal(-1)))
        CFI (cfiCond139) CFA_SP SP+0
        CFI (cfiCond139) CFA_XSP16 add(XSP16, 25)
        CFI Block cfiCond140 Using cfiCommon0
        CFI (cfiCond140) NoFunction
        CFI (cfiCond140) Conditional ??CrossCallReturnLabel_73, ??CrossCallReturnLabel_71
        CFI (cfiCond140) R6 load(1, XDATA, add(CFA_XSP16, literal(-24)))
        CFI (cfiCond140) VB load(1, XDATA, add(CFA_XSP16, literal(-23)))
        CFI (cfiCond140) V0 load(1, XDATA, add(CFA_XSP16, literal(-22)))
        CFI (cfiCond140) V1 load(1, XDATA, add(CFA_XSP16, literal(-21)))
        CFI (cfiCond140) V2 load(1, XDATA, add(CFA_XSP16, literal(-20)))
        CFI (cfiCond140) V3 load(1, XDATA, add(CFA_XSP16, literal(-19)))
        CFI (cfiCond140) V4 load(1, XDATA, add(CFA_XSP16, literal(-18)))
        CFI (cfiCond140) V5 load(1, XDATA, add(CFA_XSP16, literal(-17)))
        CFI (cfiCond140) V6 load(1, XDATA, add(CFA_XSP16, literal(-16)))
        CFI (cfiCond140) V7 load(1, XDATA, add(CFA_XSP16, literal(-15)))
        CFI (cfiCond140) V8 load(1, XDATA, add(CFA_XSP16, literal(-14)))
        CFI (cfiCond140) V9 load(1, XDATA, add(CFA_XSP16, literal(-13)))
        CFI (cfiCond140) V10 load(1, XDATA, add(CFA_XSP16, literal(-12)))
        CFI (cfiCond140) V11 load(1, XDATA, add(CFA_XSP16, literal(-11)))
        CFI (cfiCond140) V12 load(1, XDATA, add(CFA_XSP16, literal(-10)))
        CFI (cfiCond140) V13 load(1, XDATA, add(CFA_XSP16, literal(-9)))
        CFI (cfiCond140) V14 load(1, XDATA, add(CFA_XSP16, literal(-8)))
        CFI (cfiCond140) V15 load(1, XDATA, add(CFA_XSP16, literal(-7)))
        CFI (cfiCond140) R7 load(1, XDATA, add(CFA_XSP16, literal(-6)))
        CFI (cfiCond140) ?RET_LOW load(1, XDATA, add(CFA_XSP16, literal(-5)))
        CFI (cfiCond140) ?RET_HIGH load(1, XDATA, add(CFA_XSP16, literal(-4)))
        CFI (cfiCond140) ?BRET_EXT load(1, XDATA, add(CFA_XSP16, literal(-3)))
        CFI (cfiCond140) DPL0 load(1, XDATA, add(CFA_XSP16, literal(-2)))
        CFI (cfiCond140) DPH0 load(1, XDATA, add(CFA_XSP16, literal(-1)))
        CFI (cfiCond140) CFA_SP SP+0
        CFI (cfiCond140) CFA_XSP16 add(XSP16, 25)
        CFI Block cfiPicker141 Using cfiCommon1
        CFI (cfiPicker141) NoFunction
        CFI (cfiPicker141) Picker
        LCALL   ?Subroutine35 & 0xFFFF
??CrossCallReturnLabel_75:
        INC     DPTR
        MOV     ?V0 + 2,DPL
        MOV     ?V0 + 3,DPH
        RET
        CFI EndBlock cfiCond134
        CFI EndBlock cfiCond135
        CFI EndBlock cfiCond136
        CFI EndBlock cfiCond137
        CFI EndBlock cfiCond138
        CFI EndBlock cfiCond139
        CFI EndBlock cfiCond140
        CFI EndBlock cfiPicker141

        RSEG BANKED_CODE:CODE:NOROOT(0)
?Subroutine2:
        CFI Block cfiCond142 Using cfiCommon0
        CFI NoFunction
        CFI Conditional ??CrossCallReturnLabel_67
        CFI R6 load(1, XDATA, add(CFA_XSP16, literal(-24)))
        CFI VB load(1, XDATA, add(CFA_XSP16, literal(-23)))
        CFI V0 load(1, XDATA, add(CFA_XSP16, literal(-22)))
        CFI V1 load(1, XDATA, add(CFA_XSP16, literal(-21)))
        CFI V2 load(1, XDATA, add(CFA_XSP16, literal(-20)))
        CFI V3 load(1, XDATA, add(CFA_XSP16, literal(-19)))
        CFI V4 load(1, XDATA, add(CFA_XSP16, literal(-18)))
        CFI V5 load(1, XDATA, add(CFA_XSP16, literal(-17)))
        CFI V6 load(1, XDATA, add(CFA_XSP16, literal(-16)))
        CFI V7 load(1, XDATA, add(CFA_XSP16, literal(-15)))
        CFI V8 load(1, XDATA, add(CFA_XSP16, literal(-14)))
        CFI V9 load(1, XDATA, add(CFA_XSP16, literal(-13)))
        CFI V10 load(1, XDATA, add(CFA_XSP16, literal(-12)))
        CFI V11 load(1, XDATA, add(CFA_XSP16, literal(-11)))
        CFI V12 load(1, XDATA, add(CFA_XSP16, literal(-10)))
        CFI V13 load(1, XDATA, add(CFA_XSP16, literal(-9)))
        CFI V14 load(1, XDATA, add(CFA_XSP16, literal(-8)))
        CFI V15 load(1, XDATA, add(CFA_XSP16, literal(-7)))
        CFI R7 load(1, XDATA, add(CFA_XSP16, literal(-6)))
        CFI ?RET_LOW load(1, XDATA, add(CFA_XSP16, literal(-5)))
        CFI ?RET_HIGH load(1, XDATA, add(CFA_XSP16, literal(-4)))
        CFI ?BRET_EXT load(1, XDATA, add(CFA_XSP16, literal(-3)))
        CFI DPL0 load(1, XDATA, add(CFA_XSP16, literal(-2)))
        CFI DPH0 load(1, XDATA, add(CFA_XSP16, literal(-1)))
        CFI CFA_SP SP+0
        CFI CFA_XSP16 add(XSP16, 25)
        CFI Block cfiCond143 Using cfiCommon0
        CFI (cfiCond143) NoFunction
        CFI (cfiCond143) Conditional ??CrossCallReturnLabel_68
        CFI (cfiCond143) R6 load(1, XDATA, add(CFA_XSP16, literal(-24)))
        CFI (cfiCond143) VB load(1, XDATA, add(CFA_XSP16, literal(-23)))
        CFI (cfiCond143) V0 load(1, XDATA, add(CFA_XSP16, literal(-22)))
        CFI (cfiCond143) V1 load(1, XDATA, add(CFA_XSP16, literal(-21)))
        CFI (cfiCond143) V2 load(1, XDATA, add(CFA_XSP16, literal(-20)))
        CFI (cfiCond143) V3 load(1, XDATA, add(CFA_XSP16, literal(-19)))
        CFI (cfiCond143) V4 load(1, XDATA, add(CFA_XSP16, literal(-18)))
        CFI (cfiCond143) V5 load(1, XDATA, add(CFA_XSP16, literal(-17)))
        CFI (cfiCond143) V6 load(1, XDATA, add(CFA_XSP16, literal(-16)))
        CFI (cfiCond143) V7 load(1, XDATA, add(CFA_XSP16, literal(-15)))
        CFI (cfiCond143) V8 load(1, XDATA, add(CFA_XSP16, literal(-14)))
        CFI (cfiCond143) V9 load(1, XDATA, add(CFA_XSP16, literal(-13)))
        CFI (cfiCond143) V10 load(1, XDATA, add(CFA_XSP16, literal(-12)))
        CFI (cfiCond143) V11 load(1, XDATA, add(CFA_XSP16, literal(-11)))
        CFI (cfiCond143) V12 load(1, XDATA, add(CFA_XSP16, literal(-10)))
        CFI (cfiCond143) V13 load(1, XDATA, add(CFA_XSP16, literal(-9)))
        CFI (cfiCond143) V14 load(1, XDATA, add(CFA_XSP16, literal(-8)))
        CFI (cfiCond143) V15 load(1, XDATA, add(CFA_XSP16, literal(-7)))
        CFI (cfiCond143) R7 load(1, XDATA, add(CFA_XSP16, literal(-6)))
        CFI (cfiCond143) ?RET_LOW load(1, XDATA, add(CFA_XSP16, literal(-5)))
        CFI (cfiCond143) ?RET_HIGH load(1, XDATA, add(CFA_XSP16, literal(-4)))
        CFI (cfiCond143) ?BRET_EXT load(1, XDATA, add(CFA_XSP16, literal(-3)))
        CFI (cfiCond143) DPL0 load(1, XDATA, add(CFA_XSP16, literal(-2)))
        CFI (cfiCond143) DPH0 load(1, XDATA, add(CFA_XSP16, literal(-1)))
        CFI (cfiCond143) CFA_SP SP+0
        CFI (cfiCond143) CFA_XSP16 add(XSP16, 25)
        CFI Block cfiCond144 Using cfiCommon0
        CFI (cfiCond144) NoFunction
        CFI (cfiCond144) Conditional ??CrossCallReturnLabel_69
        CFI (cfiCond144) R6 load(1, XDATA, add(CFA_XSP16, literal(-24)))
        CFI (cfiCond144) VB load(1, XDATA, add(CFA_XSP16, literal(-23)))
        CFI (cfiCond144) V0 load(1, XDATA, add(CFA_XSP16, literal(-22)))
        CFI (cfiCond144) V1 load(1, XDATA, add(CFA_XSP16, literal(-21)))
        CFI (cfiCond144) V2 load(1, XDATA, add(CFA_XSP16, literal(-20)))
        CFI (cfiCond144) V3 load(1, XDATA, add(CFA_XSP16, literal(-19)))
        CFI (cfiCond144) V4 load(1, XDATA, add(CFA_XSP16, literal(-18)))
        CFI (cfiCond144) V5 load(1, XDATA, add(CFA_XSP16, literal(-17)))
        CFI (cfiCond144) V6 load(1, XDATA, add(CFA_XSP16, literal(-16)))
        CFI (cfiCond144) V7 load(1, XDATA, add(CFA_XSP16, literal(-15)))
        CFI (cfiCond144) V8 load(1, XDATA, add(CFA_XSP16, literal(-14)))
        CFI (cfiCond144) V9 load(1, XDATA, add(CFA_XSP16, literal(-13)))
        CFI (cfiCond144) V10 load(1, XDATA, add(CFA_XSP16, literal(-12)))
        CFI (cfiCond144) V11 load(1, XDATA, add(CFA_XSP16, literal(-11)))
        CFI (cfiCond144) V12 load(1, XDATA, add(CFA_XSP16, literal(-10)))
        CFI (cfiCond144) V13 load(1, XDATA, add(CFA_XSP16, literal(-9)))
        CFI (cfiCond144) V14 load(1, XDATA, add(CFA_XSP16, literal(-8)))
        CFI (cfiCond144) V15 load(1, XDATA, add(CFA_XSP16, literal(-7)))
        CFI (cfiCond144) R7 load(1, XDATA, add(CFA_XSP16, literal(-6)))
        CFI (cfiCond144) ?RET_LOW load(1, XDATA, add(CFA_XSP16, literal(-5)))
        CFI (cfiCond144) ?RET_HIGH load(1, XDATA, add(CFA_XSP16, literal(-4)))
        CFI (cfiCond144) ?BRET_EXT load(1, XDATA, add(CFA_XSP16, literal(-3)))
        CFI (cfiCond144) DPL0 load(1, XDATA, add(CFA_XSP16, literal(-2)))
        CFI (cfiCond144) DPH0 load(1, XDATA, add(CFA_XSP16, literal(-1)))
        CFI (cfiCond144) CFA_SP SP+0
        CFI (cfiCond144) CFA_XSP16 add(XSP16, 25)
        CFI Block cfiCond145 Using cfiCommon0
        CFI (cfiCond145) NoFunction
        CFI (cfiCond145) Conditional ??CrossCallReturnLabel_70
        CFI (cfiCond145) R6 load(1, XDATA, add(CFA_XSP16, literal(-24)))
        CFI (cfiCond145) VB load(1, XDATA, add(CFA_XSP16, literal(-23)))
        CFI (cfiCond145) V0 load(1, XDATA, add(CFA_XSP16, literal(-22)))
        CFI (cfiCond145) V1 load(1, XDATA, add(CFA_XSP16, literal(-21)))
        CFI (cfiCond145) V2 load(1, XDATA, add(CFA_XSP16, literal(-20)))
        CFI (cfiCond145) V3 load(1, XDATA, add(CFA_XSP16, literal(-19)))
        CFI (cfiCond145) V4 load(1, XDATA, add(CFA_XSP16, literal(-18)))
        CFI (cfiCond145) V5 load(1, XDATA, add(CFA_XSP16, literal(-17)))
        CFI (cfiCond145) V6 load(1, XDATA, add(CFA_XSP16, literal(-16)))
        CFI (cfiCond145) V7 load(1, XDATA, add(CFA_XSP16, literal(-15)))
        CFI (cfiCond145) V8 load(1, XDATA, add(CFA_XSP16, literal(-14)))
        CFI (cfiCond145) V9 load(1, XDATA, add(CFA_XSP16, literal(-13)))
        CFI (cfiCond145) V10 load(1, XDATA, add(CFA_XSP16, literal(-12)))
        CFI (cfiCond145) V11 load(1, XDATA, add(CFA_XSP16, literal(-11)))
        CFI (cfiCond145) V12 load(1, XDATA, add(CFA_XSP16, literal(-10)))
        CFI (cfiCond145) V13 load(1, XDATA, add(CFA_XSP16, literal(-9)))
        CFI (cfiCond145) V14 load(1, XDATA, add(CFA_XSP16, literal(-8)))
        CFI (cfiCond145) V15 load(1, XDATA, add(CFA_XSP16, literal(-7)))
        CFI (cfiCond145) R7 load(1, XDATA, add(CFA_XSP16, literal(-6)))
        CFI (cfiCond145) ?RET_LOW load(1, XDATA, add(CFA_XSP16, literal(-5)))
        CFI (cfiCond145) ?RET_HIGH load(1, XDATA, add(CFA_XSP16, literal(-4)))
        CFI (cfiCond145) ?BRET_EXT load(1, XDATA, add(CFA_XSP16, literal(-3)))
        CFI (cfiCond145) DPL0 load(1, XDATA, add(CFA_XSP16, literal(-2)))
        CFI (cfiCond145) DPH0 load(1, XDATA, add(CFA_XSP16, literal(-1)))
        CFI (cfiCond145) CFA_SP SP+0
        CFI (cfiCond145) CFA_XSP16 add(XSP16, 25)
        CFI Block cfiPicker146 Using cfiCommon1
        CFI (cfiPicker146) NoFunction
        CFI (cfiPicker146) Picker
        MOV     DPL,A
        MOV     A,?V0 + 9
        ADDC    A,#0x0
        MOV     DPH,A
        CFI EndBlock cfiCond142
        CFI EndBlock cfiCond143
        CFI EndBlock cfiCond144
        CFI EndBlock cfiCond145
        CFI EndBlock cfiPicker146
        REQUIRE ??Subroutine41_0
        ; // Fall through to label ??Subroutine41_0

        RSEG BANKED_CODE:CODE:NOROOT(0)
??Subroutine41_0:
        CFI Block cfiCond147 Using cfiCommon0
        CFI NoFunction
        CFI Conditional ??CrossCallReturnLabel_71
        CFI R6 load(1, XDATA, add(CFA_XSP16, literal(-24)))
        CFI VB load(1, XDATA, add(CFA_XSP16, literal(-23)))
        CFI V0 load(1, XDATA, add(CFA_XSP16, literal(-22)))
        CFI V1 load(1, XDATA, add(CFA_XSP16, literal(-21)))
        CFI V2 load(1, XDATA, add(CFA_XSP16, literal(-20)))
        CFI V3 load(1, XDATA, add(CFA_XSP16, literal(-19)))
        CFI V4 load(1, XDATA, add(CFA_XSP16, literal(-18)))
        CFI V5 load(1, XDATA, add(CFA_XSP16, literal(-17)))
        CFI V6 load(1, XDATA, add(CFA_XSP16, literal(-16)))
        CFI V7 load(1, XDATA, add(CFA_XSP16, literal(-15)))
        CFI V8 load(1, XDATA, add(CFA_XSP16, literal(-14)))
        CFI V9 load(1, XDATA, add(CFA_XSP16, literal(-13)))
        CFI V10 load(1, XDATA, add(CFA_XSP16, literal(-12)))
        CFI V11 load(1, XDATA, add(CFA_XSP16, literal(-11)))
        CFI V12 load(1, XDATA, add(CFA_XSP16, literal(-10)))
        CFI V13 load(1, XDATA, add(CFA_XSP16, literal(-9)))
        CFI V14 load(1, XDATA, add(CFA_XSP16, literal(-8)))
        CFI V15 load(1, XDATA, add(CFA_XSP16, literal(-7)))
        CFI R7 load(1, XDATA, add(CFA_XSP16, literal(-6)))
        CFI ?RET_LOW load(1, XDATA, add(CFA_XSP16, literal(-5)))
        CFI ?RET_HIGH load(1, XDATA, add(CFA_XSP16, literal(-4)))
        CFI ?BRET_EXT load(1, XDATA, add(CFA_XSP16, literal(-3)))
        CFI DPL0 load(1, XDATA, add(CFA_XSP16, literal(-2)))
        CFI DPH0 load(1, XDATA, add(CFA_XSP16, literal(-1)))
        CFI CFA_SP SP+0
        CFI CFA_XSP16 add(XSP16, 25)
        CFI Block cfiCond148 Using cfiCommon0
        CFI (cfiCond148) NoFunction
        CFI (cfiCond148) Conditional ??CrossCallReturnLabel_67
        CFI (cfiCond148) R6 load(1, XDATA, add(CFA_XSP16, literal(-24)))
        CFI (cfiCond148) VB load(1, XDATA, add(CFA_XSP16, literal(-23)))
        CFI (cfiCond148) V0 load(1, XDATA, add(CFA_XSP16, literal(-22)))
        CFI (cfiCond148) V1 load(1, XDATA, add(CFA_XSP16, literal(-21)))
        CFI (cfiCond148) V2 load(1, XDATA, add(CFA_XSP16, literal(-20)))
        CFI (cfiCond148) V3 load(1, XDATA, add(CFA_XSP16, literal(-19)))
        CFI (cfiCond148) V4 load(1, XDATA, add(CFA_XSP16, literal(-18)))
        CFI (cfiCond148) V5 load(1, XDATA, add(CFA_XSP16, literal(-17)))
        CFI (cfiCond148) V6 load(1, XDATA, add(CFA_XSP16, literal(-16)))
        CFI (cfiCond148) V7 load(1, XDATA, add(CFA_XSP16, literal(-15)))
        CFI (cfiCond148) V8 load(1, XDATA, add(CFA_XSP16, literal(-14)))
        CFI (cfiCond148) V9 load(1, XDATA, add(CFA_XSP16, literal(-13)))
        CFI (cfiCond148) V10 load(1, XDATA, add(CFA_XSP16, literal(-12)))
        CFI (cfiCond148) V11 load(1, XDATA, add(CFA_XSP16, literal(-11)))
        CFI (cfiCond148) V12 load(1, XDATA, add(CFA_XSP16, literal(-10)))
        CFI (cfiCond148) V13 load(1, XDATA, add(CFA_XSP16, literal(-9)))
        CFI (cfiCond148) V14 load(1, XDATA, add(CFA_XSP16, literal(-8)))
        CFI (cfiCond148) V15 load(1, XDATA, add(CFA_XSP16, literal(-7)))
        CFI (cfiCond148) R7 load(1, XDATA, add(CFA_XSP16, literal(-6)))
        CFI (cfiCond148) ?RET_LOW load(1, XDATA, add(CFA_XSP16, literal(-5)))
        CFI (cfiCond148) ?RET_HIGH load(1, XDATA, add(CFA_XSP16, literal(-4)))
        CFI (cfiCond148) ?BRET_EXT load(1, XDATA, add(CFA_XSP16, literal(-3)))
        CFI (cfiCond148) DPL0 load(1, XDATA, add(CFA_XSP16, literal(-2)))
        CFI (cfiCond148) DPH0 load(1, XDATA, add(CFA_XSP16, literal(-1)))
        CFI (cfiCond148) CFA_SP SP+0
        CFI (cfiCond148) CFA_XSP16 add(XSP16, 25)
        CFI Block cfiCond149 Using cfiCommon0
        CFI (cfiCond149) NoFunction
        CFI (cfiCond149) Conditional ??CrossCallReturnLabel_68
        CFI (cfiCond149) R6 load(1, XDATA, add(CFA_XSP16, literal(-24)))
        CFI (cfiCond149) VB load(1, XDATA, add(CFA_XSP16, literal(-23)))
        CFI (cfiCond149) V0 load(1, XDATA, add(CFA_XSP16, literal(-22)))
        CFI (cfiCond149) V1 load(1, XDATA, add(CFA_XSP16, literal(-21)))
        CFI (cfiCond149) V2 load(1, XDATA, add(CFA_XSP16, literal(-20)))
        CFI (cfiCond149) V3 load(1, XDATA, add(CFA_XSP16, literal(-19)))
        CFI (cfiCond149) V4 load(1, XDATA, add(CFA_XSP16, literal(-18)))
        CFI (cfiCond149) V5 load(1, XDATA, add(CFA_XSP16, literal(-17)))
        CFI (cfiCond149) V6 load(1, XDATA, add(CFA_XSP16, literal(-16)))
        CFI (cfiCond149) V7 load(1, XDATA, add(CFA_XSP16, literal(-15)))
        CFI (cfiCond149) V8 load(1, XDATA, add(CFA_XSP16, literal(-14)))
        CFI (cfiCond149) V9 load(1, XDATA, add(CFA_XSP16, literal(-13)))
        CFI (cfiCond149) V10 load(1, XDATA, add(CFA_XSP16, literal(-12)))
        CFI (cfiCond149) V11 load(1, XDATA, add(CFA_XSP16, literal(-11)))
        CFI (cfiCond149) V12 load(1, XDATA, add(CFA_XSP16, literal(-10)))
        CFI (cfiCond149) V13 load(1, XDATA, add(CFA_XSP16, literal(-9)))
        CFI (cfiCond149) V14 load(1, XDATA, add(CFA_XSP16, literal(-8)))
        CFI (cfiCond149) V15 load(1, XDATA, add(CFA_XSP16, literal(-7)))
        CFI (cfiCond149) R7 load(1, XDATA, add(CFA_XSP16, literal(-6)))
        CFI (cfiCond149) ?RET_LOW load(1, XDATA, add(CFA_XSP16, literal(-5)))
        CFI (cfiCond149) ?RET_HIGH load(1, XDATA, add(CFA_XSP16, literal(-4)))
        CFI (cfiCond149) ?BRET_EXT load(1, XDATA, add(CFA_XSP16, literal(-3)))
        CFI (cfiCond149) DPL0 load(1, XDATA, add(CFA_XSP16, literal(-2)))
        CFI (cfiCond149) DPH0 load(1, XDATA, add(CFA_XSP16, literal(-1)))
        CFI (cfiCond149) CFA_SP SP+0
        CFI (cfiCond149) CFA_XSP16 add(XSP16, 25)
        CFI Block cfiCond150 Using cfiCommon0
        CFI (cfiCond150) NoFunction
        CFI (cfiCond150) Conditional ??CrossCallReturnLabel_69
        CFI (cfiCond150) R6 load(1, XDATA, add(CFA_XSP16, literal(-24)))
        CFI (cfiCond150) VB load(1, XDATA, add(CFA_XSP16, literal(-23)))
        CFI (cfiCond150) V0 load(1, XDATA, add(CFA_XSP16, literal(-22)))
        CFI (cfiCond150) V1 load(1, XDATA, add(CFA_XSP16, literal(-21)))
        CFI (cfiCond150) V2 load(1, XDATA, add(CFA_XSP16, literal(-20)))
        CFI (cfiCond150) V3 load(1, XDATA, add(CFA_XSP16, literal(-19)))
        CFI (cfiCond150) V4 load(1, XDATA, add(CFA_XSP16, literal(-18)))
        CFI (cfiCond150) V5 load(1, XDATA, add(CFA_XSP16, literal(-17)))
        CFI (cfiCond150) V6 load(1, XDATA, add(CFA_XSP16, literal(-16)))
        CFI (cfiCond150) V7 load(1, XDATA, add(CFA_XSP16, literal(-15)))
        CFI (cfiCond150) V8 load(1, XDATA, add(CFA_XSP16, literal(-14)))
        CFI (cfiCond150) V9 load(1, XDATA, add(CFA_XSP16, literal(-13)))
        CFI (cfiCond150) V10 load(1, XDATA, add(CFA_XSP16, literal(-12)))
        CFI (cfiCond150) V11 load(1, XDATA, add(CFA_XSP16, literal(-11)))
        CFI (cfiCond150) V12 load(1, XDATA, add(CFA_XSP16, literal(-10)))
        CFI (cfiCond150) V13 load(1, XDATA, add(CFA_XSP16, literal(-9)))
        CFI (cfiCond150) V14 load(1, XDATA, add(CFA_XSP16, literal(-8)))
        CFI (cfiCond150) V15 load(1, XDATA, add(CFA_XSP16, literal(-7)))
        CFI (cfiCond150) R7 load(1, XDATA, add(CFA_XSP16, literal(-6)))
        CFI (cfiCond150) ?RET_LOW load(1, XDATA, add(CFA_XSP16, literal(-5)))
        CFI (cfiCond150) ?RET_HIGH load(1, XDATA, add(CFA_XSP16, literal(-4)))
        CFI (cfiCond150) ?BRET_EXT load(1, XDATA, add(CFA_XSP16, literal(-3)))
        CFI (cfiCond150) DPL0 load(1, XDATA, add(CFA_XSP16, literal(-2)))
        CFI (cfiCond150) DPH0 load(1, XDATA, add(CFA_XSP16, literal(-1)))
        CFI (cfiCond150) CFA_SP SP+0
        CFI (cfiCond150) CFA_XSP16 add(XSP16, 25)
        CFI Block cfiCond151 Using cfiCommon0
        CFI (cfiCond151) NoFunction
        CFI (cfiCond151) Conditional ??CrossCallReturnLabel_70
        CFI (cfiCond151) R6 load(1, XDATA, add(CFA_XSP16, literal(-24)))
        CFI (cfiCond151) VB load(1, XDATA, add(CFA_XSP16, literal(-23)))
        CFI (cfiCond151) V0 load(1, XDATA, add(CFA_XSP16, literal(-22)))
        CFI (cfiCond151) V1 load(1, XDATA, add(CFA_XSP16, literal(-21)))
        CFI (cfiCond151) V2 load(1, XDATA, add(CFA_XSP16, literal(-20)))
        CFI (cfiCond151) V3 load(1, XDATA, add(CFA_XSP16, literal(-19)))
        CFI (cfiCond151) V4 load(1, XDATA, add(CFA_XSP16, literal(-18)))
        CFI (cfiCond151) V5 load(1, XDATA, add(CFA_XSP16, literal(-17)))
        CFI (cfiCond151) V6 load(1, XDATA, add(CFA_XSP16, literal(-16)))
        CFI (cfiCond151) V7 load(1, XDATA, add(CFA_XSP16, literal(-15)))
        CFI (cfiCond151) V8 load(1, XDATA, add(CFA_XSP16, literal(-14)))
        CFI (cfiCond151) V9 load(1, XDATA, add(CFA_XSP16, literal(-13)))
        CFI (cfiCond151) V10 load(1, XDATA, add(CFA_XSP16, literal(-12)))
        CFI (cfiCond151) V11 load(1, XDATA, add(CFA_XSP16, literal(-11)))
        CFI (cfiCond151) V12 load(1, XDATA, add(CFA_XSP16, literal(-10)))
        CFI (cfiCond151) V13 load(1, XDATA, add(CFA_XSP16, literal(-9)))
        CFI (cfiCond151) V14 load(1, XDATA, add(CFA_XSP16, literal(-8)))
        CFI (cfiCond151) V15 load(1, XDATA, add(CFA_XSP16, literal(-7)))
        CFI (cfiCond151) R7 load(1, XDATA, add(CFA_XSP16, literal(-6)))
        CFI (cfiCond151) ?RET_LOW load(1, XDATA, add(CFA_XSP16, literal(-5)))
        CFI (cfiCond151) ?RET_HIGH load(1, XDATA, add(CFA_XSP16, literal(-4)))
        CFI (cfiCond151) ?BRET_EXT load(1, XDATA, add(CFA_XSP16, literal(-3)))
        CFI (cfiCond151) DPL0 load(1, XDATA, add(CFA_XSP16, literal(-2)))
        CFI (cfiCond151) DPH0 load(1, XDATA, add(CFA_XSP16, literal(-1)))
        CFI (cfiCond151) CFA_SP SP+0
        CFI (cfiCond151) CFA_XSP16 add(XSP16, 25)
        CFI Block cfiPicker152 Using cfiCommon1
        CFI (cfiPicker152) NoFunction
        CFI (cfiPicker152) Picker
        LCALL   ?Subroutine29 & 0xFFFF
??CrossCallReturnLabel_73:
        MOV     A,?V0 + 8
        RET
        CFI EndBlock cfiCond147
        CFI EndBlock cfiCond148
        CFI EndBlock cfiCond149
        CFI EndBlock cfiCond150
        CFI EndBlock cfiCond151
        CFI EndBlock cfiPicker152
//  774 
//  775 /**************************************************************************************************
//  776  * @fn          MT_AfDataRetrieve
//  777  *
//  778  * @brief   Process AF Data Retrieve command to incrementally read out a very large
//  779  *          incoming AF message.
//  780  *
//  781  * input parameters
//  782  *
//  783  * @param pBuf - pointer to the received buffer
//  784  *
//  785  * output parameters
//  786  *
//  787  * @param rtrn - AF-Status of the operation.
//  788  *
//  789  * @return      None.
//  790  **************************************************************************************************
//  791  */

        RSEG BANKED_CODE:CODE:NOROOT(0)
//  792 void MT_AfDataRetrieve(uint8 *pBuf)
MT_AfDataRetrieve:
        CFI Block cfiBlock153 Using cfiCommon0
        CFI Function MT_AfDataRetrieve
//  793 {
        FUNCALL MT_AfDataRetrieve, osal_mem_free
        LOCFRAME ISTACK, 0, STACK
        LOCFRAME PSTACK, 0, STACK
        LOCFRAME XSTACK, 20, STACK
        LOCFRAME IOVERLAY, 0, STATIC
        LOCFRAME DOVERLAY, 0, STATIC
        ARGFRAME ISTACK, 0, STACK
        ARGFRAME PSTACK, 0, STACK
        ARGFRAME XSTACK, 20, STACK
        ARGFRAME IOVERLAY, 0, STATIC
        ARGFRAME DOVERLAY, 0, STATIC
        FUNCALL MT_AfDataRetrieve, MT_BuildAndSendZToolResponse
        LOCFRAME ISTACK, 0, STACK
        LOCFRAME PSTACK, 0, STACK
        LOCFRAME XSTACK, 20, STACK
        LOCFRAME IOVERLAY, 0, STATIC
        LOCFRAME DOVERLAY, 0, STATIC
        ARGFRAME ISTACK, 0, STACK
        ARGFRAME PSTACK, 0, STACK
        ARGFRAME XSTACK, 20, STACK
        ARGFRAME IOVERLAY, 0, STATIC
        ARGFRAME DOVERLAY, 0, STATIC
        FUNCALL MT_AfDataRetrieve, osal_mem_alloc
        LOCFRAME ISTACK, 0, STACK
        LOCFRAME PSTACK, 0, STACK
        LOCFRAME XSTACK, 20, STACK
        LOCFRAME IOVERLAY, 0, STATIC
        LOCFRAME DOVERLAY, 0, STATIC
        ARGFRAME ISTACK, 0, STACK
        ARGFRAME PSTACK, 0, STACK
        ARGFRAME XSTACK, 20, STACK
        ARGFRAME IOVERLAY, 0, STATIC
        ARGFRAME DOVERLAY, 0, STATIC
        FUNCALL MT_AfDataRetrieve, osal_memcpy
        LOCFRAME ISTACK, 0, STACK
        LOCFRAME PSTACK, 0, STACK
        LOCFRAME XSTACK, 23, STACK
        LOCFRAME IOVERLAY, 0, STATIC
        LOCFRAME DOVERLAY, 0, STATIC
        ARGFRAME ISTACK, 0, STACK
        ARGFRAME PSTACK, 0, STACK
        ARGFRAME XSTACK, 23, STACK
        ARGFRAME IOVERLAY, 0, STATIC
        ARGFRAME DOVERLAY, 0, STATIC
        FUNCALL MT_AfDataRetrieve, MT_BuildAndSendZToolResponse
        LOCFRAME ISTACK, 0, STACK
        LOCFRAME PSTACK, 0, STACK
        LOCFRAME XSTACK, 20, STACK
        LOCFRAME IOVERLAY, 0, STATIC
        LOCFRAME DOVERLAY, 0, STATIC
        ARGFRAME ISTACK, 0, STACK
        ARGFRAME PSTACK, 0, STACK
        ARGFRAME XSTACK, 20, STACK
        ARGFRAME IOVERLAY, 0, STATIC
        ARGFRAME DOVERLAY, 0, STATIC
        FUNCALL MT_AfDataRetrieve, osal_mem_free
        LOCFRAME ISTACK, 0, STACK
        LOCFRAME PSTACK, 0, STACK
        LOCFRAME XSTACK, 20, STACK
        LOCFRAME IOVERLAY, 0, STATIC
        LOCFRAME DOVERLAY, 0, STATIC
        ARGFRAME ISTACK, 0, STACK
        ARGFRAME PSTACK, 0, STACK
        ARGFRAME XSTACK, 20, STACK
        ARGFRAME IOVERLAY, 0, STATIC
        ARGFRAME DOVERLAY, 0, STATIC
        MOV     A,#-0x14
        LCALL   ?BANKED_ENTER_XDATA
        CFI DPH0 load(1, XDATA, add(CFA_XSP16, literal(-1)))
        CFI DPL0 load(1, XDATA, add(CFA_XSP16, literal(-2)))
        CFI ?BRET_EXT load(1, XDATA, add(CFA_XSP16, literal(-3)))
        CFI ?RET_HIGH load(1, XDATA, add(CFA_XSP16, literal(-4)))
        CFI ?RET_LOW load(1, XDATA, add(CFA_XSP16, literal(-5)))
        CFI R7 load(1, XDATA, add(CFA_XSP16, literal(-6)))
        CFI V11 load(1, XDATA, add(CFA_XSP16, literal(-7)))
        CFI V10 load(1, XDATA, add(CFA_XSP16, literal(-8)))
        CFI V9 load(1, XDATA, add(CFA_XSP16, literal(-9)))
        CFI V8 load(1, XDATA, add(CFA_XSP16, literal(-10)))
        CFI V7 load(1, XDATA, add(CFA_XSP16, literal(-11)))
        CFI V6 load(1, XDATA, add(CFA_XSP16, literal(-12)))
        CFI V5 load(1, XDATA, add(CFA_XSP16, literal(-13)))
        CFI V4 load(1, XDATA, add(CFA_XSP16, literal(-14)))
        CFI V3 load(1, XDATA, add(CFA_XSP16, literal(-15)))
        CFI V2 load(1, XDATA, add(CFA_XSP16, literal(-16)))
        CFI V1 load(1, XDATA, add(CFA_XSP16, literal(-17)))
        CFI V0 load(1, XDATA, add(CFA_XSP16, literal(-18)))
        CFI VB load(1, XDATA, add(CFA_XSP16, literal(-19)))
        CFI R6 load(1, XDATA, add(CFA_XSP16, literal(-20)))
        CFI CFA_SP SP+0
        CFI CFA_XSP16 add(XSP16, 20)
        ; Saved register size: 20
        ; Auto size: 0
        MOV     A,R2
        MOV     R6,A
        MOV     A,R3
        MOV     R7,A
//  794   #define MT_AF_RTV_HDR_SZ  2
//  795 
//  796   uint32 timestamp;
//  797   mtAfInMsgList_t *pPrev, *pItem = pMtAfInMsgList;
        MOV     DPTR,#pMtAfInMsgList
        MOVX    A,@DPTR
        MOV     ?V0 + 6,A
        INC     DPTR
        MOVX    A,@DPTR
        MOV     ?V0 + 7,A
//  798   uint8 rtrn = afStatus_FAILED;
        MOV     R2,#0x1
//  799   uint8 len = 0;
        MOV     ?V0 + 4,#0x0
//  800 
//  801   pBuf += MT_RPC_FRAME_HDR_SZ;
        MOV     A,R6
        ADD     A,#0x3
        INC     R6
        INC     R6
        INC     R6
        MOV     A,R7
        ADDC    A,#0x0
        MOV     R7,A
//  802   timestamp = BUILD_UINT32(pBuf[0], pBuf[1], pBuf[2], pBuf[3]);
        MOV     DPL,R6
        MOV     DPH,R7
        MOVX    A,@DPTR
        MOV     ?V0 + 0,A
        MOV     ?V0 + 1,#0x0
        MOV     ?V0 + 2,#0x0
        MOV     ?V0 + 3,#0x0
        INC     DPTR
        MOVX    A,@DPTR
        MOV     ?V0 + 8,A
        MOV     ?V0 + 9,#0x0
        MOV     ?V0 + 10,#0x0
        MOV     ?V0 + 11,#0x0
        MOV     A,#0x8
        MOV     R0,#?V0 + 8
        LCALL   ?L_SHL
        MOV     R0,#?V0 + 0
        MOV     R1,#?V0 + 8
        LCALL   ?L_ADD
        MOV     DPL,R6
        MOV     DPH,R7
        INC     DPTR
        INC     DPTR
        MOVX    A,@DPTR
        MOV     ?V0 + 8,A
        MOV     ?V0 + 9,#0x0
        MOV     A,#0x10
        MOV     R0,#?V0 + 8
        LCALL   ?L_SHL
        MOV     R0,#?V0 + 0
        MOV     R1,#?V0 + 8
        LCALL   ?L_ADD
        MOV     DPL,R6
        MOV     DPH,R7
        INC     DPTR
        INC     DPTR
        INC     DPTR
        MOVX    A,@DPTR
        MOV     ?V0 + 8,A
        MOV     ?V0 + 10,#0x0
        MOV     A,#0x18
        MOV     R0,#?V0 + 8
        LCALL   ?L_SHL
        MOV     R0,#?V0 + 0
        MOV     R1,#?V0 + 8
        LCALL   ?L_ADD
        SJMP    ??MT_AfDataRetrieve_0
//  803 
//  804   while (pItem != NULL)
//  805   {
//  806     pPrev = pItem;
//  807     if (pItem->timestamp == timestamp)
//  808     {
//  809       break;
//  810     }
//  811     pItem = pItem->next;
??MT_AfDataRetrieve_1:
        MOV     DPL,R4
        MOV     DPH,R5
        MOVX    A,@DPTR
        MOV     ?V0 + 6,A
        INC     DPTR
        MOVX    A,@DPTR
        MOV     ?V0 + 7,A
??MT_AfDataRetrieve_0:
        MOV     A,?V0 + 6
        JNZ     ??MT_AfDataRetrieve_2
        MOV     A,?V0 + 7
??MT_AfDataRetrieve_2:
        JZ      ??MT_AfDataRetrieve_3
        MOV     R4,?V0 + 6
        MOV     R5,?V0 + 7
        MOV     DPL,R4
        MOV     DPH,R5
        INC     DPTR
        INC     DPTR
        INC     DPTR
        INC     DPTR
        MOV     R0,#?V0 + 0
        LCALL   ?L_EQ_X
        JNZ     ??MT_AfDataRetrieve_1
//  812   }
//  813 
//  814   if (pItem != NULL)
//  815   {
//  816     uint16 idx;
//  817     uint8 *pRsp;
//  818 
//  819     pBuf += 4;
        MOV     A,R6
        ADD     A,#0x4
        MOV     R6,A
        MOV     A,R7
        ADDC    A,#0x0
        MOV     R7,A
//  820     idx = BUILD_UINT16(pBuf[0], pBuf[1]);
        MOV     DPL,R6
        MOV     DPH,R7
        LCALL   ??Subroutine43_0 & 0xFFFF
??CrossCallReturnLabel_85:
        MOV     ?V0 + 2,A
        MOV     A,R1
        MOV     ?V0 + 3,A
//  821     len = pBuf[2];
        MOV     DPL,R6
        MOV     DPH,R7
        INC     DPTR
        INC     DPTR
        MOVX    A,@DPTR
        MOV     ?V0 + 4,A
//  822 
//  823     if (len == 0)  // Indication to delete the afIncomingMSGPacket.
        JNZ     ??MT_AfDataRetrieve_4
//  824     {
//  825       if (pMtAfInMsgList == pItem)
        MOV     DPL,R4
        MOV     DPH,R5
        MOVX    A,@DPTR
        MOV     R0,A
        INC     DPTR
        MOVX    A,@DPTR
        MOV     R1,A
        LCALL   ?Subroutine30 & 0xFFFF
??CrossCallReturnLabel_90:
        MOV     R3,A
        MOV     A,R4
        XRL     A,R2
        JNZ     ??MT_AfDataRetrieve_5
        MOV     A,R5
        XRL     A,R3
??MT_AfDataRetrieve_5:
        JNZ     ??MT_AfDataRetrieve_6
//  826       {
//  827         pMtAfInMsgList = pItem->next;
        MOV     DPTR,#pMtAfInMsgList
        SJMP    ??MT_AfDataRetrieve_7
//  828       }
//  829       else
//  830       {
//  831         pPrev->next = pItem->next;
??MT_AfDataRetrieve_6:
        MOV     DPL,R4
        MOV     DPH,R5
//  832       }
??MT_AfDataRetrieve_7:
        LCALL   ?Subroutine24 & 0xFFFF
//  833       (void)osal_mem_free(pItem);
??CrossCallReturnLabel_42:
        ; Setup parameters for call to function osal_mem_free
        MOV     R2,?V0 + 6
        MOV     R3,?V0 + 7
        LCALL   ??osal_mem_free?relay
//  834       rtrn = afStatus_SUCCESS;
        MOV     R2,#0x0
//  835     }
//  836     else if ((pRsp = osal_mem_alloc(len + MT_AF_RTV_HDR_SZ)) == NULL)
//  837     {
//  838       rtrn = afStatus_MEM_FAIL;
//  839       len = 0;
//  840     }
//  841     else
//  842     {
//  843       pRsp[0] = ZSuccess;
//  844       pRsp[1] = len;
//  845       (void)osal_memcpy(pRsp + MT_AF_RTV_HDR_SZ, pItem->data+idx, len);
//  846       MT_BuildAndSendZToolResponse(((uint8)MT_RPC_CMD_SRSP | (uint8)MT_RPC_SYS_AF), 
//  847                                            MT_AF_DATA_RETRIEVE, len + MT_AF_RTV_HDR_SZ, pRsp);
//  848       (void)osal_mem_free(pRsp);
//  849       return;
//  850     }
//  851   }
//  852 
//  853   pBuf[0] = rtrn;
??MT_AfDataRetrieve_3:
        MOV     A,R2
        MOV     DPL,R6
        MOV     DPH,R7
        MOVX    @DPTR,A
//  854   pBuf[1] = len;
        INC     DPTR
        MOV     A,?V0 + 4
        MOVX    @DPTR,A
//  855   MT_BuildAndSendZToolResponse(((uint8)MT_RPC_CMD_SRSP | (uint8)MT_RPC_SYS_AF), 
//  856                                        MT_AF_DATA_RETRIEVE, MT_AF_RTV_HDR_SZ, pBuf);
        ; Setup parameters for call to function MT_BuildAndSendZToolResponse
        MOV     A,R6
        MOV     R4,A
        MOV     A,R7
        MOV     R5,A
        MOV     R3,#0x2
        MOV     R2,#0x12
        MOV     R1,#0x64
        LCALL   ??MT_BuildAndSendZToolResponse?relay
//  857 }
??MT_AfDataRetrieve_8:
        MOV     R7,#0xc
        LJMP    ?BANKED_LEAVE_XDATA
??MT_AfDataRetrieve_4:
        ; Setup parameters for call to function osal_mem_alloc
        MOV     ?V0 + 0,A
        MOV     A,#0x2
        ADD     A,?V0 + 0
        MOV     R2,A
        CLR     A
        ADDC    A,#0x0
        MOV     R3,A
        LCALL   ??osal_mem_alloc?relay
        MOV     ?V0 + 0,R2
        MOV     ?V0 + 1,R3
        MOV     A,R2
        JNZ     ??MT_AfDataRetrieve_9
        MOV     A,R3
??MT_AfDataRetrieve_9:
        JNZ     ??MT_AfDataRetrieve_10
        MOV     R2,#0x10
        MOV     ?V0 + 4,#0x0
        SJMP    ??MT_AfDataRetrieve_3
??MT_AfDataRetrieve_10:
        CLR     A
        MOV     DPL,R2
        MOV     DPH,R3
        MOVX    @DPTR,A
        INC     DPTR
        MOV     A,?V0 + 4
        MOVX    @DPTR,A
        ; Setup parameters for call to function osal_memcpy
        MOV     DPL,?V0 + 6
        MOV     DPH,?V0 + 7
        INC     DPTR
        INC     DPTR
        MOVX    A,@DPTR
        ADD     A,?V0 + 2
        MOV     ?V0 + 8,A
        INC     DPTR
        MOVX    A,@DPTR
        ADDC    A,?V0 + 3
        MOV     ?V0 + 9,A
        MOV     R0,#?V0 + 8
        LCALL   ?PUSH_XSTACK_I_THREE
        CFI CFA_XSP16 add(XSP16, 23)
        MOV     R4,?V0 + 4
        MOV     R5,#0x0
        MOV     A,R2
        ADD     A,#0x2
        INC     R2
        INC     R2
        MOV     A,R3
        ADDC    A,#0x0
        LCALL   ?Subroutine26 & 0xFFFF
??CrossCallReturnLabel_76:
        LCALL   ?DEALLOC_XSTACK8
        CFI CFA_XSP16 add(XSP16, 20)
        ; Setup parameters for call to function MT_BuildAndSendZToolResponse
        MOV     R4,?V0 + 0
        MOV     R5,?V0 + 1
        MOV     A,#0x2
        ADD     A,?V0 + 4
        MOV     R3,A
        MOV     R2,#0x12
        MOV     R1,#0x64
        LCALL   ??MT_BuildAndSendZToolResponse?relay
        ; Setup parameters for call to function osal_mem_free
        MOV     R2,?V0 + 0
        MOV     R3,?V0 + 1
        LCALL   ??osal_mem_free?relay
        SJMP    ??MT_AfDataRetrieve_8
        CFI EndBlock cfiBlock153

        RSEG BANKED_CODE:CODE:NOROOT(0)
?Subroutine26:
        CFI Block cfiCond154 Using cfiCommon0
        CFI NoFunction
        CFI Conditional ??CrossCallReturnLabel_76
        CFI R6 load(1, XDATA, add(CFA_XSP16, literal(-20)))
        CFI VB load(1, XDATA, add(CFA_XSP16, literal(-19)))
        CFI V0 load(1, XDATA, add(CFA_XSP16, literal(-18)))
        CFI V1 load(1, XDATA, add(CFA_XSP16, literal(-17)))
        CFI V2 load(1, XDATA, add(CFA_XSP16, literal(-16)))
        CFI V3 load(1, XDATA, add(CFA_XSP16, literal(-15)))
        CFI V4 load(1, XDATA, add(CFA_XSP16, literal(-14)))
        CFI V5 load(1, XDATA, add(CFA_XSP16, literal(-13)))
        CFI V6 load(1, XDATA, add(CFA_XSP16, literal(-12)))
        CFI V7 load(1, XDATA, add(CFA_XSP16, literal(-11)))
        CFI V8 load(1, XDATA, add(CFA_XSP16, literal(-10)))
        CFI V9 load(1, XDATA, add(CFA_XSP16, literal(-9)))
        CFI V10 load(1, XDATA, add(CFA_XSP16, literal(-8)))
        CFI V11 load(1, XDATA, add(CFA_XSP16, literal(-7)))
        CFI R7 load(1, XDATA, add(CFA_XSP16, literal(-6)))
        CFI ?RET_LOW load(1, XDATA, add(CFA_XSP16, literal(-5)))
        CFI ?RET_HIGH load(1, XDATA, add(CFA_XSP16, literal(-4)))
        CFI ?BRET_EXT load(1, XDATA, add(CFA_XSP16, literal(-3)))
        CFI DPL0 load(1, XDATA, add(CFA_XSP16, literal(-2)))
        CFI DPH0 load(1, XDATA, add(CFA_XSP16, literal(-1)))
        CFI CFA_SP SP+0
        CFI CFA_XSP16 add(XSP16, 23)
        CFI Block cfiCond155 Using cfiCommon0
        CFI (cfiCond155) NoFunction
        CFI (cfiCond155) Conditional ??CrossCallReturnLabel_77
        CFI (cfiCond155) R6 load(1, XDATA, add(CFA_XSP16, literal(-14)))
        CFI (cfiCond155) VB load(1, XDATA, add(CFA_XSP16, literal(-13)))
        CFI (cfiCond155) V0 load(1, XDATA, add(CFA_XSP16, literal(-12)))
        CFI (cfiCond155) V1 load(1, XDATA, add(CFA_XSP16, literal(-11)))
        CFI (cfiCond155) V2 load(1, XDATA, add(CFA_XSP16, literal(-10)))
        CFI (cfiCond155) V3 load(1, XDATA, add(CFA_XSP16, literal(-9)))
        CFI (cfiCond155) V4 load(1, XDATA, add(CFA_XSP16, literal(-8)))
        CFI (cfiCond155) V5 load(1, XDATA, add(CFA_XSP16, literal(-7)))
        CFI (cfiCond155) R7 load(1, XDATA, add(CFA_XSP16, literal(-6)))
        CFI (cfiCond155) ?RET_LOW load(1, XDATA, add(CFA_XSP16, literal(-5)))
        CFI (cfiCond155) ?RET_HIGH load(1, XDATA, add(CFA_XSP16, literal(-4)))
        CFI (cfiCond155) ?BRET_EXT load(1, XDATA, add(CFA_XSP16, literal(-3)))
        CFI (cfiCond155) DPL0 load(1, XDATA, add(CFA_XSP16, literal(-2)))
        CFI (cfiCond155) DPH0 load(1, XDATA, add(CFA_XSP16, literal(-1)))
        CFI (cfiCond155) CFA_SP SP+0
        CFI (cfiCond155) CFA_XSP16 add(XSP16, 18)
        CFI Block cfiPicker156 Using cfiCommon1
        CFI (cfiPicker156) NoFunction
        CFI (cfiPicker156) Picker
        MOV     R3,A
        CFI EndBlock cfiCond154
        CFI EndBlock cfiCond155
        CFI EndBlock cfiPicker156
        REQUIRE ??Subroutine42_0
        ; // Fall through to label ??Subroutine42_0

        RSEG BANKED_CODE:CODE:NOROOT(0)
??Subroutine42_0:
        CFI Block cfiCond157 Using cfiCommon0
        CFI NoFunction
        CFI Conditional ??CrossCallReturnLabel_78
        CFI R6 load(1, XDATA, add(CFA_XSP16, literal(-21)))
        CFI VB load(1, XDATA, add(CFA_XSP16, literal(-20)))
        CFI V0 load(1, XDATA, add(CFA_XSP16, literal(-19)))
        CFI V1 load(1, XDATA, add(CFA_XSP16, literal(-18)))
        CFI V2 load(1, XDATA, add(CFA_XSP16, literal(-17)))
        CFI V3 load(1, XDATA, add(CFA_XSP16, literal(-16)))
        CFI V4 load(1, XDATA, add(CFA_XSP16, literal(-15)))
        CFI V5 load(1, XDATA, add(CFA_XSP16, literal(-14)))
        CFI V6 load(1, XDATA, add(CFA_XSP16, literal(-13)))
        CFI V7 load(1, XDATA, add(CFA_XSP16, literal(-12)))
        CFI V8 load(1, XDATA, add(CFA_XSP16, literal(-11)))
        CFI V9 load(1, XDATA, add(CFA_XSP16, literal(-10)))
        CFI V10 load(1, XDATA, add(CFA_XSP16, literal(-9)))
        CFI V11 load(1, XDATA, add(CFA_XSP16, literal(-8)))
        CFI V12 load(1, XDATA, add(CFA_XSP16, literal(-7)))
        CFI R7 load(1, XDATA, add(CFA_XSP16, literal(-6)))
        CFI ?RET_LOW load(1, XDATA, add(CFA_XSP16, literal(-5)))
        CFI ?RET_HIGH load(1, XDATA, add(CFA_XSP16, literal(-4)))
        CFI ?BRET_EXT load(1, XDATA, add(CFA_XSP16, literal(-3)))
        CFI DPL0 load(1, XDATA, add(CFA_XSP16, literal(-2)))
        CFI DPH0 load(1, XDATA, add(CFA_XSP16, literal(-1)))
        CFI CFA_SP SP+0
        CFI CFA_XSP16 add(XSP16, 38)
        CFI Block cfiCond158 Using cfiCommon0
        CFI (cfiCond158) NoFunction
        CFI (cfiCond158) Conditional ??CrossCallReturnLabel_79
        CFI (cfiCond158) R6 load(1, XDATA, add(CFA_XSP16, literal(-21)))
        CFI (cfiCond158) VB load(1, XDATA, add(CFA_XSP16, literal(-20)))
        CFI (cfiCond158) V0 load(1, XDATA, add(CFA_XSP16, literal(-19)))
        CFI (cfiCond158) V1 load(1, XDATA, add(CFA_XSP16, literal(-18)))
        CFI (cfiCond158) V2 load(1, XDATA, add(CFA_XSP16, literal(-17)))
        CFI (cfiCond158) V3 load(1, XDATA, add(CFA_XSP16, literal(-16)))
        CFI (cfiCond158) V4 load(1, XDATA, add(CFA_XSP16, literal(-15)))
        CFI (cfiCond158) V5 load(1, XDATA, add(CFA_XSP16, literal(-14)))
        CFI (cfiCond158) V6 load(1, XDATA, add(CFA_XSP16, literal(-13)))
        CFI (cfiCond158) V7 load(1, XDATA, add(CFA_XSP16, literal(-12)))
        CFI (cfiCond158) V8 load(1, XDATA, add(CFA_XSP16, literal(-11)))
        CFI (cfiCond158) V9 load(1, XDATA, add(CFA_XSP16, literal(-10)))
        CFI (cfiCond158) V10 load(1, XDATA, add(CFA_XSP16, literal(-9)))
        CFI (cfiCond158) V11 load(1, XDATA, add(CFA_XSP16, literal(-8)))
        CFI (cfiCond158) V12 load(1, XDATA, add(CFA_XSP16, literal(-7)))
        CFI (cfiCond158) R7 load(1, XDATA, add(CFA_XSP16, literal(-6)))
        CFI (cfiCond158) ?RET_LOW load(1, XDATA, add(CFA_XSP16, literal(-5)))
        CFI (cfiCond158) ?RET_HIGH load(1, XDATA, add(CFA_XSP16, literal(-4)))
        CFI (cfiCond158) ?BRET_EXT load(1, XDATA, add(CFA_XSP16, literal(-3)))
        CFI (cfiCond158) DPL0 load(1, XDATA, add(CFA_XSP16, literal(-2)))
        CFI (cfiCond158) DPH0 load(1, XDATA, add(CFA_XSP16, literal(-1)))
        CFI (cfiCond158) CFA_SP SP+0
        CFI (cfiCond158) CFA_XSP16 add(XSP16, 38)
        CFI Block cfiCond159 Using cfiCommon0
        CFI (cfiCond159) NoFunction
        CFI (cfiCond159) Conditional ??CrossCallReturnLabel_80
        CFI (cfiCond159) R6 load(1, XDATA, add(CFA_XSP16, literal(-24)))
        CFI (cfiCond159) VB load(1, XDATA, add(CFA_XSP16, literal(-23)))
        CFI (cfiCond159) V0 load(1, XDATA, add(CFA_XSP16, literal(-22)))
        CFI (cfiCond159) V1 load(1, XDATA, add(CFA_XSP16, literal(-21)))
        CFI (cfiCond159) V2 load(1, XDATA, add(CFA_XSP16, literal(-20)))
        CFI (cfiCond159) V3 load(1, XDATA, add(CFA_XSP16, literal(-19)))
        CFI (cfiCond159) V4 load(1, XDATA, add(CFA_XSP16, literal(-18)))
        CFI (cfiCond159) V5 load(1, XDATA, add(CFA_XSP16, literal(-17)))
        CFI (cfiCond159) V6 load(1, XDATA, add(CFA_XSP16, literal(-16)))
        CFI (cfiCond159) V7 load(1, XDATA, add(CFA_XSP16, literal(-15)))
        CFI (cfiCond159) V8 load(1, XDATA, add(CFA_XSP16, literal(-14)))
        CFI (cfiCond159) V9 load(1, XDATA, add(CFA_XSP16, literal(-13)))
        CFI (cfiCond159) V10 load(1, XDATA, add(CFA_XSP16, literal(-12)))
        CFI (cfiCond159) V11 load(1, XDATA, add(CFA_XSP16, literal(-11)))
        CFI (cfiCond159) V12 load(1, XDATA, add(CFA_XSP16, literal(-10)))
        CFI (cfiCond159) V13 load(1, XDATA, add(CFA_XSP16, literal(-9)))
        CFI (cfiCond159) V14 load(1, XDATA, add(CFA_XSP16, literal(-8)))
        CFI (cfiCond159) V15 load(1, XDATA, add(CFA_XSP16, literal(-7)))
        CFI (cfiCond159) R7 load(1, XDATA, add(CFA_XSP16, literal(-6)))
        CFI (cfiCond159) ?RET_LOW load(1, XDATA, add(CFA_XSP16, literal(-5)))
        CFI (cfiCond159) ?RET_HIGH load(1, XDATA, add(CFA_XSP16, literal(-4)))
        CFI (cfiCond159) ?BRET_EXT load(1, XDATA, add(CFA_XSP16, literal(-3)))
        CFI (cfiCond159) DPL0 load(1, XDATA, add(CFA_XSP16, literal(-2)))
        CFI (cfiCond159) DPH0 load(1, XDATA, add(CFA_XSP16, literal(-1)))
        CFI (cfiCond159) CFA_SP SP+0
        CFI (cfiCond159) CFA_XSP16 add(XSP16, 28)
        CFI Block cfiCond160 Using cfiCommon0
        CFI (cfiCond160) NoFunction
        CFI (cfiCond160) Conditional ??CrossCallReturnLabel_81
        CFI (cfiCond160) R6 load(1, XDATA, add(CFA_XSP16, literal(-24)))
        CFI (cfiCond160) VB load(1, XDATA, add(CFA_XSP16, literal(-23)))
        CFI (cfiCond160) V0 load(1, XDATA, add(CFA_XSP16, literal(-22)))
        CFI (cfiCond160) V1 load(1, XDATA, add(CFA_XSP16, literal(-21)))
        CFI (cfiCond160) V2 load(1, XDATA, add(CFA_XSP16, literal(-20)))
        CFI (cfiCond160) V3 load(1, XDATA, add(CFA_XSP16, literal(-19)))
        CFI (cfiCond160) V4 load(1, XDATA, add(CFA_XSP16, literal(-18)))
        CFI (cfiCond160) V5 load(1, XDATA, add(CFA_XSP16, literal(-17)))
        CFI (cfiCond160) V6 load(1, XDATA, add(CFA_XSP16, literal(-16)))
        CFI (cfiCond160) V7 load(1, XDATA, add(CFA_XSP16, literal(-15)))
        CFI (cfiCond160) V8 load(1, XDATA, add(CFA_XSP16, literal(-14)))
        CFI (cfiCond160) V9 load(1, XDATA, add(CFA_XSP16, literal(-13)))
        CFI (cfiCond160) V10 load(1, XDATA, add(CFA_XSP16, literal(-12)))
        CFI (cfiCond160) V11 load(1, XDATA, add(CFA_XSP16, literal(-11)))
        CFI (cfiCond160) V12 load(1, XDATA, add(CFA_XSP16, literal(-10)))
        CFI (cfiCond160) V13 load(1, XDATA, add(CFA_XSP16, literal(-9)))
        CFI (cfiCond160) V14 load(1, XDATA, add(CFA_XSP16, literal(-8)))
        CFI (cfiCond160) V15 load(1, XDATA, add(CFA_XSP16, literal(-7)))
        CFI (cfiCond160) R7 load(1, XDATA, add(CFA_XSP16, literal(-6)))
        CFI (cfiCond160) ?RET_LOW load(1, XDATA, add(CFA_XSP16, literal(-5)))
        CFI (cfiCond160) ?RET_HIGH load(1, XDATA, add(CFA_XSP16, literal(-4)))
        CFI (cfiCond160) ?BRET_EXT load(1, XDATA, add(CFA_XSP16, literal(-3)))
        CFI (cfiCond160) DPL0 load(1, XDATA, add(CFA_XSP16, literal(-2)))
        CFI (cfiCond160) DPH0 load(1, XDATA, add(CFA_XSP16, literal(-1)))
        CFI (cfiCond160) CFA_SP SP+0
        CFI (cfiCond160) CFA_XSP16 add(XSP16, 28)
        CFI Block cfiCond161 Using cfiCommon0
        CFI (cfiCond161) NoFunction
        CFI (cfiCond161) Conditional ??CrossCallReturnLabel_76
        CFI (cfiCond161) R6 load(1, XDATA, add(CFA_XSP16, literal(-20)))
        CFI (cfiCond161) VB load(1, XDATA, add(CFA_XSP16, literal(-19)))
        CFI (cfiCond161) V0 load(1, XDATA, add(CFA_XSP16, literal(-18)))
        CFI (cfiCond161) V1 load(1, XDATA, add(CFA_XSP16, literal(-17)))
        CFI (cfiCond161) V2 load(1, XDATA, add(CFA_XSP16, literal(-16)))
        CFI (cfiCond161) V3 load(1, XDATA, add(CFA_XSP16, literal(-15)))
        CFI (cfiCond161) V4 load(1, XDATA, add(CFA_XSP16, literal(-14)))
        CFI (cfiCond161) V5 load(1, XDATA, add(CFA_XSP16, literal(-13)))
        CFI (cfiCond161) V6 load(1, XDATA, add(CFA_XSP16, literal(-12)))
        CFI (cfiCond161) V7 load(1, XDATA, add(CFA_XSP16, literal(-11)))
        CFI (cfiCond161) V8 load(1, XDATA, add(CFA_XSP16, literal(-10)))
        CFI (cfiCond161) V9 load(1, XDATA, add(CFA_XSP16, literal(-9)))
        CFI (cfiCond161) V10 load(1, XDATA, add(CFA_XSP16, literal(-8)))
        CFI (cfiCond161) V11 load(1, XDATA, add(CFA_XSP16, literal(-7)))
        CFI (cfiCond161) R7 load(1, XDATA, add(CFA_XSP16, literal(-6)))
        CFI (cfiCond161) ?RET_LOW load(1, XDATA, add(CFA_XSP16, literal(-5)))
        CFI (cfiCond161) ?RET_HIGH load(1, XDATA, add(CFA_XSP16, literal(-4)))
        CFI (cfiCond161) ?BRET_EXT load(1, XDATA, add(CFA_XSP16, literal(-3)))
        CFI (cfiCond161) DPL0 load(1, XDATA, add(CFA_XSP16, literal(-2)))
        CFI (cfiCond161) DPH0 load(1, XDATA, add(CFA_XSP16, literal(-1)))
        CFI (cfiCond161) CFA_SP SP+0
        CFI (cfiCond161) CFA_XSP16 add(XSP16, 23)
        CFI Block cfiCond162 Using cfiCommon0
        CFI (cfiCond162) NoFunction
        CFI (cfiCond162) Conditional ??CrossCallReturnLabel_77
        CFI (cfiCond162) R6 load(1, XDATA, add(CFA_XSP16, literal(-14)))
        CFI (cfiCond162) VB load(1, XDATA, add(CFA_XSP16, literal(-13)))
        CFI (cfiCond162) V0 load(1, XDATA, add(CFA_XSP16, literal(-12)))
        CFI (cfiCond162) V1 load(1, XDATA, add(CFA_XSP16, literal(-11)))
        CFI (cfiCond162) V2 load(1, XDATA, add(CFA_XSP16, literal(-10)))
        CFI (cfiCond162) V3 load(1, XDATA, add(CFA_XSP16, literal(-9)))
        CFI (cfiCond162) V4 load(1, XDATA, add(CFA_XSP16, literal(-8)))
        CFI (cfiCond162) V5 load(1, XDATA, add(CFA_XSP16, literal(-7)))
        CFI (cfiCond162) R7 load(1, XDATA, add(CFA_XSP16, literal(-6)))
        CFI (cfiCond162) ?RET_LOW load(1, XDATA, add(CFA_XSP16, literal(-5)))
        CFI (cfiCond162) ?RET_HIGH load(1, XDATA, add(CFA_XSP16, literal(-4)))
        CFI (cfiCond162) ?BRET_EXT load(1, XDATA, add(CFA_XSP16, literal(-3)))
        CFI (cfiCond162) DPL0 load(1, XDATA, add(CFA_XSP16, literal(-2)))
        CFI (cfiCond162) DPH0 load(1, XDATA, add(CFA_XSP16, literal(-1)))
        CFI (cfiCond162) CFA_SP SP+0
        CFI (cfiCond162) CFA_XSP16 add(XSP16, 18)
        CFI Block cfiPicker163 Using cfiCommon1
        CFI (cfiPicker163) NoFunction
        CFI (cfiPicker163) Picker
        LCALL   ??osal_memcpy?relay
        MOV     A,#0x3
        RET
        CFI EndBlock cfiCond157
        CFI EndBlock cfiCond158
        CFI EndBlock cfiCond159
        CFI EndBlock cfiCond160
        CFI EndBlock cfiCond161
        CFI EndBlock cfiCond162
        CFI EndBlock cfiPicker163

        RSEG BANKED_CODE:CODE:NOROOT(0)
?Subroutine9:
        CFI Block cfiCond164 Using cfiCommon0
        CFI NoFunction
        CFI Conditional ??CrossCallReturnLabel_82
        CFI R6 load(1, XDATA, add(CFA_XSP16, literal(-21)))
        CFI VB load(1, XDATA, add(CFA_XSP16, literal(-20)))
        CFI V0 load(1, XDATA, add(CFA_XSP16, literal(-19)))
        CFI V1 load(1, XDATA, add(CFA_XSP16, literal(-18)))
        CFI V2 load(1, XDATA, add(CFA_XSP16, literal(-17)))
        CFI V3 load(1, XDATA, add(CFA_XSP16, literal(-16)))
        CFI V4 load(1, XDATA, add(CFA_XSP16, literal(-15)))
        CFI V5 load(1, XDATA, add(CFA_XSP16, literal(-14)))
        CFI V6 load(1, XDATA, add(CFA_XSP16, literal(-13)))
        CFI V7 load(1, XDATA, add(CFA_XSP16, literal(-12)))
        CFI V8 load(1, XDATA, add(CFA_XSP16, literal(-11)))
        CFI V9 load(1, XDATA, add(CFA_XSP16, literal(-10)))
        CFI V10 load(1, XDATA, add(CFA_XSP16, literal(-9)))
        CFI V11 load(1, XDATA, add(CFA_XSP16, literal(-8)))
        CFI V12 load(1, XDATA, add(CFA_XSP16, literal(-7)))
        CFI R7 load(1, XDATA, add(CFA_XSP16, literal(-6)))
        CFI ?RET_LOW load(1, XDATA, add(CFA_XSP16, literal(-5)))
        CFI ?RET_HIGH load(1, XDATA, add(CFA_XSP16, literal(-4)))
        CFI ?BRET_EXT load(1, XDATA, add(CFA_XSP16, literal(-3)))
        CFI DPL0 load(1, XDATA, add(CFA_XSP16, literal(-2)))
        CFI DPH0 load(1, XDATA, add(CFA_XSP16, literal(-1)))
        CFI CFA_SP SP+0
        CFI CFA_XSP16 add(XSP16, 35)
        CFI Block cfiCond165 Using cfiCommon0
        CFI (cfiCond165) NoFunction
        CFI (cfiCond165) Conditional ??CrossCallReturnLabel_83
        CFI (cfiCond165) R6 load(1, XDATA, add(CFA_XSP16, literal(-21)))
        CFI (cfiCond165) VB load(1, XDATA, add(CFA_XSP16, literal(-20)))
        CFI (cfiCond165) V0 load(1, XDATA, add(CFA_XSP16, literal(-19)))
        CFI (cfiCond165) V1 load(1, XDATA, add(CFA_XSP16, literal(-18)))
        CFI (cfiCond165) V2 load(1, XDATA, add(CFA_XSP16, literal(-17)))
        CFI (cfiCond165) V3 load(1, XDATA, add(CFA_XSP16, literal(-16)))
        CFI (cfiCond165) V4 load(1, XDATA, add(CFA_XSP16, literal(-15)))
        CFI (cfiCond165) V5 load(1, XDATA, add(CFA_XSP16, literal(-14)))
        CFI (cfiCond165) V6 load(1, XDATA, add(CFA_XSP16, literal(-13)))
        CFI (cfiCond165) V7 load(1, XDATA, add(CFA_XSP16, literal(-12)))
        CFI (cfiCond165) V8 load(1, XDATA, add(CFA_XSP16, literal(-11)))
        CFI (cfiCond165) V9 load(1, XDATA, add(CFA_XSP16, literal(-10)))
        CFI (cfiCond165) V10 load(1, XDATA, add(CFA_XSP16, literal(-9)))
        CFI (cfiCond165) V11 load(1, XDATA, add(CFA_XSP16, literal(-8)))
        CFI (cfiCond165) V12 load(1, XDATA, add(CFA_XSP16, literal(-7)))
        CFI (cfiCond165) R7 load(1, XDATA, add(CFA_XSP16, literal(-6)))
        CFI (cfiCond165) ?RET_LOW load(1, XDATA, add(CFA_XSP16, literal(-5)))
        CFI (cfiCond165) ?RET_HIGH load(1, XDATA, add(CFA_XSP16, literal(-4)))
        CFI (cfiCond165) ?BRET_EXT load(1, XDATA, add(CFA_XSP16, literal(-3)))
        CFI (cfiCond165) DPL0 load(1, XDATA, add(CFA_XSP16, literal(-2)))
        CFI (cfiCond165) DPH0 load(1, XDATA, add(CFA_XSP16, literal(-1)))
        CFI (cfiCond165) CFA_SP SP+0
        CFI (cfiCond165) CFA_XSP16 add(XSP16, 35)
        CFI Block cfiPicker166 Using cfiCommon1
        CFI (cfiPicker166) NoFunction
        CFI (cfiPicker166) Picker
        MOV     DPL,?V0 + 2
        MOV     DPH,?V0 + 3
        INC     DPTR
        MOV     ?V0 + 2,DPL
        MOV     ?V0 + 3,DPH
        CFI EndBlock cfiCond164
        CFI EndBlock cfiCond165
        CFI EndBlock cfiPicker166
        REQUIRE ??Subroutine43_0
        ; // Fall through to label ??Subroutine43_0

        RSEG BANKED_CODE:CODE:NOROOT(0)
??Subroutine43_0:
        CFI Block cfiCond167 Using cfiCommon0
        CFI NoFunction
        CFI Conditional ??CrossCallReturnLabel_84
        CFI R6 load(1, XDATA, add(CFA_XSP16, literal(-21)))
        CFI VB load(1, XDATA, add(CFA_XSP16, literal(-20)))
        CFI V0 load(1, XDATA, add(CFA_XSP16, literal(-19)))
        CFI V1 load(1, XDATA, add(CFA_XSP16, literal(-18)))
        CFI V2 load(1, XDATA, add(CFA_XSP16, literal(-17)))
        CFI V3 load(1, XDATA, add(CFA_XSP16, literal(-16)))
        CFI V4 load(1, XDATA, add(CFA_XSP16, literal(-15)))
        CFI V5 load(1, XDATA, add(CFA_XSP16, literal(-14)))
        CFI V6 load(1, XDATA, add(CFA_XSP16, literal(-13)))
        CFI V7 load(1, XDATA, add(CFA_XSP16, literal(-12)))
        CFI V8 load(1, XDATA, add(CFA_XSP16, literal(-11)))
        CFI V9 load(1, XDATA, add(CFA_XSP16, literal(-10)))
        CFI V10 load(1, XDATA, add(CFA_XSP16, literal(-9)))
        CFI V11 load(1, XDATA, add(CFA_XSP16, literal(-8)))
        CFI V12 load(1, XDATA, add(CFA_XSP16, literal(-7)))
        CFI R7 load(1, XDATA, add(CFA_XSP16, literal(-6)))
        CFI ?RET_LOW load(1, XDATA, add(CFA_XSP16, literal(-5)))
        CFI ?RET_HIGH load(1, XDATA, add(CFA_XSP16, literal(-4)))
        CFI ?BRET_EXT load(1, XDATA, add(CFA_XSP16, literal(-3)))
        CFI DPL0 load(1, XDATA, add(CFA_XSP16, literal(-2)))
        CFI DPH0 load(1, XDATA, add(CFA_XSP16, literal(-1)))
        CFI CFA_SP SP+0
        CFI CFA_XSP16 add(XSP16, 35)
        CFI Block cfiCond168 Using cfiCommon0
        CFI (cfiCond168) NoFunction
        CFI (cfiCond168) Conditional ??CrossCallReturnLabel_85
        CFI (cfiCond168) R6 load(1, XDATA, add(CFA_XSP16, literal(-20)))
        CFI (cfiCond168) VB load(1, XDATA, add(CFA_XSP16, literal(-19)))
        CFI (cfiCond168) V0 load(1, XDATA, add(CFA_XSP16, literal(-18)))
        CFI (cfiCond168) V1 load(1, XDATA, add(CFA_XSP16, literal(-17)))
        CFI (cfiCond168) V2 load(1, XDATA, add(CFA_XSP16, literal(-16)))
        CFI (cfiCond168) V3 load(1, XDATA, add(CFA_XSP16, literal(-15)))
        CFI (cfiCond168) V4 load(1, XDATA, add(CFA_XSP16, literal(-14)))
        CFI (cfiCond168) V5 load(1, XDATA, add(CFA_XSP16, literal(-13)))
        CFI (cfiCond168) V6 load(1, XDATA, add(CFA_XSP16, literal(-12)))
        CFI (cfiCond168) V7 load(1, XDATA, add(CFA_XSP16, literal(-11)))
        CFI (cfiCond168) V8 load(1, XDATA, add(CFA_XSP16, literal(-10)))
        CFI (cfiCond168) V9 load(1, XDATA, add(CFA_XSP16, literal(-9)))
        CFI (cfiCond168) V10 load(1, XDATA, add(CFA_XSP16, literal(-8)))
        CFI (cfiCond168) V11 load(1, XDATA, add(CFA_XSP16, literal(-7)))
        CFI (cfiCond168) R7 load(1, XDATA, add(CFA_XSP16, literal(-6)))
        CFI (cfiCond168) ?RET_LOW load(1, XDATA, add(CFA_XSP16, literal(-5)))
        CFI (cfiCond168) ?RET_HIGH load(1, XDATA, add(CFA_XSP16, literal(-4)))
        CFI (cfiCond168) ?BRET_EXT load(1, XDATA, add(CFA_XSP16, literal(-3)))
        CFI (cfiCond168) DPL0 load(1, XDATA, add(CFA_XSP16, literal(-2)))
        CFI (cfiCond168) DPH0 load(1, XDATA, add(CFA_XSP16, literal(-1)))
        CFI (cfiCond168) CFA_SP SP+0
        CFI (cfiCond168) CFA_XSP16 add(XSP16, 20)
        CFI Block cfiCond169 Using cfiCommon0
        CFI (cfiCond169) NoFunction
        CFI (cfiCond169) Conditional ??CrossCallReturnLabel_82
        CFI (cfiCond169) R6 load(1, XDATA, add(CFA_XSP16, literal(-21)))
        CFI (cfiCond169) VB load(1, XDATA, add(CFA_XSP16, literal(-20)))
        CFI (cfiCond169) V0 load(1, XDATA, add(CFA_XSP16, literal(-19)))
        CFI (cfiCond169) V1 load(1, XDATA, add(CFA_XSP16, literal(-18)))
        CFI (cfiCond169) V2 load(1, XDATA, add(CFA_XSP16, literal(-17)))
        CFI (cfiCond169) V3 load(1, XDATA, add(CFA_XSP16, literal(-16)))
        CFI (cfiCond169) V4 load(1, XDATA, add(CFA_XSP16, literal(-15)))
        CFI (cfiCond169) V5 load(1, XDATA, add(CFA_XSP16, literal(-14)))
        CFI (cfiCond169) V6 load(1, XDATA, add(CFA_XSP16, literal(-13)))
        CFI (cfiCond169) V7 load(1, XDATA, add(CFA_XSP16, literal(-12)))
        CFI (cfiCond169) V8 load(1, XDATA, add(CFA_XSP16, literal(-11)))
        CFI (cfiCond169) V9 load(1, XDATA, add(CFA_XSP16, literal(-10)))
        CFI (cfiCond169) V10 load(1, XDATA, add(CFA_XSP16, literal(-9)))
        CFI (cfiCond169) V11 load(1, XDATA, add(CFA_XSP16, literal(-8)))
        CFI (cfiCond169) V12 load(1, XDATA, add(CFA_XSP16, literal(-7)))
        CFI (cfiCond169) R7 load(1, XDATA, add(CFA_XSP16, literal(-6)))
        CFI (cfiCond169) ?RET_LOW load(1, XDATA, add(CFA_XSP16, literal(-5)))
        CFI (cfiCond169) ?RET_HIGH load(1, XDATA, add(CFA_XSP16, literal(-4)))
        CFI (cfiCond169) ?BRET_EXT load(1, XDATA, add(CFA_XSP16, literal(-3)))
        CFI (cfiCond169) DPL0 load(1, XDATA, add(CFA_XSP16, literal(-2)))
        CFI (cfiCond169) DPH0 load(1, XDATA, add(CFA_XSP16, literal(-1)))
        CFI (cfiCond169) CFA_SP SP+0
        CFI (cfiCond169) CFA_XSP16 add(XSP16, 35)
        CFI Block cfiCond170 Using cfiCommon0
        CFI (cfiCond170) NoFunction
        CFI (cfiCond170) Conditional ??CrossCallReturnLabel_83
        CFI (cfiCond170) R6 load(1, XDATA, add(CFA_XSP16, literal(-21)))
        CFI (cfiCond170) VB load(1, XDATA, add(CFA_XSP16, literal(-20)))
        CFI (cfiCond170) V0 load(1, XDATA, add(CFA_XSP16, literal(-19)))
        CFI (cfiCond170) V1 load(1, XDATA, add(CFA_XSP16, literal(-18)))
        CFI (cfiCond170) V2 load(1, XDATA, add(CFA_XSP16, literal(-17)))
        CFI (cfiCond170) V3 load(1, XDATA, add(CFA_XSP16, literal(-16)))
        CFI (cfiCond170) V4 load(1, XDATA, add(CFA_XSP16, literal(-15)))
        CFI (cfiCond170) V5 load(1, XDATA, add(CFA_XSP16, literal(-14)))
        CFI (cfiCond170) V6 load(1, XDATA, add(CFA_XSP16, literal(-13)))
        CFI (cfiCond170) V7 load(1, XDATA, add(CFA_XSP16, literal(-12)))
        CFI (cfiCond170) V8 load(1, XDATA, add(CFA_XSP16, literal(-11)))
        CFI (cfiCond170) V9 load(1, XDATA, add(CFA_XSP16, literal(-10)))
        CFI (cfiCond170) V10 load(1, XDATA, add(CFA_XSP16, literal(-9)))
        CFI (cfiCond170) V11 load(1, XDATA, add(CFA_XSP16, literal(-8)))
        CFI (cfiCond170) V12 load(1, XDATA, add(CFA_XSP16, literal(-7)))
        CFI (cfiCond170) R7 load(1, XDATA, add(CFA_XSP16, literal(-6)))
        CFI (cfiCond170) ?RET_LOW load(1, XDATA, add(CFA_XSP16, literal(-5)))
        CFI (cfiCond170) ?RET_HIGH load(1, XDATA, add(CFA_XSP16, literal(-4)))
        CFI (cfiCond170) ?BRET_EXT load(1, XDATA, add(CFA_XSP16, literal(-3)))
        CFI (cfiCond170) DPL0 load(1, XDATA, add(CFA_XSP16, literal(-2)))
        CFI (cfiCond170) DPH0 load(1, XDATA, add(CFA_XSP16, literal(-1)))
        CFI (cfiCond170) CFA_SP SP+0
        CFI (cfiCond170) CFA_XSP16 add(XSP16, 35)
        CFI Block cfiPicker171 Using cfiCommon1
        CFI (cfiPicker171) NoFunction
        CFI (cfiPicker171) Picker
        LCALL   ??Subroutine44_0 & 0xFFFF
??CrossCallReturnLabel_91:
        MOV     R1,A
        MOV     A,R2
        RET
        CFI EndBlock cfiCond167
        CFI EndBlock cfiCond168
        CFI EndBlock cfiCond169
        CFI EndBlock cfiCond170
        CFI EndBlock cfiPicker171

        RSEG BANKED_CODE:CODE:NOROOT(0)
?Subroutine30:
        CFI Block cfiCond172 Using cfiCommon0
        CFI NoFunction
        CFI Conditional ??CrossCallReturnLabel_89
        CFI R6 load(1, XDATA, add(CFA_XSP16, literal(-9)))
        CFI VB load(1, XDATA, add(CFA_XSP16, literal(-8)))
        CFI V0 load(1, XDATA, add(CFA_XSP16, literal(-7)))
        CFI R7 load(1, XDATA, add(CFA_XSP16, literal(-6)))
        CFI ?RET_LOW load(1, XDATA, add(CFA_XSP16, literal(-5)))
        CFI ?RET_HIGH load(1, XDATA, add(CFA_XSP16, literal(-4)))
        CFI ?BRET_EXT load(1, XDATA, add(CFA_XSP16, literal(-3)))
        CFI DPL0 load(1, XDATA, add(CFA_XSP16, literal(-2)))
        CFI DPH0 load(1, XDATA, add(CFA_XSP16, literal(-1)))
        CFI CFA_SP SP+0
        CFI CFA_XSP16 add(XSP16, 9)
        CFI Block cfiCond173 Using cfiCommon0
        CFI (cfiCond173) NoFunction
        CFI (cfiCond173) Conditional ??CrossCallReturnLabel_90
        CFI (cfiCond173) R6 load(1, XDATA, add(CFA_XSP16, literal(-20)))
        CFI (cfiCond173) VB load(1, XDATA, add(CFA_XSP16, literal(-19)))
        CFI (cfiCond173) V0 load(1, XDATA, add(CFA_XSP16, literal(-18)))
        CFI (cfiCond173) V1 load(1, XDATA, add(CFA_XSP16, literal(-17)))
        CFI (cfiCond173) V2 load(1, XDATA, add(CFA_XSP16, literal(-16)))
        CFI (cfiCond173) V3 load(1, XDATA, add(CFA_XSP16, literal(-15)))
        CFI (cfiCond173) V4 load(1, XDATA, add(CFA_XSP16, literal(-14)))
        CFI (cfiCond173) V5 load(1, XDATA, add(CFA_XSP16, literal(-13)))
        CFI (cfiCond173) V6 load(1, XDATA, add(CFA_XSP16, literal(-12)))
        CFI (cfiCond173) V7 load(1, XDATA, add(CFA_XSP16, literal(-11)))
        CFI (cfiCond173) V8 load(1, XDATA, add(CFA_XSP16, literal(-10)))
        CFI (cfiCond173) V9 load(1, XDATA, add(CFA_XSP16, literal(-9)))
        CFI (cfiCond173) V10 load(1, XDATA, add(CFA_XSP16, literal(-8)))
        CFI (cfiCond173) V11 load(1, XDATA, add(CFA_XSP16, literal(-7)))
        CFI (cfiCond173) R7 load(1, XDATA, add(CFA_XSP16, literal(-6)))
        CFI (cfiCond173) ?RET_LOW load(1, XDATA, add(CFA_XSP16, literal(-5)))
        CFI (cfiCond173) ?RET_HIGH load(1, XDATA, add(CFA_XSP16, literal(-4)))
        CFI (cfiCond173) ?BRET_EXT load(1, XDATA, add(CFA_XSP16, literal(-3)))
        CFI (cfiCond173) DPL0 load(1, XDATA, add(CFA_XSP16, literal(-2)))
        CFI (cfiCond173) DPH0 load(1, XDATA, add(CFA_XSP16, literal(-1)))
        CFI (cfiCond173) CFA_SP SP+0
        CFI (cfiCond173) CFA_XSP16 add(XSP16, 20)
        CFI Block cfiPicker174 Using cfiCommon1
        CFI (cfiPicker174) NoFunction
        CFI (cfiPicker174) Picker
        MOV     DPTR,#pMtAfInMsgList
        CFI EndBlock cfiCond172
        CFI EndBlock cfiCond173
        CFI EndBlock cfiPicker174
        REQUIRE ??Subroutine44_0
        ; // Fall through to label ??Subroutine44_0

        RSEG BANKED_CODE:CODE:NOROOT(0)
??Subroutine44_0:
        CFI Block cfiCond175 Using cfiCommon0
        CFI NoFunction
        CFI Conditional ??CrossCallReturnLabel_86
        CFI R6 load(1, XDATA, add(CFA_XSP16, literal(-9)))
        CFI VB load(1, XDATA, add(CFA_XSP16, literal(-8)))
        CFI V0 load(1, XDATA, add(CFA_XSP16, literal(-7)))
        CFI R7 load(1, XDATA, add(CFA_XSP16, literal(-6)))
        CFI ?RET_LOW load(1, XDATA, add(CFA_XSP16, literal(-5)))
        CFI ?RET_HIGH load(1, XDATA, add(CFA_XSP16, literal(-4)))
        CFI ?BRET_EXT load(1, XDATA, add(CFA_XSP16, literal(-3)))
        CFI DPL0 load(1, XDATA, add(CFA_XSP16, literal(-2)))
        CFI DPH0 load(1, XDATA, add(CFA_XSP16, literal(-1)))
        CFI CFA_SP SP+0
        CFI CFA_XSP16 add(XSP16, 9)
        CFI Block cfiCond176 Using cfiCommon0
        CFI (cfiCond176) NoFunction
        CFI (cfiCond176) Conditional ??CrossCallReturnLabel_87
        CFI (cfiCond176) R6 load(1, XDATA, add(CFA_XSP16, literal(-24)))
        CFI (cfiCond176) VB load(1, XDATA, add(CFA_XSP16, literal(-23)))
        CFI (cfiCond176) V0 load(1, XDATA, add(CFA_XSP16, literal(-22)))
        CFI (cfiCond176) V1 load(1, XDATA, add(CFA_XSP16, literal(-21)))
        CFI (cfiCond176) V2 load(1, XDATA, add(CFA_XSP16, literal(-20)))
        CFI (cfiCond176) V3 load(1, XDATA, add(CFA_XSP16, literal(-19)))
        CFI (cfiCond176) V4 load(1, XDATA, add(CFA_XSP16, literal(-18)))
        CFI (cfiCond176) V5 load(1, XDATA, add(CFA_XSP16, literal(-17)))
        CFI (cfiCond176) V6 load(1, XDATA, add(CFA_XSP16, literal(-16)))
        CFI (cfiCond176) V7 load(1, XDATA, add(CFA_XSP16, literal(-15)))
        CFI (cfiCond176) V8 load(1, XDATA, add(CFA_XSP16, literal(-14)))
        CFI (cfiCond176) V9 load(1, XDATA, add(CFA_XSP16, literal(-13)))
        CFI (cfiCond176) V10 load(1, XDATA, add(CFA_XSP16, literal(-12)))
        CFI (cfiCond176) V11 load(1, XDATA, add(CFA_XSP16, literal(-11)))
        CFI (cfiCond176) V12 load(1, XDATA, add(CFA_XSP16, literal(-10)))
        CFI (cfiCond176) V13 load(1, XDATA, add(CFA_XSP16, literal(-9)))
        CFI (cfiCond176) V14 load(1, XDATA, add(CFA_XSP16, literal(-8)))
        CFI (cfiCond176) V15 load(1, XDATA, add(CFA_XSP16, literal(-7)))
        CFI (cfiCond176) R7 load(1, XDATA, add(CFA_XSP16, literal(-6)))
        CFI (cfiCond176) ?RET_LOW load(1, XDATA, add(CFA_XSP16, literal(-5)))
        CFI (cfiCond176) ?RET_HIGH load(1, XDATA, add(CFA_XSP16, literal(-4)))
        CFI (cfiCond176) ?BRET_EXT load(1, XDATA, add(CFA_XSP16, literal(-3)))
        CFI (cfiCond176) DPL0 load(1, XDATA, add(CFA_XSP16, literal(-2)))
        CFI (cfiCond176) DPH0 load(1, XDATA, add(CFA_XSP16, literal(-1)))
        CFI (cfiCond176) CFA_SP SP+0
        CFI (cfiCond176) CFA_XSP16 add(XSP16, 28)
        CFI Block cfiCond177 Using cfiCommon0
        CFI (cfiCond177) NoFunction
        CFI (cfiCond177) Conditional ??CrossCallReturnLabel_91, ??CrossCallReturnLabel_82
        CFI (cfiCond177) R6 load(1, XDATA, add(CFA_XSP16, literal(-21)))
        CFI (cfiCond177) VB load(1, XDATA, add(CFA_XSP16, literal(-20)))
        CFI (cfiCond177) V0 load(1, XDATA, add(CFA_XSP16, literal(-19)))
        CFI (cfiCond177) V1 load(1, XDATA, add(CFA_XSP16, literal(-18)))
        CFI (cfiCond177) V2 load(1, XDATA, add(CFA_XSP16, literal(-17)))
        CFI (cfiCond177) V3 load(1, XDATA, add(CFA_XSP16, literal(-16)))
        CFI (cfiCond177) V4 load(1, XDATA, add(CFA_XSP16, literal(-15)))
        CFI (cfiCond177) V5 load(1, XDATA, add(CFA_XSP16, literal(-14)))
        CFI (cfiCond177) V6 load(1, XDATA, add(CFA_XSP16, literal(-13)))
        CFI (cfiCond177) V7 load(1, XDATA, add(CFA_XSP16, literal(-12)))
        CFI (cfiCond177) V8 load(1, XDATA, add(CFA_XSP16, literal(-11)))
        CFI (cfiCond177) V9 load(1, XDATA, add(CFA_XSP16, literal(-10)))
        CFI (cfiCond177) V10 load(1, XDATA, add(CFA_XSP16, literal(-9)))
        CFI (cfiCond177) V11 load(1, XDATA, add(CFA_XSP16, literal(-8)))
        CFI (cfiCond177) V12 load(1, XDATA, add(CFA_XSP16, literal(-7)))
        CFI (cfiCond177) R7 load(1, XDATA, add(CFA_XSP16, literal(-6)))
        CFI (cfiCond177) ?RET_LOW load(1, XDATA, add(CFA_XSP16, literal(-5)))
        CFI (cfiCond177) ?RET_HIGH load(1, XDATA, add(CFA_XSP16, literal(-4)))
        CFI (cfiCond177) ?BRET_EXT load(1, XDATA, add(CFA_XSP16, literal(-3)))
        CFI (cfiCond177) DPL0 load(1, XDATA, add(CFA_XSP16, literal(-2)))
        CFI (cfiCond177) DPH0 load(1, XDATA, add(CFA_XSP16, literal(-1)))
        CFI (cfiCond177) CFA_SP SP+0
        CFI (cfiCond177) CFA_XSP16 add(XSP16, 35)
        CFI Block cfiCond178 Using cfiCommon0
        CFI (cfiCond178) NoFunction
        CFI (cfiCond178) Conditional ??CrossCallReturnLabel_91, ??CrossCallReturnLabel_83
        CFI (cfiCond178) R6 load(1, XDATA, add(CFA_XSP16, literal(-21)))
        CFI (cfiCond178) VB load(1, XDATA, add(CFA_XSP16, literal(-20)))
        CFI (cfiCond178) V0 load(1, XDATA, add(CFA_XSP16, literal(-19)))
        CFI (cfiCond178) V1 load(1, XDATA, add(CFA_XSP16, literal(-18)))
        CFI (cfiCond178) V2 load(1, XDATA, add(CFA_XSP16, literal(-17)))
        CFI (cfiCond178) V3 load(1, XDATA, add(CFA_XSP16, literal(-16)))
        CFI (cfiCond178) V4 load(1, XDATA, add(CFA_XSP16, literal(-15)))
        CFI (cfiCond178) V5 load(1, XDATA, add(CFA_XSP16, literal(-14)))
        CFI (cfiCond178) V6 load(1, XDATA, add(CFA_XSP16, literal(-13)))
        CFI (cfiCond178) V7 load(1, XDATA, add(CFA_XSP16, literal(-12)))
        CFI (cfiCond178) V8 load(1, XDATA, add(CFA_XSP16, literal(-11)))
        CFI (cfiCond178) V9 load(1, XDATA, add(CFA_XSP16, literal(-10)))
        CFI (cfiCond178) V10 load(1, XDATA, add(CFA_XSP16, literal(-9)))
        CFI (cfiCond178) V11 load(1, XDATA, add(CFA_XSP16, literal(-8)))
        CFI (cfiCond178) V12 load(1, XDATA, add(CFA_XSP16, literal(-7)))
        CFI (cfiCond178) R7 load(1, XDATA, add(CFA_XSP16, literal(-6)))
        CFI (cfiCond178) ?RET_LOW load(1, XDATA, add(CFA_XSP16, literal(-5)))
        CFI (cfiCond178) ?RET_HIGH load(1, XDATA, add(CFA_XSP16, literal(-4)))
        CFI (cfiCond178) ?BRET_EXT load(1, XDATA, add(CFA_XSP16, literal(-3)))
        CFI (cfiCond178) DPL0 load(1, XDATA, add(CFA_XSP16, literal(-2)))
        CFI (cfiCond178) DPH0 load(1, XDATA, add(CFA_XSP16, literal(-1)))
        CFI (cfiCond178) CFA_SP SP+0
        CFI (cfiCond178) CFA_XSP16 add(XSP16, 35)
        CFI Block cfiCond179 Using cfiCommon0
        CFI (cfiCond179) NoFunction
        CFI (cfiCond179) Conditional ??CrossCallReturnLabel_91, ??CrossCallReturnLabel_84
        CFI (cfiCond179) R6 load(1, XDATA, add(CFA_XSP16, literal(-21)))
        CFI (cfiCond179) VB load(1, XDATA, add(CFA_XSP16, literal(-20)))
        CFI (cfiCond179) V0 load(1, XDATA, add(CFA_XSP16, literal(-19)))
        CFI (cfiCond179) V1 load(1, XDATA, add(CFA_XSP16, literal(-18)))
        CFI (cfiCond179) V2 load(1, XDATA, add(CFA_XSP16, literal(-17)))
        CFI (cfiCond179) V3 load(1, XDATA, add(CFA_XSP16, literal(-16)))
        CFI (cfiCond179) V4 load(1, XDATA, add(CFA_XSP16, literal(-15)))
        CFI (cfiCond179) V5 load(1, XDATA, add(CFA_XSP16, literal(-14)))
        CFI (cfiCond179) V6 load(1, XDATA, add(CFA_XSP16, literal(-13)))
        CFI (cfiCond179) V7 load(1, XDATA, add(CFA_XSP16, literal(-12)))
        CFI (cfiCond179) V8 load(1, XDATA, add(CFA_XSP16, literal(-11)))
        CFI (cfiCond179) V9 load(1, XDATA, add(CFA_XSP16, literal(-10)))
        CFI (cfiCond179) V10 load(1, XDATA, add(CFA_XSP16, literal(-9)))
        CFI (cfiCond179) V11 load(1, XDATA, add(CFA_XSP16, literal(-8)))
        CFI (cfiCond179) V12 load(1, XDATA, add(CFA_XSP16, literal(-7)))
        CFI (cfiCond179) R7 load(1, XDATA, add(CFA_XSP16, literal(-6)))
        CFI (cfiCond179) ?RET_LOW load(1, XDATA, add(CFA_XSP16, literal(-5)))
        CFI (cfiCond179) ?RET_HIGH load(1, XDATA, add(CFA_XSP16, literal(-4)))
        CFI (cfiCond179) ?BRET_EXT load(1, XDATA, add(CFA_XSP16, literal(-3)))
        CFI (cfiCond179) DPL0 load(1, XDATA, add(CFA_XSP16, literal(-2)))
        CFI (cfiCond179) DPH0 load(1, XDATA, add(CFA_XSP16, literal(-1)))
        CFI (cfiCond179) CFA_SP SP+0
        CFI (cfiCond179) CFA_XSP16 add(XSP16, 35)
        CFI Block cfiCond180 Using cfiCommon0
        CFI (cfiCond180) NoFunction
        CFI (cfiCond180) Conditional ??CrossCallReturnLabel_91, ??CrossCallReturnLabel_85
        CFI (cfiCond180) R6 load(1, XDATA, add(CFA_XSP16, literal(-20)))
        CFI (cfiCond180) VB load(1, XDATA, add(CFA_XSP16, literal(-19)))
        CFI (cfiCond180) V0 load(1, XDATA, add(CFA_XSP16, literal(-18)))
        CFI (cfiCond180) V1 load(1, XDATA, add(CFA_XSP16, literal(-17)))
        CFI (cfiCond180) V2 load(1, XDATA, add(CFA_XSP16, literal(-16)))
        CFI (cfiCond180) V3 load(1, XDATA, add(CFA_XSP16, literal(-15)))
        CFI (cfiCond180) V4 load(1, XDATA, add(CFA_XSP16, literal(-14)))
        CFI (cfiCond180) V5 load(1, XDATA, add(CFA_XSP16, literal(-13)))
        CFI (cfiCond180) V6 load(1, XDATA, add(CFA_XSP16, literal(-12)))
        CFI (cfiCond180) V7 load(1, XDATA, add(CFA_XSP16, literal(-11)))
        CFI (cfiCond180) V8 load(1, XDATA, add(CFA_XSP16, literal(-10)))
        CFI (cfiCond180) V9 load(1, XDATA, add(CFA_XSP16, literal(-9)))
        CFI (cfiCond180) V10 load(1, XDATA, add(CFA_XSP16, literal(-8)))
        CFI (cfiCond180) V11 load(1, XDATA, add(CFA_XSP16, literal(-7)))
        CFI (cfiCond180) R7 load(1, XDATA, add(CFA_XSP16, literal(-6)))
        CFI (cfiCond180) ?RET_LOW load(1, XDATA, add(CFA_XSP16, literal(-5)))
        CFI (cfiCond180) ?RET_HIGH load(1, XDATA, add(CFA_XSP16, literal(-4)))
        CFI (cfiCond180) ?BRET_EXT load(1, XDATA, add(CFA_XSP16, literal(-3)))
        CFI (cfiCond180) DPL0 load(1, XDATA, add(CFA_XSP16, literal(-2)))
        CFI (cfiCond180) DPH0 load(1, XDATA, add(CFA_XSP16, literal(-1)))
        CFI (cfiCond180) CFA_SP SP+0
        CFI (cfiCond180) CFA_XSP16 add(XSP16, 20)
        CFI Block cfiCond181 Using cfiCommon0
        CFI (cfiCond181) NoFunction
        CFI (cfiCond181) Conditional ??CrossCallReturnLabel_88, ??CrossCallReturnLabel_6
        CFI (cfiCond181) R6 load(1, XDATA, add(CFA_XSP16, literal(-9)))
        CFI (cfiCond181) VB load(1, XDATA, add(CFA_XSP16, literal(-8)))
        CFI (cfiCond181) V0 load(1, XDATA, add(CFA_XSP16, literal(-7)))
        CFI (cfiCond181) R7 load(1, XDATA, add(CFA_XSP16, literal(-6)))
        CFI (cfiCond181) ?RET_LOW load(1, XDATA, add(CFA_XSP16, literal(-5)))
        CFI (cfiCond181) ?RET_HIGH load(1, XDATA, add(CFA_XSP16, literal(-4)))
        CFI (cfiCond181) ?BRET_EXT load(1, XDATA, add(CFA_XSP16, literal(-3)))
        CFI (cfiCond181) DPL0 load(1, XDATA, add(CFA_XSP16, literal(-2)))
        CFI (cfiCond181) DPH0 load(1, XDATA, add(CFA_XSP16, literal(-1)))
        CFI (cfiCond181) CFA_SP SP+0
        CFI (cfiCond181) CFA_XSP16 add(XSP16, 9)
        CFI Block cfiCond182 Using cfiCommon0
        CFI (cfiCond182) NoFunction
        CFI (cfiCond182) Conditional ??CrossCallReturnLabel_88, ??CrossCallReturnLabel_7
        CFI (cfiCond182) R6 load(1, XDATA, add(CFA_XSP16, literal(-14)))
        CFI (cfiCond182) VB load(1, XDATA, add(CFA_XSP16, literal(-13)))
        CFI (cfiCond182) V0 load(1, XDATA, add(CFA_XSP16, literal(-12)))
        CFI (cfiCond182) V1 load(1, XDATA, add(CFA_XSP16, literal(-11)))
        CFI (cfiCond182) V2 load(1, XDATA, add(CFA_XSP16, literal(-10)))
        CFI (cfiCond182) V3 load(1, XDATA, add(CFA_XSP16, literal(-9)))
        CFI (cfiCond182) V4 load(1, XDATA, add(CFA_XSP16, literal(-8)))
        CFI (cfiCond182) V5 load(1, XDATA, add(CFA_XSP16, literal(-7)))
        CFI (cfiCond182) R7 load(1, XDATA, add(CFA_XSP16, literal(-6)))
        CFI (cfiCond182) ?RET_LOW load(1, XDATA, add(CFA_XSP16, literal(-5)))
        CFI (cfiCond182) ?RET_HIGH load(1, XDATA, add(CFA_XSP16, literal(-4)))
        CFI (cfiCond182) ?BRET_EXT load(1, XDATA, add(CFA_XSP16, literal(-3)))
        CFI (cfiCond182) DPL0 load(1, XDATA, add(CFA_XSP16, literal(-2)))
        CFI (cfiCond182) DPH0 load(1, XDATA, add(CFA_XSP16, literal(-1)))
        CFI (cfiCond182) CFA_SP SP+0
        CFI (cfiCond182) CFA_XSP16 add(XSP16, 15)
        CFI Block cfiCond183 Using cfiCommon0
        CFI (cfiCond183) NoFunction
        CFI (cfiCond183) Conditional ??CrossCallReturnLabel_89
        CFI (cfiCond183) R6 load(1, XDATA, add(CFA_XSP16, literal(-9)))
        CFI (cfiCond183) VB load(1, XDATA, add(CFA_XSP16, literal(-8)))
        CFI (cfiCond183) V0 load(1, XDATA, add(CFA_XSP16, literal(-7)))
        CFI (cfiCond183) R7 load(1, XDATA, add(CFA_XSP16, literal(-6)))
        CFI (cfiCond183) ?RET_LOW load(1, XDATA, add(CFA_XSP16, literal(-5)))
        CFI (cfiCond183) ?RET_HIGH load(1, XDATA, add(CFA_XSP16, literal(-4)))
        CFI (cfiCond183) ?BRET_EXT load(1, XDATA, add(CFA_XSP16, literal(-3)))
        CFI (cfiCond183) DPL0 load(1, XDATA, add(CFA_XSP16, literal(-2)))
        CFI (cfiCond183) DPH0 load(1, XDATA, add(CFA_XSP16, literal(-1)))
        CFI (cfiCond183) CFA_SP SP+0
        CFI (cfiCond183) CFA_XSP16 add(XSP16, 9)
        CFI Block cfiCond184 Using cfiCommon0
        CFI (cfiCond184) NoFunction
        CFI (cfiCond184) Conditional ??CrossCallReturnLabel_90
        CFI (cfiCond184) R6 load(1, XDATA, add(CFA_XSP16, literal(-20)))
        CFI (cfiCond184) VB load(1, XDATA, add(CFA_XSP16, literal(-19)))
        CFI (cfiCond184) V0 load(1, XDATA, add(CFA_XSP16, literal(-18)))
        CFI (cfiCond184) V1 load(1, XDATA, add(CFA_XSP16, literal(-17)))
        CFI (cfiCond184) V2 load(1, XDATA, add(CFA_XSP16, literal(-16)))
        CFI (cfiCond184) V3 load(1, XDATA, add(CFA_XSP16, literal(-15)))
        CFI (cfiCond184) V4 load(1, XDATA, add(CFA_XSP16, literal(-14)))
        CFI (cfiCond184) V5 load(1, XDATA, add(CFA_XSP16, literal(-13)))
        CFI (cfiCond184) V6 load(1, XDATA, add(CFA_XSP16, literal(-12)))
        CFI (cfiCond184) V7 load(1, XDATA, add(CFA_XSP16, literal(-11)))
        CFI (cfiCond184) V8 load(1, XDATA, add(CFA_XSP16, literal(-10)))
        CFI (cfiCond184) V9 load(1, XDATA, add(CFA_XSP16, literal(-9)))
        CFI (cfiCond184) V10 load(1, XDATA, add(CFA_XSP16, literal(-8)))
        CFI (cfiCond184) V11 load(1, XDATA, add(CFA_XSP16, literal(-7)))
        CFI (cfiCond184) R7 load(1, XDATA, add(CFA_XSP16, literal(-6)))
        CFI (cfiCond184) ?RET_LOW load(1, XDATA, add(CFA_XSP16, literal(-5)))
        CFI (cfiCond184) ?RET_HIGH load(1, XDATA, add(CFA_XSP16, literal(-4)))
        CFI (cfiCond184) ?BRET_EXT load(1, XDATA, add(CFA_XSP16, literal(-3)))
        CFI (cfiCond184) DPL0 load(1, XDATA, add(CFA_XSP16, literal(-2)))
        CFI (cfiCond184) DPH0 load(1, XDATA, add(CFA_XSP16, literal(-1)))
        CFI (cfiCond184) CFA_SP SP+0
        CFI (cfiCond184) CFA_XSP16 add(XSP16, 20)
        CFI Block cfiPicker185 Using cfiCommon1
        CFI (cfiPicker185) NoFunction
        CFI (cfiPicker185) Picker
        MOVX    A,@DPTR
        MOV     R2,A
        INC     DPTR
        MOVX    A,@DPTR
        RET
        CFI EndBlock cfiCond175
        CFI EndBlock cfiCond176
        CFI EndBlock cfiCond177
        CFI EndBlock cfiCond178
        CFI EndBlock cfiCond179
        CFI EndBlock cfiCond180
        CFI EndBlock cfiCond181
        CFI EndBlock cfiCond182
        CFI EndBlock cfiCond183
        CFI EndBlock cfiCond184
        CFI EndBlock cfiPicker185
//  858 
//  859 /**************************************************************************************************
//  860  * @fn          MT_AfDataStore
//  861  *
//  862  * @brief   Process AF Data Store command to incrementally store the data buffer for very large
//  863  *          outgoing AF message.
//  864  *
//  865  * input parameters
//  866  *
//  867  * @param pBuf - pointer to the received buffer
//  868  *
//  869  * output parameters
//  870  *
//  871  * @param rtrn - AF-Status of the operation.
//  872  *
//  873  * @return      None.
//  874  **************************************************************************************************
//  875  */

        RSEG BANKED_CODE:CODE:NOROOT(0)
//  876 void MT_AfDataStore(uint8 *pBuf)
MT_AfDataStore:
        CFI Block cfiBlock186 Using cfiCommon0
        CFI Function MT_AfDataStore
//  877 {
        FUNCALL MT_AfDataStore, AF_DataRequest
        LOCFRAME ISTACK, 0, STACK
        LOCFRAME PSTACK, 0, STACK
        LOCFRAME XSTACK, 24, STACK
        LOCFRAME IOVERLAY, 0, STATIC
        LOCFRAME DOVERLAY, 0, STATIC
        ARGFRAME ISTACK, 0, STACK
        ARGFRAME PSTACK, 0, STACK
        ARGFRAME XSTACK, 24, STACK
        ARGFRAME IOVERLAY, 0, STATIC
        ARGFRAME DOVERLAY, 0, STATIC
        FUNCALL MT_AfDataStore, osal_mem_free
        LOCFRAME ISTACK, 0, STACK
        LOCFRAME PSTACK, 0, STACK
        LOCFRAME XSTACK, 15, STACK
        LOCFRAME IOVERLAY, 0, STATIC
        LOCFRAME DOVERLAY, 0, STATIC
        ARGFRAME ISTACK, 0, STACK
        ARGFRAME PSTACK, 0, STACK
        ARGFRAME XSTACK, 15, STACK
        ARGFRAME IOVERLAY, 0, STATIC
        ARGFRAME DOVERLAY, 0, STATIC
        FUNCALL MT_AfDataStore, osal_memcpy
        LOCFRAME ISTACK, 0, STACK
        LOCFRAME PSTACK, 0, STACK
        LOCFRAME XSTACK, 18, STACK
        LOCFRAME IOVERLAY, 0, STATIC
        LOCFRAME DOVERLAY, 0, STATIC
        ARGFRAME ISTACK, 0, STACK
        ARGFRAME PSTACK, 0, STACK
        ARGFRAME XSTACK, 18, STACK
        ARGFRAME IOVERLAY, 0, STATIC
        ARGFRAME DOVERLAY, 0, STATIC
        FUNCALL MT_AfDataStore, MT_BuildAndSendZToolResponse
        LOCFRAME ISTACK, 0, STACK
        LOCFRAME PSTACK, 0, STACK
        LOCFRAME XSTACK, 15, STACK
        LOCFRAME IOVERLAY, 0, STATIC
        LOCFRAME DOVERLAY, 0, STATIC
        ARGFRAME ISTACK, 0, STACK
        ARGFRAME PSTACK, 0, STACK
        ARGFRAME XSTACK, 15, STACK
        ARGFRAME IOVERLAY, 0, STATIC
        ARGFRAME DOVERLAY, 0, STATIC
        MOV     A,#-0xe
        LCALL   ?BANKED_ENTER_XDATA
        CFI DPH0 load(1, XDATA, add(CFA_XSP16, literal(-1)))
        CFI DPL0 load(1, XDATA, add(CFA_XSP16, literal(-2)))
        CFI ?BRET_EXT load(1, XDATA, add(CFA_XSP16, literal(-3)))
        CFI ?RET_HIGH load(1, XDATA, add(CFA_XSP16, literal(-4)))
        CFI ?RET_LOW load(1, XDATA, add(CFA_XSP16, literal(-5)))
        CFI R7 load(1, XDATA, add(CFA_XSP16, literal(-6)))
        CFI V5 load(1, XDATA, add(CFA_XSP16, literal(-7)))
        CFI V4 load(1, XDATA, add(CFA_XSP16, literal(-8)))
        CFI V3 load(1, XDATA, add(CFA_XSP16, literal(-9)))
        CFI V2 load(1, XDATA, add(CFA_XSP16, literal(-10)))
        CFI V1 load(1, XDATA, add(CFA_XSP16, literal(-11)))
        CFI V0 load(1, XDATA, add(CFA_XSP16, literal(-12)))
        CFI VB load(1, XDATA, add(CFA_XSP16, literal(-13)))
        CFI R6 load(1, XDATA, add(CFA_XSP16, literal(-14)))
        CFI CFA_SP SP+0
        CFI CFA_XSP16 add(XSP16, 14)
        ; Saved register size: 14
        ; Auto size: 1
        MOV     A,#-0x1
        LCALL   ?ALLOC_XSTACK8
        CFI CFA_XSP16 add(XSP16, 15)
//  878   uint16 idx;
//  879   uint8 len, rtrn = afStatus_FAILED;
        MOV     A,#0x1
        MOV     DPL,?XSP + 0
        MOV     DPH,?XSP + 1
        MOVX    @DPTR,A
//  880 
//  881   pBuf += MT_RPC_FRAME_HDR_SZ;
        MOV     A,R2
        ADD     A,#0x3
        INC     R2
        INC     R2
        INC     R2
        MOV     A,R3
        LCALL   ?Subroutine15 & 0xFFFF
//  882   idx = BUILD_UINT16(pBuf[0], pBuf[1]);
??CrossCallReturnLabel_15:
        MOV     R1,A
        MOV     A,R4
        MOV     R6,A
        MOV     A,R1
        MOV     R7,A
//  883   len = pBuf[2];
        MOV     DPL,R2
        MOV     DPH,R3
        INC     DPTR
        INC     DPTR
        MOVX    A,@DPTR
        MOV     R4,A
//  884   pBuf += 3;
        MOV     A,R2
        ADD     A,#0x3
        INC     R2
        INC     R2
        INC     R2
        MOV     A,R3
        ADDC    A,#0x0
        MOV     R3,A
//  885 
//  886   if (pMtAfDataReq == NULL)
        MOV     DPTR,#pMtAfDataReq
        MOVX    A,@DPTR
        JNZ     ??MT_AfDataStore_0
        INC     DPTR
        MOVX    A,@DPTR
??MT_AfDataStore_0:
        JNZ     ??MT_AfDataStore_1
//  887   {
//  888     rtrn = afStatus_MEM_FAIL;
        MOV     A,#0x10
        LJMP    ??MT_AfDataStore_2 & 0xFFFF
//  889   }
//  890   else if (len == 0)  // Indication to send the message.
??MT_AfDataStore_1:
        LCALL   ?Subroutine12 & 0xFFFF
??CrossCallReturnLabel_11:
        LCALL   ??Subroutine45_0 & 0xFFFF
??CrossCallReturnLabel_93:
        MOV     A,R4
        JNZ     ??MT_AfDataStore_3
//  891   {
//  892     rtrn = AF_DataRequest(&(pMtAfDataReq->dstAddr), pMtAfDataReq->epDesc, pMtAfDataReq->cId, 
//  893                             pMtAfDataReq->dataLen,  pMtAfDataReq->data, 
//  894                           &(pMtAfDataReq->transId), pMtAfDataReq->txOpts, pMtAfDataReq->radius);
        ; Setup parameters for call to function AF_DataRequest
        MOV     DPTR,#pMtAfDataReq
        MOVX    A,@DPTR
        ADD     A,#0x16
        LCALL   ??Subroutine36_0 & 0xFFFF
??CrossCallReturnLabel_49:
        MOV     ?V0 + 0,A
        MOV     R0,#?V0 + 0
        LCALL   ?PUSH_XSTACK_I_ONE
        CFI CFA_XSP16 add(XSP16, 16)
        MOV     DPTR,#pMtAfDataReq
        MOVX    A,@DPTR
        ADD     A,#0x14
        MOV     ?V0 + 0,A
        INC     DPTR
        MOVX    A,@DPTR
        ADDC    A,#0x0
        MOV     ?V0 + 1,A
        MOV     R0,#?V0 + 0
        LCALL   ?PUSH_XSTACK_I_TWO
        CFI CFA_XSP16 add(XSP16, 18)
        MOV     R0,#?V0 + 4
        LCALL   ?PUSH_XSTACK_I_TWO
        CFI CFA_XSP16 add(XSP16, 20)
        MOV     DPTR,#pMtAfDataReq
        MOVX    A,@DPTR
        ADD     A,#0x12
        LCALL   ??Subroutine46_0 & 0xFFFF
??CrossCallReturnLabel_102:
        LCALL   ?PUSH_XSTACK8_X_TWO
        CFI CFA_XSP16 add(XSP16, 22)
        LCALL   ?Subroutine4 & 0xFFFF
??CrossCallReturnLabel_104:
        LCALL   ?PUSH_XSTACK8_X_TWO
        CFI CFA_XSP16 add(XSP16, 24)
        MOV     DPTR,#pMtAfDataReq
        MOVX    A,@DPTR
        ADD     A,#0x15
        LCALL   ??Subroutine36_0 & 0xFFFF
??CrossCallReturnLabel_50:
        MOV     R1,A
        MOV     DPTR,#pMtAfDataReq
        MOVX    A,@DPTR
        ADD     A,#0xe
        MOV     R2,A
        INC     DPTR
        MOVX    A,@DPTR
        LCALL   ?Subroutine15 & 0xFFFF
??CrossCallReturnLabel_16:
        MOV     R5,A
        LCALL   ?Subroutine11 & 0xFFFF
??CrossCallReturnLabel_9:
        LCALL   ??AF_DataRequest?relay
        MOV     A,#0x9
        LCALL   ?DEALLOC_XSTACK8
        CFI CFA_XSP16 add(XSP16, 15)
        MOV     A,R1
        MOV     DPL,?XSP + 0
        MOV     DPH,?XSP + 1
        MOVX    @DPTR,A
//  895     (void)osal_mem_free(pMtAfDataReq);
        ; Setup parameters for call to function osal_mem_free
        LCALL   ?Subroutine8 & 0xFFFF
//  896     pMtAfDataReq = NULL;
//  897   }
??CrossCallReturnLabel_7:
        SJMP    ??MT_AfDataStore_4
//  898   else
//  899   {
//  900     (void)osal_memcpy(pMtAfDataReq->data+idx, pBuf, len);
??MT_AfDataStore_3:
        ; Setup parameters for call to function osal_memcpy
        MOV     ?V0 + 0,R2
        MOV     ?V0 + 1,R3
        MOV     ?V0 + 2,#0x0
        MOV     R0,#?V0 + 0
        LCALL   ?PUSH_XSTACK_I_THREE
        CFI CFA_XSP16 add(XSP16, 18)
        MOV     R5,#0x0
        MOV     A,?V0 + 4
        ADD     A,R6
        MOV     R2,A
        MOV     A,?V0 + 5
        ADDC    A,R7
        LCALL   ?Subroutine26 & 0xFFFF
??CrossCallReturnLabel_77:
        LCALL   ?DEALLOC_XSTACK8
        CFI CFA_XSP16 add(XSP16, 15)
//  901     rtrn = afStatus_SUCCESS;
        CLR     A
??MT_AfDataStore_2:
        MOV     DPL,?XSP + 0
        MOV     DPH,?XSP + 1
//  902   }
??MT_AfDataStore_4:
        LCALL   ?Subroutine18 & 0xFFFF
//  903 
//  904   MT_BuildAndSendZToolResponse(((uint8)MT_RPC_CMD_SRSP | (uint8)MT_RPC_SYS_AF), 
//  905                                                                 MT_AF_DATA_STORE, 1, &rtrn);
??CrossCallReturnLabel_24:
        MOV     R3,#0x1
        MOV     R2,#0x11
        LJMP    ?Subroutine1 & 0xFFFF
        CFI EndBlock cfiBlock186
//  906 }

        RSEG BANKED_CODE:CODE:NOROOT(0)
?Subroutine18:
        CFI Block cfiCond187 Using cfiCommon0
        CFI NoFunction
        CFI Conditional ??CrossCallReturnLabel_23
        CFI DPL0 Frame(CFA_SP, 4)
        CFI DPH0 Frame(CFA_SP, 5)
        CFI CFA_SP SP+-5
        CFI CFA_XSP16 add(XSP16, 3)
        CFI Block cfiCond188 Using cfiCommon0
        CFI (cfiCond188) NoFunction
        CFI (cfiCond188) Conditional ??CrossCallReturnLabel_24
        CFI (cfiCond188) R6 load(1, XDATA, add(CFA_XSP16, literal(-14)))
        CFI (cfiCond188) VB load(1, XDATA, add(CFA_XSP16, literal(-13)))
        CFI (cfiCond188) V0 load(1, XDATA, add(CFA_XSP16, literal(-12)))
        CFI (cfiCond188) V1 load(1, XDATA, add(CFA_XSP16, literal(-11)))
        CFI (cfiCond188) V2 load(1, XDATA, add(CFA_XSP16, literal(-10)))
        CFI (cfiCond188) V3 load(1, XDATA, add(CFA_XSP16, literal(-9)))
        CFI (cfiCond188) V4 load(1, XDATA, add(CFA_XSP16, literal(-8)))
        CFI (cfiCond188) V5 load(1, XDATA, add(CFA_XSP16, literal(-7)))
        CFI (cfiCond188) R7 load(1, XDATA, add(CFA_XSP16, literal(-6)))
        CFI (cfiCond188) ?RET_LOW load(1, XDATA, add(CFA_XSP16, literal(-5)))
        CFI (cfiCond188) ?RET_HIGH load(1, XDATA, add(CFA_XSP16, literal(-4)))
        CFI (cfiCond188) ?BRET_EXT load(1, XDATA, add(CFA_XSP16, literal(-3)))
        CFI (cfiCond188) DPL0 load(1, XDATA, add(CFA_XSP16, literal(-2)))
        CFI (cfiCond188) DPH0 load(1, XDATA, add(CFA_XSP16, literal(-1)))
        CFI (cfiCond188) CFA_SP SP+0
        CFI (cfiCond188) CFA_XSP16 add(XSP16, 15)
        CFI Block cfiPicker189 Using cfiCommon1
        CFI (cfiPicker189) NoFunction
        CFI (cfiPicker189) Picker
        MOVX    @DPTR,A
        ; Setup parameters for call to function MT_BuildAndSendZToolResponse
        ; Setup parameters for call to function MT_BuildAndSendZToolResponse
        MOV     DPL,?XSP + 0
        MOV     DPH,?XSP + 1
        MOV     R4,DPL
        MOV     R5,DPH
        RET
        CFI EndBlock cfiCond187
        CFI EndBlock cfiCond188
        CFI EndBlock cfiPicker189

        RSEG BANKED_CODE:CODE:NOROOT(0)
?Subroutine15:
        CFI Block cfiCond190 Using cfiCommon0
        CFI NoFunction
        CFI Conditional ??CrossCallReturnLabel_15
        CFI R6 load(1, XDATA, add(CFA_XSP16, literal(-14)))
        CFI VB load(1, XDATA, add(CFA_XSP16, literal(-13)))
        CFI V0 load(1, XDATA, add(CFA_XSP16, literal(-12)))
        CFI V1 load(1, XDATA, add(CFA_XSP16, literal(-11)))
        CFI V2 load(1, XDATA, add(CFA_XSP16, literal(-10)))
        CFI V3 load(1, XDATA, add(CFA_XSP16, literal(-9)))
        CFI V4 load(1, XDATA, add(CFA_XSP16, literal(-8)))
        CFI V5 load(1, XDATA, add(CFA_XSP16, literal(-7)))
        CFI R7 load(1, XDATA, add(CFA_XSP16, literal(-6)))
        CFI ?RET_LOW load(1, XDATA, add(CFA_XSP16, literal(-5)))
        CFI ?RET_HIGH load(1, XDATA, add(CFA_XSP16, literal(-4)))
        CFI ?BRET_EXT load(1, XDATA, add(CFA_XSP16, literal(-3)))
        CFI DPL0 load(1, XDATA, add(CFA_XSP16, literal(-2)))
        CFI DPH0 load(1, XDATA, add(CFA_XSP16, literal(-1)))
        CFI CFA_SP SP+0
        CFI CFA_XSP16 add(XSP16, 15)
        CFI Block cfiCond191 Using cfiCommon0
        CFI (cfiCond191) NoFunction
        CFI (cfiCond191) Conditional ??CrossCallReturnLabel_16
        CFI (cfiCond191) R6 load(1, XDATA, add(CFA_XSP16, literal(-14)))
        CFI (cfiCond191) VB load(1, XDATA, add(CFA_XSP16, literal(-13)))
        CFI (cfiCond191) V0 load(1, XDATA, add(CFA_XSP16, literal(-12)))
        CFI (cfiCond191) V1 load(1, XDATA, add(CFA_XSP16, literal(-11)))
        CFI (cfiCond191) V2 load(1, XDATA, add(CFA_XSP16, literal(-10)))
        CFI (cfiCond191) V3 load(1, XDATA, add(CFA_XSP16, literal(-9)))
        CFI (cfiCond191) V4 load(1, XDATA, add(CFA_XSP16, literal(-8)))
        CFI (cfiCond191) V5 load(1, XDATA, add(CFA_XSP16, literal(-7)))
        CFI (cfiCond191) R7 load(1, XDATA, add(CFA_XSP16, literal(-6)))
        CFI (cfiCond191) ?RET_LOW load(1, XDATA, add(CFA_XSP16, literal(-5)))
        CFI (cfiCond191) ?RET_HIGH load(1, XDATA, add(CFA_XSP16, literal(-4)))
        CFI (cfiCond191) ?BRET_EXT load(1, XDATA, add(CFA_XSP16, literal(-3)))
        CFI (cfiCond191) DPL0 load(1, XDATA, add(CFA_XSP16, literal(-2)))
        CFI (cfiCond191) DPH0 load(1, XDATA, add(CFA_XSP16, literal(-1)))
        CFI (cfiCond191) CFA_SP SP+0
        CFI (cfiCond191) CFA_XSP16 add(XSP16, 24)
        CFI Block cfiPicker192 Using cfiCommon1
        CFI (cfiPicker192) NoFunction
        CFI (cfiPicker192) Picker
        ADDC    A,#0x0
        MOV     R3,A
        MOV     DPL,R2
        MOV     DPH,R3
        MOVX    A,@DPTR
        MOV     R4,A
        INC     DPTR
        MOVX    A,@DPTR
        RET
        CFI EndBlock cfiCond190
        CFI EndBlock cfiCond191
        CFI EndBlock cfiPicker192

        RSEG BANKED_CODE:CODE:NOROOT(0)
?Subroutine12:
        CFI Block cfiCond193 Using cfiCommon0
        CFI NoFunction
        CFI Conditional ??CrossCallReturnLabel_10
        CFI R6 load(1, XDATA, add(CFA_XSP16, literal(-21)))
        CFI VB load(1, XDATA, add(CFA_XSP16, literal(-20)))
        CFI V0 load(1, XDATA, add(CFA_XSP16, literal(-19)))
        CFI V1 load(1, XDATA, add(CFA_XSP16, literal(-18)))
        CFI V2 load(1, XDATA, add(CFA_XSP16, literal(-17)))
        CFI V3 load(1, XDATA, add(CFA_XSP16, literal(-16)))
        CFI V4 load(1, XDATA, add(CFA_XSP16, literal(-15)))
        CFI V5 load(1, XDATA, add(CFA_XSP16, literal(-14)))
        CFI V6 load(1, XDATA, add(CFA_XSP16, literal(-13)))
        CFI V7 load(1, XDATA, add(CFA_XSP16, literal(-12)))
        CFI V8 load(1, XDATA, add(CFA_XSP16, literal(-11)))
        CFI V9 load(1, XDATA, add(CFA_XSP16, literal(-10)))
        CFI V10 load(1, XDATA, add(CFA_XSP16, literal(-9)))
        CFI V11 load(1, XDATA, add(CFA_XSP16, literal(-8)))
        CFI V12 load(1, XDATA, add(CFA_XSP16, literal(-7)))
        CFI R7 load(1, XDATA, add(CFA_XSP16, literal(-6)))
        CFI ?RET_LOW load(1, XDATA, add(CFA_XSP16, literal(-5)))
        CFI ?RET_HIGH load(1, XDATA, add(CFA_XSP16, literal(-4)))
        CFI ?BRET_EXT load(1, XDATA, add(CFA_XSP16, literal(-3)))
        CFI DPL0 load(1, XDATA, add(CFA_XSP16, literal(-2)))
        CFI DPH0 load(1, XDATA, add(CFA_XSP16, literal(-1)))
        CFI CFA_SP SP+0
        CFI CFA_XSP16 add(XSP16, 35)
        CFI Block cfiCond194 Using cfiCommon0
        CFI (cfiCond194) NoFunction
        CFI (cfiCond194) Conditional ??CrossCallReturnLabel_11
        CFI (cfiCond194) R6 load(1, XDATA, add(CFA_XSP16, literal(-14)))
        CFI (cfiCond194) VB load(1, XDATA, add(CFA_XSP16, literal(-13)))
        CFI (cfiCond194) V0 load(1, XDATA, add(CFA_XSP16, literal(-12)))
        CFI (cfiCond194) V1 load(1, XDATA, add(CFA_XSP16, literal(-11)))
        CFI (cfiCond194) V2 load(1, XDATA, add(CFA_XSP16, literal(-10)))
        CFI (cfiCond194) V3 load(1, XDATA, add(CFA_XSP16, literal(-9)))
        CFI (cfiCond194) V4 load(1, XDATA, add(CFA_XSP16, literal(-8)))
        CFI (cfiCond194) V5 load(1, XDATA, add(CFA_XSP16, literal(-7)))
        CFI (cfiCond194) R7 load(1, XDATA, add(CFA_XSP16, literal(-6)))
        CFI (cfiCond194) ?RET_LOW load(1, XDATA, add(CFA_XSP16, literal(-5)))
        CFI (cfiCond194) ?RET_HIGH load(1, XDATA, add(CFA_XSP16, literal(-4)))
        CFI (cfiCond194) ?BRET_EXT load(1, XDATA, add(CFA_XSP16, literal(-3)))
        CFI (cfiCond194) DPL0 load(1, XDATA, add(CFA_XSP16, literal(-2)))
        CFI (cfiCond194) DPH0 load(1, XDATA, add(CFA_XSP16, literal(-1)))
        CFI (cfiCond194) CFA_SP SP+0
        CFI (cfiCond194) CFA_XSP16 add(XSP16, 15)
        CFI Block cfiPicker195 Using cfiCommon1
        CFI (cfiPicker195) NoFunction
        CFI (cfiPicker195) Picker
        MOV     DPTR,#pMtAfDataReq
        MOVX    A,@DPTR
        MOV     R0,A
        INC     DPTR
        MOVX    A,@DPTR
        MOV     DPH,A
        MOV     DPL,R0
        RET
        CFI EndBlock cfiCond193
        CFI EndBlock cfiCond194
        CFI EndBlock cfiPicker195

        RSEG BANKED_CODE:CODE:NOROOT(0)
?Subroutine11:
        CFI Block cfiCond196 Using cfiCommon0
        CFI NoFunction
        CFI Conditional ??CrossCallReturnLabel_8
        CFI R6 load(1, XDATA, add(CFA_XSP16, literal(-21)))
        CFI VB load(1, XDATA, add(CFA_XSP16, literal(-20)))
        CFI V0 load(1, XDATA, add(CFA_XSP16, literal(-19)))
        CFI V1 load(1, XDATA, add(CFA_XSP16, literal(-18)))
        CFI V2 load(1, XDATA, add(CFA_XSP16, literal(-17)))
        CFI V3 load(1, XDATA, add(CFA_XSP16, literal(-16)))
        CFI V4 load(1, XDATA, add(CFA_XSP16, literal(-15)))
        CFI V5 load(1, XDATA, add(CFA_XSP16, literal(-14)))
        CFI V6 load(1, XDATA, add(CFA_XSP16, literal(-13)))
        CFI V7 load(1, XDATA, add(CFA_XSP16, literal(-12)))
        CFI V8 load(1, XDATA, add(CFA_XSP16, literal(-11)))
        CFI V9 load(1, XDATA, add(CFA_XSP16, literal(-10)))
        CFI V10 load(1, XDATA, add(CFA_XSP16, literal(-9)))
        CFI V11 load(1, XDATA, add(CFA_XSP16, literal(-8)))
        CFI V12 load(1, XDATA, add(CFA_XSP16, literal(-7)))
        CFI R7 load(1, XDATA, add(CFA_XSP16, literal(-6)))
        CFI ?RET_LOW load(1, XDATA, add(CFA_XSP16, literal(-5)))
        CFI ?RET_HIGH load(1, XDATA, add(CFA_XSP16, literal(-4)))
        CFI ?BRET_EXT load(1, XDATA, add(CFA_XSP16, literal(-3)))
        CFI DPL0 load(1, XDATA, add(CFA_XSP16, literal(-2)))
        CFI DPH0 load(1, XDATA, add(CFA_XSP16, literal(-1)))
        CFI CFA_SP SP+0
        CFI CFA_XSP16 add(XSP16, 38)
        CFI Block cfiCond197 Using cfiCommon0
        CFI (cfiCond197) NoFunction
        CFI (cfiCond197) Conditional ??CrossCallReturnLabel_9
        CFI (cfiCond197) R6 load(1, XDATA, add(CFA_XSP16, literal(-14)))
        CFI (cfiCond197) VB load(1, XDATA, add(CFA_XSP16, literal(-13)))
        CFI (cfiCond197) V0 load(1, XDATA, add(CFA_XSP16, literal(-12)))
        CFI (cfiCond197) V1 load(1, XDATA, add(CFA_XSP16, literal(-11)))
        CFI (cfiCond197) V2 load(1, XDATA, add(CFA_XSP16, literal(-10)))
        CFI (cfiCond197) V3 load(1, XDATA, add(CFA_XSP16, literal(-9)))
        CFI (cfiCond197) V4 load(1, XDATA, add(CFA_XSP16, literal(-8)))
        CFI (cfiCond197) V5 load(1, XDATA, add(CFA_XSP16, literal(-7)))
        CFI (cfiCond197) R7 load(1, XDATA, add(CFA_XSP16, literal(-6)))
        CFI (cfiCond197) ?RET_LOW load(1, XDATA, add(CFA_XSP16, literal(-5)))
        CFI (cfiCond197) ?RET_HIGH load(1, XDATA, add(CFA_XSP16, literal(-4)))
        CFI (cfiCond197) ?BRET_EXT load(1, XDATA, add(CFA_XSP16, literal(-3)))
        CFI (cfiCond197) DPL0 load(1, XDATA, add(CFA_XSP16, literal(-2)))
        CFI (cfiCond197) DPH0 load(1, XDATA, add(CFA_XSP16, literal(-1)))
        CFI (cfiCond197) CFA_SP SP+0
        CFI (cfiCond197) CFA_XSP16 add(XSP16, 24)
        CFI Block cfiPicker198 Using cfiCommon1
        CFI (cfiPicker198) NoFunction
        CFI (cfiPicker198) Picker
        MOV     DPTR,#pMtAfDataReq
        MOVX    A,@DPTR
        ADD     A,#0x2
        MOV     R2,A
        INC     DPTR
        MOVX    A,@DPTR
        ADDC    A,#0x0
        MOV     R3,A
        RET
        CFI EndBlock cfiCond196
        CFI EndBlock cfiCond197
        CFI EndBlock cfiPicker198

        RSEG BANKED_CODE:CODE:NOROOT(0)
?Subroutine8:
        CFI Block cfiCond199 Using cfiCommon0
        CFI NoFunction
        CFI Conditional ??CrossCallReturnLabel_6
        CFI R6 load(1, XDATA, add(CFA_XSP16, literal(-9)))
        CFI VB load(1, XDATA, add(CFA_XSP16, literal(-8)))
        CFI V0 load(1, XDATA, add(CFA_XSP16, literal(-7)))
        CFI R7 load(1, XDATA, add(CFA_XSP16, literal(-6)))
        CFI ?RET_LOW load(1, XDATA, add(CFA_XSP16, literal(-5)))
        CFI ?RET_HIGH load(1, XDATA, add(CFA_XSP16, literal(-4)))
        CFI ?BRET_EXT load(1, XDATA, add(CFA_XSP16, literal(-3)))
        CFI DPL0 load(1, XDATA, add(CFA_XSP16, literal(-2)))
        CFI DPH0 load(1, XDATA, add(CFA_XSP16, literal(-1)))
        CFI CFA_SP SP+0
        CFI CFA_XSP16 add(XSP16, 9)
        CFI Block cfiCond200 Using cfiCommon0
        CFI (cfiCond200) NoFunction
        CFI (cfiCond200) Conditional ??CrossCallReturnLabel_7
        CFI (cfiCond200) R6 load(1, XDATA, add(CFA_XSP16, literal(-14)))
        CFI (cfiCond200) VB load(1, XDATA, add(CFA_XSP16, literal(-13)))
        CFI (cfiCond200) V0 load(1, XDATA, add(CFA_XSP16, literal(-12)))
        CFI (cfiCond200) V1 load(1, XDATA, add(CFA_XSP16, literal(-11)))
        CFI (cfiCond200) V2 load(1, XDATA, add(CFA_XSP16, literal(-10)))
        CFI (cfiCond200) V3 load(1, XDATA, add(CFA_XSP16, literal(-9)))
        CFI (cfiCond200) V4 load(1, XDATA, add(CFA_XSP16, literal(-8)))
        CFI (cfiCond200) V5 load(1, XDATA, add(CFA_XSP16, literal(-7)))
        CFI (cfiCond200) R7 load(1, XDATA, add(CFA_XSP16, literal(-6)))
        CFI (cfiCond200) ?RET_LOW load(1, XDATA, add(CFA_XSP16, literal(-5)))
        CFI (cfiCond200) ?RET_HIGH load(1, XDATA, add(CFA_XSP16, literal(-4)))
        CFI (cfiCond200) ?BRET_EXT load(1, XDATA, add(CFA_XSP16, literal(-3)))
        CFI (cfiCond200) DPL0 load(1, XDATA, add(CFA_XSP16, literal(-2)))
        CFI (cfiCond200) DPH0 load(1, XDATA, add(CFA_XSP16, literal(-1)))
        CFI (cfiCond200) CFA_SP SP+0
        CFI (cfiCond200) CFA_XSP16 add(XSP16, 15)
        CFI Block cfiPicker201 Using cfiCommon1
        CFI (cfiPicker201) NoFunction
        CFI (cfiPicker201) Picker
        MOV     DPTR,#pMtAfDataReq
        LCALL   ??Subroutine44_0 & 0xFFFF
??CrossCallReturnLabel_88:
        MOV     R3,A
        LCALL   ??osal_mem_free?relay
        MOV     DPTR,#pMtAfDataReq
        CLR     A
        MOVX    @DPTR,A
        INC     DPTR
        RET
        CFI EndBlock cfiCond199
        CFI EndBlock cfiCond200
        CFI EndBlock cfiPicker201

        RSEG BANKED_CODE:CODE:NOROOT(0)
?Subroutine5:
        CFI Block cfiCond202 Using cfiCommon0
        CFI NoFunction
        CFI Conditional ??CrossCallReturnLabel_94
        CFI R6 load(1, XDATA, add(CFA_XSP16, literal(-24)))
        CFI VB load(1, XDATA, add(CFA_XSP16, literal(-23)))
        CFI V0 load(1, XDATA, add(CFA_XSP16, literal(-22)))
        CFI V1 load(1, XDATA, add(CFA_XSP16, literal(-21)))
        CFI V2 load(1, XDATA, add(CFA_XSP16, literal(-20)))
        CFI V3 load(1, XDATA, add(CFA_XSP16, literal(-19)))
        CFI V4 load(1, XDATA, add(CFA_XSP16, literal(-18)))
        CFI V5 load(1, XDATA, add(CFA_XSP16, literal(-17)))
        CFI V6 load(1, XDATA, add(CFA_XSP16, literal(-16)))
        CFI V7 load(1, XDATA, add(CFA_XSP16, literal(-15)))
        CFI V8 load(1, XDATA, add(CFA_XSP16, literal(-14)))
        CFI V9 load(1, XDATA, add(CFA_XSP16, literal(-13)))
        CFI V10 load(1, XDATA, add(CFA_XSP16, literal(-12)))
        CFI V11 load(1, XDATA, add(CFA_XSP16, literal(-11)))
        CFI V12 load(1, XDATA, add(CFA_XSP16, literal(-10)))
        CFI V13 load(1, XDATA, add(CFA_XSP16, literal(-9)))
        CFI V14 load(1, XDATA, add(CFA_XSP16, literal(-8)))
        CFI V15 load(1, XDATA, add(CFA_XSP16, literal(-7)))
        CFI R7 load(1, XDATA, add(CFA_XSP16, literal(-6)))
        CFI ?RET_LOW load(1, XDATA, add(CFA_XSP16, literal(-5)))
        CFI ?RET_HIGH load(1, XDATA, add(CFA_XSP16, literal(-4)))
        CFI ?BRET_EXT load(1, XDATA, add(CFA_XSP16, literal(-3)))
        CFI DPL0 load(1, XDATA, add(CFA_XSP16, literal(-2)))
        CFI DPH0 load(1, XDATA, add(CFA_XSP16, literal(-1)))
        CFI CFA_SP SP+0
        CFI CFA_XSP16 add(XSP16, 25)
        CFI Block cfiCond203 Using cfiCommon0
        CFI (cfiCond203) NoFunction
        CFI (cfiCond203) Conditional ??CrossCallReturnLabel_95
        CFI (cfiCond203) R6 load(1, XDATA, add(CFA_XSP16, literal(-24)))
        CFI (cfiCond203) VB load(1, XDATA, add(CFA_XSP16, literal(-23)))
        CFI (cfiCond203) V0 load(1, XDATA, add(CFA_XSP16, literal(-22)))
        CFI (cfiCond203) V1 load(1, XDATA, add(CFA_XSP16, literal(-21)))
        CFI (cfiCond203) V2 load(1, XDATA, add(CFA_XSP16, literal(-20)))
        CFI (cfiCond203) V3 load(1, XDATA, add(CFA_XSP16, literal(-19)))
        CFI (cfiCond203) V4 load(1, XDATA, add(CFA_XSP16, literal(-18)))
        CFI (cfiCond203) V5 load(1, XDATA, add(CFA_XSP16, literal(-17)))
        CFI (cfiCond203) V6 load(1, XDATA, add(CFA_XSP16, literal(-16)))
        CFI (cfiCond203) V7 load(1, XDATA, add(CFA_XSP16, literal(-15)))
        CFI (cfiCond203) V8 load(1, XDATA, add(CFA_XSP16, literal(-14)))
        CFI (cfiCond203) V9 load(1, XDATA, add(CFA_XSP16, literal(-13)))
        CFI (cfiCond203) V10 load(1, XDATA, add(CFA_XSP16, literal(-12)))
        CFI (cfiCond203) V11 load(1, XDATA, add(CFA_XSP16, literal(-11)))
        CFI (cfiCond203) V12 load(1, XDATA, add(CFA_XSP16, literal(-10)))
        CFI (cfiCond203) V13 load(1, XDATA, add(CFA_XSP16, literal(-9)))
        CFI (cfiCond203) V14 load(1, XDATA, add(CFA_XSP16, literal(-8)))
        CFI (cfiCond203) V15 load(1, XDATA, add(CFA_XSP16, literal(-7)))
        CFI (cfiCond203) R7 load(1, XDATA, add(CFA_XSP16, literal(-6)))
        CFI (cfiCond203) ?RET_LOW load(1, XDATA, add(CFA_XSP16, literal(-5)))
        CFI (cfiCond203) ?RET_HIGH load(1, XDATA, add(CFA_XSP16, literal(-4)))
        CFI (cfiCond203) ?BRET_EXT load(1, XDATA, add(CFA_XSP16, literal(-3)))
        CFI (cfiCond203) DPL0 load(1, XDATA, add(CFA_XSP16, literal(-2)))
        CFI (cfiCond203) DPH0 load(1, XDATA, add(CFA_XSP16, literal(-1)))
        CFI (cfiCond203) CFA_SP SP+0
        CFI (cfiCond203) CFA_XSP16 add(XSP16, 25)
        CFI Block cfiPicker204 Using cfiCommon1
        CFI (cfiPicker204) NoFunction
        CFI (cfiPicker204) Picker
        MOV     DPL,?V0 + 8
        MOV     DPH,?V0 + 9
        CFI EndBlock cfiCond202
        CFI EndBlock cfiCond203
        CFI EndBlock cfiPicker204
        REQUIRE ??Subroutine45_0
        ; // Fall through to label ??Subroutine45_0

        RSEG BANKED_CODE:CODE:NOROOT(0)
??Subroutine45_0:
        CFI Block cfiCond205 Using cfiCommon0
        CFI NoFunction
        CFI Conditional ??CrossCallReturnLabel_92
        CFI R6 load(1, XDATA, add(CFA_XSP16, literal(-21)))
        CFI VB load(1, XDATA, add(CFA_XSP16, literal(-20)))
        CFI V0 load(1, XDATA, add(CFA_XSP16, literal(-19)))
        CFI V1 load(1, XDATA, add(CFA_XSP16, literal(-18)))
        CFI V2 load(1, XDATA, add(CFA_XSP16, literal(-17)))
        CFI V3 load(1, XDATA, add(CFA_XSP16, literal(-16)))
        CFI V4 load(1, XDATA, add(CFA_XSP16, literal(-15)))
        CFI V5 load(1, XDATA, add(CFA_XSP16, literal(-14)))
        CFI V6 load(1, XDATA, add(CFA_XSP16, literal(-13)))
        CFI V7 load(1, XDATA, add(CFA_XSP16, literal(-12)))
        CFI V8 load(1, XDATA, add(CFA_XSP16, literal(-11)))
        CFI V9 load(1, XDATA, add(CFA_XSP16, literal(-10)))
        CFI V10 load(1, XDATA, add(CFA_XSP16, literal(-9)))
        CFI V11 load(1, XDATA, add(CFA_XSP16, literal(-8)))
        CFI V12 load(1, XDATA, add(CFA_XSP16, literal(-7)))
        CFI R7 load(1, XDATA, add(CFA_XSP16, literal(-6)))
        CFI ?RET_LOW load(1, XDATA, add(CFA_XSP16, literal(-5)))
        CFI ?RET_HIGH load(1, XDATA, add(CFA_XSP16, literal(-4)))
        CFI ?BRET_EXT load(1, XDATA, add(CFA_XSP16, literal(-3)))
        CFI DPL0 load(1, XDATA, add(CFA_XSP16, literal(-2)))
        CFI DPH0 load(1, XDATA, add(CFA_XSP16, literal(-1)))
        CFI CFA_SP SP+0
        CFI CFA_XSP16 add(XSP16, 35)
        CFI Block cfiCond206 Using cfiCommon0
        CFI (cfiCond206) NoFunction
        CFI (cfiCond206) Conditional ??CrossCallReturnLabel_93
        CFI (cfiCond206) R6 load(1, XDATA, add(CFA_XSP16, literal(-14)))
        CFI (cfiCond206) VB load(1, XDATA, add(CFA_XSP16, literal(-13)))
        CFI (cfiCond206) V0 load(1, XDATA, add(CFA_XSP16, literal(-12)))
        CFI (cfiCond206) V1 load(1, XDATA, add(CFA_XSP16, literal(-11)))
        CFI (cfiCond206) V2 load(1, XDATA, add(CFA_XSP16, literal(-10)))
        CFI (cfiCond206) V3 load(1, XDATA, add(CFA_XSP16, literal(-9)))
        CFI (cfiCond206) V4 load(1, XDATA, add(CFA_XSP16, literal(-8)))
        CFI (cfiCond206) V5 load(1, XDATA, add(CFA_XSP16, literal(-7)))
        CFI (cfiCond206) R7 load(1, XDATA, add(CFA_XSP16, literal(-6)))
        CFI (cfiCond206) ?RET_LOW load(1, XDATA, add(CFA_XSP16, literal(-5)))
        CFI (cfiCond206) ?RET_HIGH load(1, XDATA, add(CFA_XSP16, literal(-4)))
        CFI (cfiCond206) ?BRET_EXT load(1, XDATA, add(CFA_XSP16, literal(-3)))
        CFI (cfiCond206) DPL0 load(1, XDATA, add(CFA_XSP16, literal(-2)))
        CFI (cfiCond206) DPH0 load(1, XDATA, add(CFA_XSP16, literal(-1)))
        CFI (cfiCond206) CFA_SP SP+0
        CFI (cfiCond206) CFA_XSP16 add(XSP16, 15)
        CFI Block cfiCond207 Using cfiCommon0
        CFI (cfiCond207) NoFunction
        CFI (cfiCond207) Conditional ??CrossCallReturnLabel_94
        CFI (cfiCond207) R6 load(1, XDATA, add(CFA_XSP16, literal(-24)))
        CFI (cfiCond207) VB load(1, XDATA, add(CFA_XSP16, literal(-23)))
        CFI (cfiCond207) V0 load(1, XDATA, add(CFA_XSP16, literal(-22)))
        CFI (cfiCond207) V1 load(1, XDATA, add(CFA_XSP16, literal(-21)))
        CFI (cfiCond207) V2 load(1, XDATA, add(CFA_XSP16, literal(-20)))
        CFI (cfiCond207) V3 load(1, XDATA, add(CFA_XSP16, literal(-19)))
        CFI (cfiCond207) V4 load(1, XDATA, add(CFA_XSP16, literal(-18)))
        CFI (cfiCond207) V5 load(1, XDATA, add(CFA_XSP16, literal(-17)))
        CFI (cfiCond207) V6 load(1, XDATA, add(CFA_XSP16, literal(-16)))
        CFI (cfiCond207) V7 load(1, XDATA, add(CFA_XSP16, literal(-15)))
        CFI (cfiCond207) V8 load(1, XDATA, add(CFA_XSP16, literal(-14)))
        CFI (cfiCond207) V9 load(1, XDATA, add(CFA_XSP16, literal(-13)))
        CFI (cfiCond207) V10 load(1, XDATA, add(CFA_XSP16, literal(-12)))
        CFI (cfiCond207) V11 load(1, XDATA, add(CFA_XSP16, literal(-11)))
        CFI (cfiCond207) V12 load(1, XDATA, add(CFA_XSP16, literal(-10)))
        CFI (cfiCond207) V13 load(1, XDATA, add(CFA_XSP16, literal(-9)))
        CFI (cfiCond207) V14 load(1, XDATA, add(CFA_XSP16, literal(-8)))
        CFI (cfiCond207) V15 load(1, XDATA, add(CFA_XSP16, literal(-7)))
        CFI (cfiCond207) R7 load(1, XDATA, add(CFA_XSP16, literal(-6)))
        CFI (cfiCond207) ?RET_LOW load(1, XDATA, add(CFA_XSP16, literal(-5)))
        CFI (cfiCond207) ?RET_HIGH load(1, XDATA, add(CFA_XSP16, literal(-4)))
        CFI (cfiCond207) ?BRET_EXT load(1, XDATA, add(CFA_XSP16, literal(-3)))
        CFI (cfiCond207) DPL0 load(1, XDATA, add(CFA_XSP16, literal(-2)))
        CFI (cfiCond207) DPH0 load(1, XDATA, add(CFA_XSP16, literal(-1)))
        CFI (cfiCond207) CFA_SP SP+0
        CFI (cfiCond207) CFA_XSP16 add(XSP16, 25)
        CFI Block cfiCond208 Using cfiCommon0
        CFI (cfiCond208) NoFunction
        CFI (cfiCond208) Conditional ??CrossCallReturnLabel_95
        CFI (cfiCond208) R6 load(1, XDATA, add(CFA_XSP16, literal(-24)))
        CFI (cfiCond208) VB load(1, XDATA, add(CFA_XSP16, literal(-23)))
        CFI (cfiCond208) V0 load(1, XDATA, add(CFA_XSP16, literal(-22)))
        CFI (cfiCond208) V1 load(1, XDATA, add(CFA_XSP16, literal(-21)))
        CFI (cfiCond208) V2 load(1, XDATA, add(CFA_XSP16, literal(-20)))
        CFI (cfiCond208) V3 load(1, XDATA, add(CFA_XSP16, literal(-19)))
        CFI (cfiCond208) V4 load(1, XDATA, add(CFA_XSP16, literal(-18)))
        CFI (cfiCond208) V5 load(1, XDATA, add(CFA_XSP16, literal(-17)))
        CFI (cfiCond208) V6 load(1, XDATA, add(CFA_XSP16, literal(-16)))
        CFI (cfiCond208) V7 load(1, XDATA, add(CFA_XSP16, literal(-15)))
        CFI (cfiCond208) V8 load(1, XDATA, add(CFA_XSP16, literal(-14)))
        CFI (cfiCond208) V9 load(1, XDATA, add(CFA_XSP16, literal(-13)))
        CFI (cfiCond208) V10 load(1, XDATA, add(CFA_XSP16, literal(-12)))
        CFI (cfiCond208) V11 load(1, XDATA, add(CFA_XSP16, literal(-11)))
        CFI (cfiCond208) V12 load(1, XDATA, add(CFA_XSP16, literal(-10)))
        CFI (cfiCond208) V13 load(1, XDATA, add(CFA_XSP16, literal(-9)))
        CFI (cfiCond208) V14 load(1, XDATA, add(CFA_XSP16, literal(-8)))
        CFI (cfiCond208) V15 load(1, XDATA, add(CFA_XSP16, literal(-7)))
        CFI (cfiCond208) R7 load(1, XDATA, add(CFA_XSP16, literal(-6)))
        CFI (cfiCond208) ?RET_LOW load(1, XDATA, add(CFA_XSP16, literal(-5)))
        CFI (cfiCond208) ?RET_HIGH load(1, XDATA, add(CFA_XSP16, literal(-4)))
        CFI (cfiCond208) ?BRET_EXT load(1, XDATA, add(CFA_XSP16, literal(-3)))
        CFI (cfiCond208) DPL0 load(1, XDATA, add(CFA_XSP16, literal(-2)))
        CFI (cfiCond208) DPH0 load(1, XDATA, add(CFA_XSP16, literal(-1)))
        CFI (cfiCond208) CFA_SP SP+0
        CFI (cfiCond208) CFA_XSP16 add(XSP16, 25)
        CFI Block cfiPicker209 Using cfiCommon1
        CFI (cfiPicker209) NoFunction
        CFI (cfiPicker209) Picker
        MOVX    A,@DPTR
        MOV     ?V0 + 4,A
        INC     DPTR
        MOVX    A,@DPTR
        MOV     ?V0 + 5,A
        RET
        CFI EndBlock cfiCond205
        CFI EndBlock cfiCond206
        CFI EndBlock cfiCond207
        CFI EndBlock cfiCond208
        CFI EndBlock cfiPicker209

        RSEG BANKED_CODE:CODE:NOROOT(0)
?Subroutine4:
        CFI Block cfiCond210 Using cfiCommon0
        CFI NoFunction
        CFI Conditional ??CrossCallReturnLabel_103
        CFI R6 load(1, XDATA, add(CFA_XSP16, literal(-21)))
        CFI VB load(1, XDATA, add(CFA_XSP16, literal(-20)))
        CFI V0 load(1, XDATA, add(CFA_XSP16, literal(-19)))
        CFI V1 load(1, XDATA, add(CFA_XSP16, literal(-18)))
        CFI V2 load(1, XDATA, add(CFA_XSP16, literal(-17)))
        CFI V3 load(1, XDATA, add(CFA_XSP16, literal(-16)))
        CFI V4 load(1, XDATA, add(CFA_XSP16, literal(-15)))
        CFI V5 load(1, XDATA, add(CFA_XSP16, literal(-14)))
        CFI V6 load(1, XDATA, add(CFA_XSP16, literal(-13)))
        CFI V7 load(1, XDATA, add(CFA_XSP16, literal(-12)))
        CFI V8 load(1, XDATA, add(CFA_XSP16, literal(-11)))
        CFI V9 load(1, XDATA, add(CFA_XSP16, literal(-10)))
        CFI V10 load(1, XDATA, add(CFA_XSP16, literal(-9)))
        CFI V11 load(1, XDATA, add(CFA_XSP16, literal(-8)))
        CFI V12 load(1, XDATA, add(CFA_XSP16, literal(-7)))
        CFI R7 load(1, XDATA, add(CFA_XSP16, literal(-6)))
        CFI ?RET_LOW load(1, XDATA, add(CFA_XSP16, literal(-5)))
        CFI ?RET_HIGH load(1, XDATA, add(CFA_XSP16, literal(-4)))
        CFI ?BRET_EXT load(1, XDATA, add(CFA_XSP16, literal(-3)))
        CFI DPL0 load(1, XDATA, add(CFA_XSP16, literal(-2)))
        CFI DPH0 load(1, XDATA, add(CFA_XSP16, literal(-1)))
        CFI CFA_SP SP+0
        CFI CFA_XSP16 add(XSP16, 35)
        CFI Block cfiCond211 Using cfiCommon0
        CFI (cfiCond211) NoFunction
        CFI (cfiCond211) Conditional ??CrossCallReturnLabel_104
        CFI (cfiCond211) R6 load(1, XDATA, add(CFA_XSP16, literal(-14)))
        CFI (cfiCond211) VB load(1, XDATA, add(CFA_XSP16, literal(-13)))
        CFI (cfiCond211) V0 load(1, XDATA, add(CFA_XSP16, literal(-12)))
        CFI (cfiCond211) V1 load(1, XDATA, add(CFA_XSP16, literal(-11)))
        CFI (cfiCond211) V2 load(1, XDATA, add(CFA_XSP16, literal(-10)))
        CFI (cfiCond211) V3 load(1, XDATA, add(CFA_XSP16, literal(-9)))
        CFI (cfiCond211) V4 load(1, XDATA, add(CFA_XSP16, literal(-8)))
        CFI (cfiCond211) V5 load(1, XDATA, add(CFA_XSP16, literal(-7)))
        CFI (cfiCond211) R7 load(1, XDATA, add(CFA_XSP16, literal(-6)))
        CFI (cfiCond211) ?RET_LOW load(1, XDATA, add(CFA_XSP16, literal(-5)))
        CFI (cfiCond211) ?RET_HIGH load(1, XDATA, add(CFA_XSP16, literal(-4)))
        CFI (cfiCond211) ?BRET_EXT load(1, XDATA, add(CFA_XSP16, literal(-3)))
        CFI (cfiCond211) DPL0 load(1, XDATA, add(CFA_XSP16, literal(-2)))
        CFI (cfiCond211) DPH0 load(1, XDATA, add(CFA_XSP16, literal(-1)))
        CFI (cfiCond211) CFA_SP SP+0
        CFI (cfiCond211) CFA_XSP16 add(XSP16, 22)
        CFI Block cfiPicker212 Using cfiCommon1
        CFI (cfiPicker212) NoFunction
        CFI (cfiPicker212) Picker
        MOV     DPTR,#pMtAfDataReq
        MOVX    A,@DPTR
        ADD     A,#0x10
        CFI EndBlock cfiCond210
        CFI EndBlock cfiCond211
        CFI EndBlock cfiPicker212
        REQUIRE ??Subroutine46_0
        ; // Fall through to label ??Subroutine46_0

        RSEG BANKED_CODE:CODE:NOROOT(0)
??Subroutine46_0:
        CFI Block cfiCond213 Using cfiCommon0
        CFI NoFunction
        CFI Conditional ??CrossCallReturnLabel_96
        CFI R6 load(1, XDATA, add(CFA_XSP16, literal(-21)))
        CFI VB load(1, XDATA, add(CFA_XSP16, literal(-20)))
        CFI V0 load(1, XDATA, add(CFA_XSP16, literal(-19)))
        CFI V1 load(1, XDATA, add(CFA_XSP16, literal(-18)))
        CFI V2 load(1, XDATA, add(CFA_XSP16, literal(-17)))
        CFI V3 load(1, XDATA, add(CFA_XSP16, literal(-16)))
        CFI V4 load(1, XDATA, add(CFA_XSP16, literal(-15)))
        CFI V5 load(1, XDATA, add(CFA_XSP16, literal(-14)))
        CFI V6 load(1, XDATA, add(CFA_XSP16, literal(-13)))
        CFI V7 load(1, XDATA, add(CFA_XSP16, literal(-12)))
        CFI V8 load(1, XDATA, add(CFA_XSP16, literal(-11)))
        CFI V9 load(1, XDATA, add(CFA_XSP16, literal(-10)))
        CFI V10 load(1, XDATA, add(CFA_XSP16, literal(-9)))
        CFI V11 load(1, XDATA, add(CFA_XSP16, literal(-8)))
        CFI V12 load(1, XDATA, add(CFA_XSP16, literal(-7)))
        CFI R7 load(1, XDATA, add(CFA_XSP16, literal(-6)))
        CFI ?RET_LOW load(1, XDATA, add(CFA_XSP16, literal(-5)))
        CFI ?RET_HIGH load(1, XDATA, add(CFA_XSP16, literal(-4)))
        CFI ?BRET_EXT load(1, XDATA, add(CFA_XSP16, literal(-3)))
        CFI DPL0 load(1, XDATA, add(CFA_XSP16, literal(-2)))
        CFI DPH0 load(1, XDATA, add(CFA_XSP16, literal(-1)))
        CFI CFA_SP SP+0
        CFI CFA_XSP16 add(XSP16, 35)
        CFI Block cfiCond214 Using cfiCommon0
        CFI (cfiCond214) NoFunction
        CFI (cfiCond214) Conditional ??CrossCallReturnLabel_97
        CFI (cfiCond214) R6 load(1, XDATA, add(CFA_XSP16, literal(-21)))
        CFI (cfiCond214) VB load(1, XDATA, add(CFA_XSP16, literal(-20)))
        CFI (cfiCond214) V0 load(1, XDATA, add(CFA_XSP16, literal(-19)))
        CFI (cfiCond214) V1 load(1, XDATA, add(CFA_XSP16, literal(-18)))
        CFI (cfiCond214) V2 load(1, XDATA, add(CFA_XSP16, literal(-17)))
        CFI (cfiCond214) V3 load(1, XDATA, add(CFA_XSP16, literal(-16)))
        CFI (cfiCond214) V4 load(1, XDATA, add(CFA_XSP16, literal(-15)))
        CFI (cfiCond214) V5 load(1, XDATA, add(CFA_XSP16, literal(-14)))
        CFI (cfiCond214) V6 load(1, XDATA, add(CFA_XSP16, literal(-13)))
        CFI (cfiCond214) V7 load(1, XDATA, add(CFA_XSP16, literal(-12)))
        CFI (cfiCond214) V8 load(1, XDATA, add(CFA_XSP16, literal(-11)))
        CFI (cfiCond214) V9 load(1, XDATA, add(CFA_XSP16, literal(-10)))
        CFI (cfiCond214) V10 load(1, XDATA, add(CFA_XSP16, literal(-9)))
        CFI (cfiCond214) V11 load(1, XDATA, add(CFA_XSP16, literal(-8)))
        CFI (cfiCond214) V12 load(1, XDATA, add(CFA_XSP16, literal(-7)))
        CFI (cfiCond214) R7 load(1, XDATA, add(CFA_XSP16, literal(-6)))
        CFI (cfiCond214) ?RET_LOW load(1, XDATA, add(CFA_XSP16, literal(-5)))
        CFI (cfiCond214) ?RET_HIGH load(1, XDATA, add(CFA_XSP16, literal(-4)))
        CFI (cfiCond214) ?BRET_EXT load(1, XDATA, add(CFA_XSP16, literal(-3)))
        CFI (cfiCond214) DPL0 load(1, XDATA, add(CFA_XSP16, literal(-2)))
        CFI (cfiCond214) DPH0 load(1, XDATA, add(CFA_XSP16, literal(-1)))
        CFI (cfiCond214) CFA_SP SP+0
        CFI (cfiCond214) CFA_XSP16 add(XSP16, 35)
        CFI Block cfiCond215 Using cfiCommon0
        CFI (cfiCond215) NoFunction
        CFI (cfiCond215) Conditional ??CrossCallReturnLabel_98
        CFI (cfiCond215) R6 load(1, XDATA, add(CFA_XSP16, literal(-21)))
        CFI (cfiCond215) VB load(1, XDATA, add(CFA_XSP16, literal(-20)))
        CFI (cfiCond215) V0 load(1, XDATA, add(CFA_XSP16, literal(-19)))
        CFI (cfiCond215) V1 load(1, XDATA, add(CFA_XSP16, literal(-18)))
        CFI (cfiCond215) V2 load(1, XDATA, add(CFA_XSP16, literal(-17)))
        CFI (cfiCond215) V3 load(1, XDATA, add(CFA_XSP16, literal(-16)))
        CFI (cfiCond215) V4 load(1, XDATA, add(CFA_XSP16, literal(-15)))
        CFI (cfiCond215) V5 load(1, XDATA, add(CFA_XSP16, literal(-14)))
        CFI (cfiCond215) V6 load(1, XDATA, add(CFA_XSP16, literal(-13)))
        CFI (cfiCond215) V7 load(1, XDATA, add(CFA_XSP16, literal(-12)))
        CFI (cfiCond215) V8 load(1, XDATA, add(CFA_XSP16, literal(-11)))
        CFI (cfiCond215) V9 load(1, XDATA, add(CFA_XSP16, literal(-10)))
        CFI (cfiCond215) V10 load(1, XDATA, add(CFA_XSP16, literal(-9)))
        CFI (cfiCond215) V11 load(1, XDATA, add(CFA_XSP16, literal(-8)))
        CFI (cfiCond215) V12 load(1, XDATA, add(CFA_XSP16, literal(-7)))
        CFI (cfiCond215) R7 load(1, XDATA, add(CFA_XSP16, literal(-6)))
        CFI (cfiCond215) ?RET_LOW load(1, XDATA, add(CFA_XSP16, literal(-5)))
        CFI (cfiCond215) ?RET_HIGH load(1, XDATA, add(CFA_XSP16, literal(-4)))
        CFI (cfiCond215) ?BRET_EXT load(1, XDATA, add(CFA_XSP16, literal(-3)))
        CFI (cfiCond215) DPL0 load(1, XDATA, add(CFA_XSP16, literal(-2)))
        CFI (cfiCond215) DPH0 load(1, XDATA, add(CFA_XSP16, literal(-1)))
        CFI (cfiCond215) CFA_SP SP+-1
        CFI (cfiCond215) CFA_XSP16 add(XSP16, 35)
        CFI Block cfiCond216 Using cfiCommon0
        CFI (cfiCond216) NoFunction
        CFI (cfiCond216) Conditional ??CrossCallReturnLabel_99
        CFI (cfiCond216) R6 load(1, XDATA, add(CFA_XSP16, literal(-21)))
        CFI (cfiCond216) VB load(1, XDATA, add(CFA_XSP16, literal(-20)))
        CFI (cfiCond216) V0 load(1, XDATA, add(CFA_XSP16, literal(-19)))
        CFI (cfiCond216) V1 load(1, XDATA, add(CFA_XSP16, literal(-18)))
        CFI (cfiCond216) V2 load(1, XDATA, add(CFA_XSP16, literal(-17)))
        CFI (cfiCond216) V3 load(1, XDATA, add(CFA_XSP16, literal(-16)))
        CFI (cfiCond216) V4 load(1, XDATA, add(CFA_XSP16, literal(-15)))
        CFI (cfiCond216) V5 load(1, XDATA, add(CFA_XSP16, literal(-14)))
        CFI (cfiCond216) V6 load(1, XDATA, add(CFA_XSP16, literal(-13)))
        CFI (cfiCond216) V7 load(1, XDATA, add(CFA_XSP16, literal(-12)))
        CFI (cfiCond216) V8 load(1, XDATA, add(CFA_XSP16, literal(-11)))
        CFI (cfiCond216) V9 load(1, XDATA, add(CFA_XSP16, literal(-10)))
        CFI (cfiCond216) V10 load(1, XDATA, add(CFA_XSP16, literal(-9)))
        CFI (cfiCond216) V11 load(1, XDATA, add(CFA_XSP16, literal(-8)))
        CFI (cfiCond216) V12 load(1, XDATA, add(CFA_XSP16, literal(-7)))
        CFI (cfiCond216) R7 load(1, XDATA, add(CFA_XSP16, literal(-6)))
        CFI (cfiCond216) ?RET_LOW load(1, XDATA, add(CFA_XSP16, literal(-5)))
        CFI (cfiCond216) ?RET_HIGH load(1, XDATA, add(CFA_XSP16, literal(-4)))
        CFI (cfiCond216) ?BRET_EXT load(1, XDATA, add(CFA_XSP16, literal(-3)))
        CFI (cfiCond216) DPL0 load(1, XDATA, add(CFA_XSP16, literal(-2)))
        CFI (cfiCond216) DPH0 load(1, XDATA, add(CFA_XSP16, literal(-1)))
        CFI (cfiCond216) CFA_SP SP+0
        CFI (cfiCond216) CFA_XSP16 add(XSP16, 35)
        CFI Block cfiCond217 Using cfiCommon0
        CFI (cfiCond217) NoFunction
        CFI (cfiCond217) Conditional ??CrossCallReturnLabel_100
        CFI (cfiCond217) R6 load(1, XDATA, add(CFA_XSP16, literal(-21)))
        CFI (cfiCond217) VB load(1, XDATA, add(CFA_XSP16, literal(-20)))
        CFI (cfiCond217) V0 load(1, XDATA, add(CFA_XSP16, literal(-19)))
        CFI (cfiCond217) V1 load(1, XDATA, add(CFA_XSP16, literal(-18)))
        CFI (cfiCond217) V2 load(1, XDATA, add(CFA_XSP16, literal(-17)))
        CFI (cfiCond217) V3 load(1, XDATA, add(CFA_XSP16, literal(-16)))
        CFI (cfiCond217) V4 load(1, XDATA, add(CFA_XSP16, literal(-15)))
        CFI (cfiCond217) V5 load(1, XDATA, add(CFA_XSP16, literal(-14)))
        CFI (cfiCond217) V6 load(1, XDATA, add(CFA_XSP16, literal(-13)))
        CFI (cfiCond217) V7 load(1, XDATA, add(CFA_XSP16, literal(-12)))
        CFI (cfiCond217) V8 load(1, XDATA, add(CFA_XSP16, literal(-11)))
        CFI (cfiCond217) V9 load(1, XDATA, add(CFA_XSP16, literal(-10)))
        CFI (cfiCond217) V10 load(1, XDATA, add(CFA_XSP16, literal(-9)))
        CFI (cfiCond217) V11 load(1, XDATA, add(CFA_XSP16, literal(-8)))
        CFI (cfiCond217) V12 load(1, XDATA, add(CFA_XSP16, literal(-7)))
        CFI (cfiCond217) R7 load(1, XDATA, add(CFA_XSP16, literal(-6)))
        CFI (cfiCond217) ?RET_LOW load(1, XDATA, add(CFA_XSP16, literal(-5)))
        CFI (cfiCond217) ?RET_HIGH load(1, XDATA, add(CFA_XSP16, literal(-4)))
        CFI (cfiCond217) ?BRET_EXT load(1, XDATA, add(CFA_XSP16, literal(-3)))
        CFI (cfiCond217) DPL0 load(1, XDATA, add(CFA_XSP16, literal(-2)))
        CFI (cfiCond217) DPH0 load(1, XDATA, add(CFA_XSP16, literal(-1)))
        CFI (cfiCond217) CFA_SP SP+0
        CFI (cfiCond217) CFA_XSP16 add(XSP16, 35)
        CFI Block cfiCond218 Using cfiCommon0
        CFI (cfiCond218) NoFunction
        CFI (cfiCond218) Conditional ??CrossCallReturnLabel_101
        CFI (cfiCond218) R6 load(1, XDATA, add(CFA_XSP16, literal(-21)))
        CFI (cfiCond218) VB load(1, XDATA, add(CFA_XSP16, literal(-20)))
        CFI (cfiCond218) V0 load(1, XDATA, add(CFA_XSP16, literal(-19)))
        CFI (cfiCond218) V1 load(1, XDATA, add(CFA_XSP16, literal(-18)))
        CFI (cfiCond218) V2 load(1, XDATA, add(CFA_XSP16, literal(-17)))
        CFI (cfiCond218) V3 load(1, XDATA, add(CFA_XSP16, literal(-16)))
        CFI (cfiCond218) V4 load(1, XDATA, add(CFA_XSP16, literal(-15)))
        CFI (cfiCond218) V5 load(1, XDATA, add(CFA_XSP16, literal(-14)))
        CFI (cfiCond218) V6 load(1, XDATA, add(CFA_XSP16, literal(-13)))
        CFI (cfiCond218) V7 load(1, XDATA, add(CFA_XSP16, literal(-12)))
        CFI (cfiCond218) V8 load(1, XDATA, add(CFA_XSP16, literal(-11)))
        CFI (cfiCond218) V9 load(1, XDATA, add(CFA_XSP16, literal(-10)))
        CFI (cfiCond218) V10 load(1, XDATA, add(CFA_XSP16, literal(-9)))
        CFI (cfiCond218) V11 load(1, XDATA, add(CFA_XSP16, literal(-8)))
        CFI (cfiCond218) V12 load(1, XDATA, add(CFA_XSP16, literal(-7)))
        CFI (cfiCond218) R7 load(1, XDATA, add(CFA_XSP16, literal(-6)))
        CFI (cfiCond218) ?RET_LOW load(1, XDATA, add(CFA_XSP16, literal(-5)))
        CFI (cfiCond218) ?RET_HIGH load(1, XDATA, add(CFA_XSP16, literal(-4)))
        CFI (cfiCond218) ?BRET_EXT load(1, XDATA, add(CFA_XSP16, literal(-3)))
        CFI (cfiCond218) DPL0 load(1, XDATA, add(CFA_XSP16, literal(-2)))
        CFI (cfiCond218) DPH0 load(1, XDATA, add(CFA_XSP16, literal(-1)))
        CFI (cfiCond218) CFA_SP SP+0
        CFI (cfiCond218) CFA_XSP16 add(XSP16, 35)
        CFI Block cfiCond219 Using cfiCommon0
        CFI (cfiCond219) NoFunction
        CFI (cfiCond219) Conditional ??CrossCallReturnLabel_102
        CFI (cfiCond219) R6 load(1, XDATA, add(CFA_XSP16, literal(-14)))
        CFI (cfiCond219) VB load(1, XDATA, add(CFA_XSP16, literal(-13)))
        CFI (cfiCond219) V0 load(1, XDATA, add(CFA_XSP16, literal(-12)))
        CFI (cfiCond219) V1 load(1, XDATA, add(CFA_XSP16, literal(-11)))
        CFI (cfiCond219) V2 load(1, XDATA, add(CFA_XSP16, literal(-10)))
        CFI (cfiCond219) V3 load(1, XDATA, add(CFA_XSP16, literal(-9)))
        CFI (cfiCond219) V4 load(1, XDATA, add(CFA_XSP16, literal(-8)))
        CFI (cfiCond219) V5 load(1, XDATA, add(CFA_XSP16, literal(-7)))
        CFI (cfiCond219) R7 load(1, XDATA, add(CFA_XSP16, literal(-6)))
        CFI (cfiCond219) ?RET_LOW load(1, XDATA, add(CFA_XSP16, literal(-5)))
        CFI (cfiCond219) ?RET_HIGH load(1, XDATA, add(CFA_XSP16, literal(-4)))
        CFI (cfiCond219) ?BRET_EXT load(1, XDATA, add(CFA_XSP16, literal(-3)))
        CFI (cfiCond219) DPL0 load(1, XDATA, add(CFA_XSP16, literal(-2)))
        CFI (cfiCond219) DPH0 load(1, XDATA, add(CFA_XSP16, literal(-1)))
        CFI (cfiCond219) CFA_SP SP+0
        CFI (cfiCond219) CFA_XSP16 add(XSP16, 20)
        CFI Block cfiCond220 Using cfiCommon0
        CFI (cfiCond220) NoFunction
        CFI (cfiCond220) Conditional ??CrossCallReturnLabel_103
        CFI (cfiCond220) R6 load(1, XDATA, add(CFA_XSP16, literal(-21)))
        CFI (cfiCond220) VB load(1, XDATA, add(CFA_XSP16, literal(-20)))
        CFI (cfiCond220) V0 load(1, XDATA, add(CFA_XSP16, literal(-19)))
        CFI (cfiCond220) V1 load(1, XDATA, add(CFA_XSP16, literal(-18)))
        CFI (cfiCond220) V2 load(1, XDATA, add(CFA_XSP16, literal(-17)))
        CFI (cfiCond220) V3 load(1, XDATA, add(CFA_XSP16, literal(-16)))
        CFI (cfiCond220) V4 load(1, XDATA, add(CFA_XSP16, literal(-15)))
        CFI (cfiCond220) V5 load(1, XDATA, add(CFA_XSP16, literal(-14)))
        CFI (cfiCond220) V6 load(1, XDATA, add(CFA_XSP16, literal(-13)))
        CFI (cfiCond220) V7 load(1, XDATA, add(CFA_XSP16, literal(-12)))
        CFI (cfiCond220) V8 load(1, XDATA, add(CFA_XSP16, literal(-11)))
        CFI (cfiCond220) V9 load(1, XDATA, add(CFA_XSP16, literal(-10)))
        CFI (cfiCond220) V10 load(1, XDATA, add(CFA_XSP16, literal(-9)))
        CFI (cfiCond220) V11 load(1, XDATA, add(CFA_XSP16, literal(-8)))
        CFI (cfiCond220) V12 load(1, XDATA, add(CFA_XSP16, literal(-7)))
        CFI (cfiCond220) R7 load(1, XDATA, add(CFA_XSP16, literal(-6)))
        CFI (cfiCond220) ?RET_LOW load(1, XDATA, add(CFA_XSP16, literal(-5)))
        CFI (cfiCond220) ?RET_HIGH load(1, XDATA, add(CFA_XSP16, literal(-4)))
        CFI (cfiCond220) ?BRET_EXT load(1, XDATA, add(CFA_XSP16, literal(-3)))
        CFI (cfiCond220) DPL0 load(1, XDATA, add(CFA_XSP16, literal(-2)))
        CFI (cfiCond220) DPH0 load(1, XDATA, add(CFA_XSP16, literal(-1)))
        CFI (cfiCond220) CFA_SP SP+0
        CFI (cfiCond220) CFA_XSP16 add(XSP16, 35)
        CFI Block cfiCond221 Using cfiCommon0
        CFI (cfiCond221) NoFunction
        CFI (cfiCond221) Conditional ??CrossCallReturnLabel_104
        CFI (cfiCond221) R6 load(1, XDATA, add(CFA_XSP16, literal(-14)))
        CFI (cfiCond221) VB load(1, XDATA, add(CFA_XSP16, literal(-13)))
        CFI (cfiCond221) V0 load(1, XDATA, add(CFA_XSP16, literal(-12)))
        CFI (cfiCond221) V1 load(1, XDATA, add(CFA_XSP16, literal(-11)))
        CFI (cfiCond221) V2 load(1, XDATA, add(CFA_XSP16, literal(-10)))
        CFI (cfiCond221) V3 load(1, XDATA, add(CFA_XSP16, literal(-9)))
        CFI (cfiCond221) V4 load(1, XDATA, add(CFA_XSP16, literal(-8)))
        CFI (cfiCond221) V5 load(1, XDATA, add(CFA_XSP16, literal(-7)))
        CFI (cfiCond221) R7 load(1, XDATA, add(CFA_XSP16, literal(-6)))
        CFI (cfiCond221) ?RET_LOW load(1, XDATA, add(CFA_XSP16, literal(-5)))
        CFI (cfiCond221) ?RET_HIGH load(1, XDATA, add(CFA_XSP16, literal(-4)))
        CFI (cfiCond221) ?BRET_EXT load(1, XDATA, add(CFA_XSP16, literal(-3)))
        CFI (cfiCond221) DPL0 load(1, XDATA, add(CFA_XSP16, literal(-2)))
        CFI (cfiCond221) DPH0 load(1, XDATA, add(CFA_XSP16, literal(-1)))
        CFI (cfiCond221) CFA_SP SP+0
        CFI (cfiCond221) CFA_XSP16 add(XSP16, 22)
        CFI Block cfiPicker222 Using cfiCommon1
        CFI (cfiPicker222) NoFunction
        CFI (cfiPicker222) Picker
        LCALL   ?Subroutine31 & 0xFFFF
??CrossCallReturnLabel_106:
        RET
        CFI EndBlock cfiCond213
        CFI EndBlock cfiCond214
        CFI EndBlock cfiCond215
        CFI EndBlock cfiCond216
        CFI EndBlock cfiCond217
        CFI EndBlock cfiCond218
        CFI EndBlock cfiCond219
        CFI EndBlock cfiCond220
        CFI EndBlock cfiCond221
        CFI EndBlock cfiPicker222

        RSEG BANKED_CODE:CODE:NOROOT(0)
?Subroutine31:
        CFI Block cfiCond223 Using cfiCommon0
        CFI NoFunction
        CFI Conditional ??CrossCallReturnLabel_105, ??CrossCallReturnLabel_51
        CFI R6 load(1, XDATA, add(CFA_XSP16, literal(-9)))
        CFI VB load(1, XDATA, add(CFA_XSP16, literal(-8)))
        CFI V0 load(1, XDATA, add(CFA_XSP16, literal(-7)))
        CFI R7 load(1, XDATA, add(CFA_XSP16, literal(-6)))
        CFI ?RET_LOW load(1, XDATA, add(CFA_XSP16, literal(-5)))
        CFI ?RET_HIGH load(1, XDATA, add(CFA_XSP16, literal(-4)))
        CFI ?BRET_EXT load(1, XDATA, add(CFA_XSP16, literal(-3)))
        CFI DPL0 load(1, XDATA, add(CFA_XSP16, literal(-2)))
        CFI DPH0 load(1, XDATA, add(CFA_XSP16, literal(-1)))
        CFI CFA_SP SP+0
        CFI CFA_XSP16 add(XSP16, 9)
        CFI Block cfiCond224 Using cfiCommon0
        CFI (cfiCond224) NoFunction
        CFI (cfiCond224) Conditional ??CrossCallReturnLabel_105, ??CrossCallReturnLabel_52
        CFI (cfiCond224) R6 load(1, XDATA, add(CFA_XSP16, literal(-9)))
        CFI (cfiCond224) VB load(1, XDATA, add(CFA_XSP16, literal(-8)))
        CFI (cfiCond224) V0 load(1, XDATA, add(CFA_XSP16, literal(-7)))
        CFI (cfiCond224) R7 load(1, XDATA, add(CFA_XSP16, literal(-6)))
        CFI (cfiCond224) ?RET_LOW load(1, XDATA, add(CFA_XSP16, literal(-5)))
        CFI (cfiCond224) ?RET_HIGH load(1, XDATA, add(CFA_XSP16, literal(-4)))
        CFI (cfiCond224) ?BRET_EXT load(1, XDATA, add(CFA_XSP16, literal(-3)))
        CFI (cfiCond224) DPL0 load(1, XDATA, add(CFA_XSP16, literal(-2)))
        CFI (cfiCond224) DPH0 load(1, XDATA, add(CFA_XSP16, literal(-1)))
        CFI (cfiCond224) CFA_SP SP+0
        CFI (cfiCond224) CFA_XSP16 add(XSP16, 9)
        CFI Block cfiCond225 Using cfiCommon0
        CFI (cfiCond225) NoFunction
        CFI (cfiCond225) Conditional ??CrossCallReturnLabel_105, ??CrossCallReturnLabel_49
        CFI (cfiCond225) R6 load(1, XDATA, add(CFA_XSP16, literal(-14)))
        CFI (cfiCond225) VB load(1, XDATA, add(CFA_XSP16, literal(-13)))
        CFI (cfiCond225) V0 load(1, XDATA, add(CFA_XSP16, literal(-12)))
        CFI (cfiCond225) V1 load(1, XDATA, add(CFA_XSP16, literal(-11)))
        CFI (cfiCond225) V2 load(1, XDATA, add(CFA_XSP16, literal(-10)))
        CFI (cfiCond225) V3 load(1, XDATA, add(CFA_XSP16, literal(-9)))
        CFI (cfiCond225) V4 load(1, XDATA, add(CFA_XSP16, literal(-8)))
        CFI (cfiCond225) V5 load(1, XDATA, add(CFA_XSP16, literal(-7)))
        CFI (cfiCond225) R7 load(1, XDATA, add(CFA_XSP16, literal(-6)))
        CFI (cfiCond225) ?RET_LOW load(1, XDATA, add(CFA_XSP16, literal(-5)))
        CFI (cfiCond225) ?RET_HIGH load(1, XDATA, add(CFA_XSP16, literal(-4)))
        CFI (cfiCond225) ?BRET_EXT load(1, XDATA, add(CFA_XSP16, literal(-3)))
        CFI (cfiCond225) DPL0 load(1, XDATA, add(CFA_XSP16, literal(-2)))
        CFI (cfiCond225) DPH0 load(1, XDATA, add(CFA_XSP16, literal(-1)))
        CFI (cfiCond225) CFA_SP SP+0
        CFI (cfiCond225) CFA_XSP16 add(XSP16, 15)
        CFI Block cfiCond226 Using cfiCommon0
        CFI (cfiCond226) NoFunction
        CFI (cfiCond226) Conditional ??CrossCallReturnLabel_105, ??CrossCallReturnLabel_50
        CFI (cfiCond226) R6 load(1, XDATA, add(CFA_XSP16, literal(-14)))
        CFI (cfiCond226) VB load(1, XDATA, add(CFA_XSP16, literal(-13)))
        CFI (cfiCond226) V0 load(1, XDATA, add(CFA_XSP16, literal(-12)))
        CFI (cfiCond226) V1 load(1, XDATA, add(CFA_XSP16, literal(-11)))
        CFI (cfiCond226) V2 load(1, XDATA, add(CFA_XSP16, literal(-10)))
        CFI (cfiCond226) V3 load(1, XDATA, add(CFA_XSP16, literal(-9)))
        CFI (cfiCond226) V4 load(1, XDATA, add(CFA_XSP16, literal(-8)))
        CFI (cfiCond226) V5 load(1, XDATA, add(CFA_XSP16, literal(-7)))
        CFI (cfiCond226) R7 load(1, XDATA, add(CFA_XSP16, literal(-6)))
        CFI (cfiCond226) ?RET_LOW load(1, XDATA, add(CFA_XSP16, literal(-5)))
        CFI (cfiCond226) ?RET_HIGH load(1, XDATA, add(CFA_XSP16, literal(-4)))
        CFI (cfiCond226) ?BRET_EXT load(1, XDATA, add(CFA_XSP16, literal(-3)))
        CFI (cfiCond226) DPL0 load(1, XDATA, add(CFA_XSP16, literal(-2)))
        CFI (cfiCond226) DPH0 load(1, XDATA, add(CFA_XSP16, literal(-1)))
        CFI (cfiCond226) CFA_SP SP+0
        CFI (cfiCond226) CFA_XSP16 add(XSP16, 24)
        CFI Block cfiCond227 Using cfiCommon0
        CFI (cfiCond227) NoFunction
        CFI (cfiCond227) Conditional ??CrossCallReturnLabel_106, ??CrossCallReturnLabel_103
        CFI (cfiCond227) R6 load(1, XDATA, add(CFA_XSP16, literal(-21)))
        CFI (cfiCond227) VB load(1, XDATA, add(CFA_XSP16, literal(-20)))
        CFI (cfiCond227) V0 load(1, XDATA, add(CFA_XSP16, literal(-19)))
        CFI (cfiCond227) V1 load(1, XDATA, add(CFA_XSP16, literal(-18)))
        CFI (cfiCond227) V2 load(1, XDATA, add(CFA_XSP16, literal(-17)))
        CFI (cfiCond227) V3 load(1, XDATA, add(CFA_XSP16, literal(-16)))
        CFI (cfiCond227) V4 load(1, XDATA, add(CFA_XSP16, literal(-15)))
        CFI (cfiCond227) V5 load(1, XDATA, add(CFA_XSP16, literal(-14)))
        CFI (cfiCond227) V6 load(1, XDATA, add(CFA_XSP16, literal(-13)))
        CFI (cfiCond227) V7 load(1, XDATA, add(CFA_XSP16, literal(-12)))
        CFI (cfiCond227) V8 load(1, XDATA, add(CFA_XSP16, literal(-11)))
        CFI (cfiCond227) V9 load(1, XDATA, add(CFA_XSP16, literal(-10)))
        CFI (cfiCond227) V10 load(1, XDATA, add(CFA_XSP16, literal(-9)))
        CFI (cfiCond227) V11 load(1, XDATA, add(CFA_XSP16, literal(-8)))
        CFI (cfiCond227) V12 load(1, XDATA, add(CFA_XSP16, literal(-7)))
        CFI (cfiCond227) R7 load(1, XDATA, add(CFA_XSP16, literal(-6)))
        CFI (cfiCond227) ?RET_LOW load(1, XDATA, add(CFA_XSP16, literal(-5)))
        CFI (cfiCond227) ?RET_HIGH load(1, XDATA, add(CFA_XSP16, literal(-4)))
        CFI (cfiCond227) ?BRET_EXT load(1, XDATA, add(CFA_XSP16, literal(-3)))
        CFI (cfiCond227) DPL0 load(1, XDATA, add(CFA_XSP16, literal(-2)))
        CFI (cfiCond227) DPH0 load(1, XDATA, add(CFA_XSP16, literal(-1)))
        CFI (cfiCond227) CFA_SP SP+0
        CFI (cfiCond227) CFA_XSP16 add(XSP16, 35)
        CFI Block cfiCond228 Using cfiCommon0
        CFI (cfiCond228) NoFunction
        CFI (cfiCond228) Conditional ??CrossCallReturnLabel_106, ??CrossCallReturnLabel_104
        CFI (cfiCond228) R6 load(1, XDATA, add(CFA_XSP16, literal(-14)))
        CFI (cfiCond228) VB load(1, XDATA, add(CFA_XSP16, literal(-13)))
        CFI (cfiCond228) V0 load(1, XDATA, add(CFA_XSP16, literal(-12)))
        CFI (cfiCond228) V1 load(1, XDATA, add(CFA_XSP16, literal(-11)))
        CFI (cfiCond228) V2 load(1, XDATA, add(CFA_XSP16, literal(-10)))
        CFI (cfiCond228) V3 load(1, XDATA, add(CFA_XSP16, literal(-9)))
        CFI (cfiCond228) V4 load(1, XDATA, add(CFA_XSP16, literal(-8)))
        CFI (cfiCond228) V5 load(1, XDATA, add(CFA_XSP16, literal(-7)))
        CFI (cfiCond228) R7 load(1, XDATA, add(CFA_XSP16, literal(-6)))
        CFI (cfiCond228) ?RET_LOW load(1, XDATA, add(CFA_XSP16, literal(-5)))
        CFI (cfiCond228) ?RET_HIGH load(1, XDATA, add(CFA_XSP16, literal(-4)))
        CFI (cfiCond228) ?BRET_EXT load(1, XDATA, add(CFA_XSP16, literal(-3)))
        CFI (cfiCond228) DPL0 load(1, XDATA, add(CFA_XSP16, literal(-2)))
        CFI (cfiCond228) DPH0 load(1, XDATA, add(CFA_XSP16, literal(-1)))
        CFI (cfiCond228) CFA_SP SP+0
        CFI (cfiCond228) CFA_XSP16 add(XSP16, 22)
        CFI Block cfiCond229 Using cfiCommon0
        CFI (cfiCond229) NoFunction
        CFI (cfiCond229) Conditional ??CrossCallReturnLabel_106, ??CrossCallReturnLabel_96
        CFI (cfiCond229) R6 load(1, XDATA, add(CFA_XSP16, literal(-21)))
        CFI (cfiCond229) VB load(1, XDATA, add(CFA_XSP16, literal(-20)))
        CFI (cfiCond229) V0 load(1, XDATA, add(CFA_XSP16, literal(-19)))
        CFI (cfiCond229) V1 load(1, XDATA, add(CFA_XSP16, literal(-18)))
        CFI (cfiCond229) V2 load(1, XDATA, add(CFA_XSP16, literal(-17)))
        CFI (cfiCond229) V3 load(1, XDATA, add(CFA_XSP16, literal(-16)))
        CFI (cfiCond229) V4 load(1, XDATA, add(CFA_XSP16, literal(-15)))
        CFI (cfiCond229) V5 load(1, XDATA, add(CFA_XSP16, literal(-14)))
        CFI (cfiCond229) V6 load(1, XDATA, add(CFA_XSP16, literal(-13)))
        CFI (cfiCond229) V7 load(1, XDATA, add(CFA_XSP16, literal(-12)))
        CFI (cfiCond229) V8 load(1, XDATA, add(CFA_XSP16, literal(-11)))
        CFI (cfiCond229) V9 load(1, XDATA, add(CFA_XSP16, literal(-10)))
        CFI (cfiCond229) V10 load(1, XDATA, add(CFA_XSP16, literal(-9)))
        CFI (cfiCond229) V11 load(1, XDATA, add(CFA_XSP16, literal(-8)))
        CFI (cfiCond229) V12 load(1, XDATA, add(CFA_XSP16, literal(-7)))
        CFI (cfiCond229) R7 load(1, XDATA, add(CFA_XSP16, literal(-6)))
        CFI (cfiCond229) ?RET_LOW load(1, XDATA, add(CFA_XSP16, literal(-5)))
        CFI (cfiCond229) ?RET_HIGH load(1, XDATA, add(CFA_XSP16, literal(-4)))
        CFI (cfiCond229) ?BRET_EXT load(1, XDATA, add(CFA_XSP16, literal(-3)))
        CFI (cfiCond229) DPL0 load(1, XDATA, add(CFA_XSP16, literal(-2)))
        CFI (cfiCond229) DPH0 load(1, XDATA, add(CFA_XSP16, literal(-1)))
        CFI (cfiCond229) CFA_SP SP+0
        CFI (cfiCond229) CFA_XSP16 add(XSP16, 35)
        CFI Block cfiCond230 Using cfiCommon0
        CFI (cfiCond230) NoFunction
        CFI (cfiCond230) Conditional ??CrossCallReturnLabel_106, ??CrossCallReturnLabel_97
        CFI (cfiCond230) R6 load(1, XDATA, add(CFA_XSP16, literal(-21)))
        CFI (cfiCond230) VB load(1, XDATA, add(CFA_XSP16, literal(-20)))
        CFI (cfiCond230) V0 load(1, XDATA, add(CFA_XSP16, literal(-19)))
        CFI (cfiCond230) V1 load(1, XDATA, add(CFA_XSP16, literal(-18)))
        CFI (cfiCond230) V2 load(1, XDATA, add(CFA_XSP16, literal(-17)))
        CFI (cfiCond230) V3 load(1, XDATA, add(CFA_XSP16, literal(-16)))
        CFI (cfiCond230) V4 load(1, XDATA, add(CFA_XSP16, literal(-15)))
        CFI (cfiCond230) V5 load(1, XDATA, add(CFA_XSP16, literal(-14)))
        CFI (cfiCond230) V6 load(1, XDATA, add(CFA_XSP16, literal(-13)))
        CFI (cfiCond230) V7 load(1, XDATA, add(CFA_XSP16, literal(-12)))
        CFI (cfiCond230) V8 load(1, XDATA, add(CFA_XSP16, literal(-11)))
        CFI (cfiCond230) V9 load(1, XDATA, add(CFA_XSP16, literal(-10)))
        CFI (cfiCond230) V10 load(1, XDATA, add(CFA_XSP16, literal(-9)))
        CFI (cfiCond230) V11 load(1, XDATA, add(CFA_XSP16, literal(-8)))
        CFI (cfiCond230) V12 load(1, XDATA, add(CFA_XSP16, literal(-7)))
        CFI (cfiCond230) R7 load(1, XDATA, add(CFA_XSP16, literal(-6)))
        CFI (cfiCond230) ?RET_LOW load(1, XDATA, add(CFA_XSP16, literal(-5)))
        CFI (cfiCond230) ?RET_HIGH load(1, XDATA, add(CFA_XSP16, literal(-4)))
        CFI (cfiCond230) ?BRET_EXT load(1, XDATA, add(CFA_XSP16, literal(-3)))
        CFI (cfiCond230) DPL0 load(1, XDATA, add(CFA_XSP16, literal(-2)))
        CFI (cfiCond230) DPH0 load(1, XDATA, add(CFA_XSP16, literal(-1)))
        CFI (cfiCond230) CFA_SP SP+0
        CFI (cfiCond230) CFA_XSP16 add(XSP16, 35)
        CFI Block cfiCond231 Using cfiCommon0
        CFI (cfiCond231) NoFunction
        CFI (cfiCond231) Conditional ??CrossCallReturnLabel_106, ??CrossCallReturnLabel_98
        CFI (cfiCond231) R6 load(1, XDATA, add(CFA_XSP16, literal(-21)))
        CFI (cfiCond231) VB load(1, XDATA, add(CFA_XSP16, literal(-20)))
        CFI (cfiCond231) V0 load(1, XDATA, add(CFA_XSP16, literal(-19)))
        CFI (cfiCond231) V1 load(1, XDATA, add(CFA_XSP16, literal(-18)))
        CFI (cfiCond231) V2 load(1, XDATA, add(CFA_XSP16, literal(-17)))
        CFI (cfiCond231) V3 load(1, XDATA, add(CFA_XSP16, literal(-16)))
        CFI (cfiCond231) V4 load(1, XDATA, add(CFA_XSP16, literal(-15)))
        CFI (cfiCond231) V5 load(1, XDATA, add(CFA_XSP16, literal(-14)))
        CFI (cfiCond231) V6 load(1, XDATA, add(CFA_XSP16, literal(-13)))
        CFI (cfiCond231) V7 load(1, XDATA, add(CFA_XSP16, literal(-12)))
        CFI (cfiCond231) V8 load(1, XDATA, add(CFA_XSP16, literal(-11)))
        CFI (cfiCond231) V9 load(1, XDATA, add(CFA_XSP16, literal(-10)))
        CFI (cfiCond231) V10 load(1, XDATA, add(CFA_XSP16, literal(-9)))
        CFI (cfiCond231) V11 load(1, XDATA, add(CFA_XSP16, literal(-8)))
        CFI (cfiCond231) V12 load(1, XDATA, add(CFA_XSP16, literal(-7)))
        CFI (cfiCond231) R7 load(1, XDATA, add(CFA_XSP16, literal(-6)))
        CFI (cfiCond231) ?RET_LOW load(1, XDATA, add(CFA_XSP16, literal(-5)))
        CFI (cfiCond231) ?RET_HIGH load(1, XDATA, add(CFA_XSP16, literal(-4)))
        CFI (cfiCond231) ?BRET_EXT load(1, XDATA, add(CFA_XSP16, literal(-3)))
        CFI (cfiCond231) DPL0 load(1, XDATA, add(CFA_XSP16, literal(-2)))
        CFI (cfiCond231) DPH0 load(1, XDATA, add(CFA_XSP16, literal(-1)))
        CFI (cfiCond231) CFA_SP SP+-1
        CFI (cfiCond231) CFA_XSP16 add(XSP16, 35)
        CFI Block cfiCond232 Using cfiCommon0
        CFI (cfiCond232) NoFunction
        CFI (cfiCond232) Conditional ??CrossCallReturnLabel_106, ??CrossCallReturnLabel_99
        CFI (cfiCond232) R6 load(1, XDATA, add(CFA_XSP16, literal(-21)))
        CFI (cfiCond232) VB load(1, XDATA, add(CFA_XSP16, literal(-20)))
        CFI (cfiCond232) V0 load(1, XDATA, add(CFA_XSP16, literal(-19)))
        CFI (cfiCond232) V1 load(1, XDATA, add(CFA_XSP16, literal(-18)))
        CFI (cfiCond232) V2 load(1, XDATA, add(CFA_XSP16, literal(-17)))
        CFI (cfiCond232) V3 load(1, XDATA, add(CFA_XSP16, literal(-16)))
        CFI (cfiCond232) V4 load(1, XDATA, add(CFA_XSP16, literal(-15)))
        CFI (cfiCond232) V5 load(1, XDATA, add(CFA_XSP16, literal(-14)))
        CFI (cfiCond232) V6 load(1, XDATA, add(CFA_XSP16, literal(-13)))
        CFI (cfiCond232) V7 load(1, XDATA, add(CFA_XSP16, literal(-12)))
        CFI (cfiCond232) V8 load(1, XDATA, add(CFA_XSP16, literal(-11)))
        CFI (cfiCond232) V9 load(1, XDATA, add(CFA_XSP16, literal(-10)))
        CFI (cfiCond232) V10 load(1, XDATA, add(CFA_XSP16, literal(-9)))
        CFI (cfiCond232) V11 load(1, XDATA, add(CFA_XSP16, literal(-8)))
        CFI (cfiCond232) V12 load(1, XDATA, add(CFA_XSP16, literal(-7)))
        CFI (cfiCond232) R7 load(1, XDATA, add(CFA_XSP16, literal(-6)))
        CFI (cfiCond232) ?RET_LOW load(1, XDATA, add(CFA_XSP16, literal(-5)))
        CFI (cfiCond232) ?RET_HIGH load(1, XDATA, add(CFA_XSP16, literal(-4)))
        CFI (cfiCond232) ?BRET_EXT load(1, XDATA, add(CFA_XSP16, literal(-3)))
        CFI (cfiCond232) DPL0 load(1, XDATA, add(CFA_XSP16, literal(-2)))
        CFI (cfiCond232) DPH0 load(1, XDATA, add(CFA_XSP16, literal(-1)))
        CFI (cfiCond232) CFA_SP SP+0
        CFI (cfiCond232) CFA_XSP16 add(XSP16, 35)
        CFI Block cfiCond233 Using cfiCommon0
        CFI (cfiCond233) NoFunction
        CFI (cfiCond233) Conditional ??CrossCallReturnLabel_106, ??CrossCallReturnLabel_100
        CFI (cfiCond233) R6 load(1, XDATA, add(CFA_XSP16, literal(-21)))
        CFI (cfiCond233) VB load(1, XDATA, add(CFA_XSP16, literal(-20)))
        CFI (cfiCond233) V0 load(1, XDATA, add(CFA_XSP16, literal(-19)))
        CFI (cfiCond233) V1 load(1, XDATA, add(CFA_XSP16, literal(-18)))
        CFI (cfiCond233) V2 load(1, XDATA, add(CFA_XSP16, literal(-17)))
        CFI (cfiCond233) V3 load(1, XDATA, add(CFA_XSP16, literal(-16)))
        CFI (cfiCond233) V4 load(1, XDATA, add(CFA_XSP16, literal(-15)))
        CFI (cfiCond233) V5 load(1, XDATA, add(CFA_XSP16, literal(-14)))
        CFI (cfiCond233) V6 load(1, XDATA, add(CFA_XSP16, literal(-13)))
        CFI (cfiCond233) V7 load(1, XDATA, add(CFA_XSP16, literal(-12)))
        CFI (cfiCond233) V8 load(1, XDATA, add(CFA_XSP16, literal(-11)))
        CFI (cfiCond233) V9 load(1, XDATA, add(CFA_XSP16, literal(-10)))
        CFI (cfiCond233) V10 load(1, XDATA, add(CFA_XSP16, literal(-9)))
        CFI (cfiCond233) V11 load(1, XDATA, add(CFA_XSP16, literal(-8)))
        CFI (cfiCond233) V12 load(1, XDATA, add(CFA_XSP16, literal(-7)))
        CFI (cfiCond233) R7 load(1, XDATA, add(CFA_XSP16, literal(-6)))
        CFI (cfiCond233) ?RET_LOW load(1, XDATA, add(CFA_XSP16, literal(-5)))
        CFI (cfiCond233) ?RET_HIGH load(1, XDATA, add(CFA_XSP16, literal(-4)))
        CFI (cfiCond233) ?BRET_EXT load(1, XDATA, add(CFA_XSP16, literal(-3)))
        CFI (cfiCond233) DPL0 load(1, XDATA, add(CFA_XSP16, literal(-2)))
        CFI (cfiCond233) DPH0 load(1, XDATA, add(CFA_XSP16, literal(-1)))
        CFI (cfiCond233) CFA_SP SP+0
        CFI (cfiCond233) CFA_XSP16 add(XSP16, 35)
        CFI Block cfiCond234 Using cfiCommon0
        CFI (cfiCond234) NoFunction
        CFI (cfiCond234) Conditional ??CrossCallReturnLabel_106, ??CrossCallReturnLabel_101
        CFI (cfiCond234) R6 load(1, XDATA, add(CFA_XSP16, literal(-21)))
        CFI (cfiCond234) VB load(1, XDATA, add(CFA_XSP16, literal(-20)))
        CFI (cfiCond234) V0 load(1, XDATA, add(CFA_XSP16, literal(-19)))
        CFI (cfiCond234) V1 load(1, XDATA, add(CFA_XSP16, literal(-18)))
        CFI (cfiCond234) V2 load(1, XDATA, add(CFA_XSP16, literal(-17)))
        CFI (cfiCond234) V3 load(1, XDATA, add(CFA_XSP16, literal(-16)))
        CFI (cfiCond234) V4 load(1, XDATA, add(CFA_XSP16, literal(-15)))
        CFI (cfiCond234) V5 load(1, XDATA, add(CFA_XSP16, literal(-14)))
        CFI (cfiCond234) V6 load(1, XDATA, add(CFA_XSP16, literal(-13)))
        CFI (cfiCond234) V7 load(1, XDATA, add(CFA_XSP16, literal(-12)))
        CFI (cfiCond234) V8 load(1, XDATA, add(CFA_XSP16, literal(-11)))
        CFI (cfiCond234) V9 load(1, XDATA, add(CFA_XSP16, literal(-10)))
        CFI (cfiCond234) V10 load(1, XDATA, add(CFA_XSP16, literal(-9)))
        CFI (cfiCond234) V11 load(1, XDATA, add(CFA_XSP16, literal(-8)))
        CFI (cfiCond234) V12 load(1, XDATA, add(CFA_XSP16, literal(-7)))
        CFI (cfiCond234) R7 load(1, XDATA, add(CFA_XSP16, literal(-6)))
        CFI (cfiCond234) ?RET_LOW load(1, XDATA, add(CFA_XSP16, literal(-5)))
        CFI (cfiCond234) ?RET_HIGH load(1, XDATA, add(CFA_XSP16, literal(-4)))
        CFI (cfiCond234) ?BRET_EXT load(1, XDATA, add(CFA_XSP16, literal(-3)))
        CFI (cfiCond234) DPL0 load(1, XDATA, add(CFA_XSP16, literal(-2)))
        CFI (cfiCond234) DPH0 load(1, XDATA, add(CFA_XSP16, literal(-1)))
        CFI (cfiCond234) CFA_SP SP+0
        CFI (cfiCond234) CFA_XSP16 add(XSP16, 35)
        CFI Block cfiCond235 Using cfiCommon0
        CFI (cfiCond235) NoFunction
        CFI (cfiCond235) Conditional ??CrossCallReturnLabel_106, ??CrossCallReturnLabel_102
        CFI (cfiCond235) R6 load(1, XDATA, add(CFA_XSP16, literal(-14)))
        CFI (cfiCond235) VB load(1, XDATA, add(CFA_XSP16, literal(-13)))
        CFI (cfiCond235) V0 load(1, XDATA, add(CFA_XSP16, literal(-12)))
        CFI (cfiCond235) V1 load(1, XDATA, add(CFA_XSP16, literal(-11)))
        CFI (cfiCond235) V2 load(1, XDATA, add(CFA_XSP16, literal(-10)))
        CFI (cfiCond235) V3 load(1, XDATA, add(CFA_XSP16, literal(-9)))
        CFI (cfiCond235) V4 load(1, XDATA, add(CFA_XSP16, literal(-8)))
        CFI (cfiCond235) V5 load(1, XDATA, add(CFA_XSP16, literal(-7)))
        CFI (cfiCond235) R7 load(1, XDATA, add(CFA_XSP16, literal(-6)))
        CFI (cfiCond235) ?RET_LOW load(1, XDATA, add(CFA_XSP16, literal(-5)))
        CFI (cfiCond235) ?RET_HIGH load(1, XDATA, add(CFA_XSP16, literal(-4)))
        CFI (cfiCond235) ?BRET_EXT load(1, XDATA, add(CFA_XSP16, literal(-3)))
        CFI (cfiCond235) DPL0 load(1, XDATA, add(CFA_XSP16, literal(-2)))
        CFI (cfiCond235) DPH0 load(1, XDATA, add(CFA_XSP16, literal(-1)))
        CFI (cfiCond235) CFA_SP SP+0
        CFI (cfiCond235) CFA_XSP16 add(XSP16, 20)
        CFI Block cfiPicker236 Using cfiCommon1
        CFI (cfiPicker236) NoFunction
        CFI (cfiPicker236) Picker
        MOV     R0,A
        INC     DPTR
        MOVX    A,@DPTR
        LCALL   ??Subroutine39_0 & 0xFFFF
??CrossCallReturnLabel_109:
        RET
        CFI EndBlock cfiCond223
        CFI EndBlock cfiCond224
        CFI EndBlock cfiCond225
        CFI EndBlock cfiCond226
        CFI EndBlock cfiCond227
        CFI EndBlock cfiCond228
        CFI EndBlock cfiCond229
        CFI EndBlock cfiCond230
        CFI EndBlock cfiCond231
        CFI EndBlock cfiCond232
        CFI EndBlock cfiCond233
        CFI EndBlock cfiCond234
        CFI EndBlock cfiCond235
        CFI EndBlock cfiPicker236

        RSEG BANK_RELAYS:CODE:REORDER:NOROOT(0)
??MT_AfExec?relay:
        LCALL   ?BDISPATCH
        DATA
        DC24    MT_AfExec

        RSEG BANK_RELAYS:CODE:REORDER:NOROOT(0)
??MT_AfCommandProcessing?relay:
        LCALL   ?BDISPATCH
        DATA
        DC24    MT_AfCommandProcessing

        RSEG BANK_RELAYS:CODE:REORDER:NOROOT(0)
??MT_AfRegister?relay:
        LCALL   ?BDISPATCH
        DATA
        DC24    MT_AfRegister

        RSEG BANK_RELAYS:CODE:REORDER:NOROOT(0)
??MT_AfDataRequest?relay:
        LCALL   ?BDISPATCH
        DATA
        DC24    MT_AfDataRequest

        RSEG BANK_RELAYS:CODE:REORDER:NOROOT(0)
??MT_AfDataConfirm?relay:
        LCALL   ?BDISPATCH
        DATA
        DC24    MT_AfDataConfirm

        RSEG BANK_RELAYS:CODE:REORDER:NOROOT(0)
??MT_AfIncomingMsg?relay:
        LCALL   ?BDISPATCH
        DATA
        DC24    MT_AfIncomingMsg

        RSEG BANK_RELAYS:CODE:REORDER:NOROOT(0)
??MT_AfDataRetrieve?relay:
        LCALL   ?BDISPATCH
        DATA
        DC24    MT_AfDataRetrieve

        RSEG BANK_RELAYS:CODE:REORDER:NOROOT(0)
??MT_AfDataStore?relay:
        LCALL   ?BDISPATCH
        DATA
        DC24    MT_AfDataStore

        END
//  907 
//  908 /***************************************************************************************************
//  909 ***************************************************************************************************/
// 
// 2 788 bytes in segment BANKED_CODE
//    48 bytes in segment BANK_RELAYS
//     4 bytes in segment XDATA_Z
// 
// 2 836 bytes of CODE  memory
//     4 bytes of XDATA memory
//
//Errors: none
//Warnings: none
